libmariadbd.so.19 libmariadbd19 #MINVER#
 COND_manager@Base 10.11.8
 COND_prepare_ordered@Base 10.11.8
 COND_server_started@Base 10.11.8
 COND_start_thread@Base 10.11.8
 DATA_clex_str@Base 10.11.8
 Diag_condition_item_names@Base 10.11.8
 ERR_MSGS_INDEX@Base 10.11.8
 GENERAL_LOG_NAME@Base 10.11.8
 INDEX_clex_str@Base 10.11.8
 INFORMATION_SCHEMA_NAME@Base 10.11.8
 Item_false@Base 10.11.8
 Item_true@Base 10.11.8
 LF_HASH_OVERHEAD@Base 10.11.8
 LOCK_active_mi@Base 10.11.8
 LOCK_after_binlog_sync@Base 10.11.8
 LOCK_all_status_vars@Base 10.11.8
 LOCK_backup_log@Base 10.11.8
 LOCK_commit_ordered@Base 10.11.8
 LOCK_crypt@Base 10.11.8
 LOCK_delayed_create@Base 10.11.8
 LOCK_delayed_insert@Base 10.11.8
 LOCK_delayed_status@Base 10.11.8
 LOCK_des_key_file@Base 10.11.8
 LOCK_error_log@Base 10.11.8
 LOCK_error_messages@Base 10.11.8
 LOCK_gdl@Base 10.11.8
 LOCK_global_index_stats@Base 10.11.8
 LOCK_global_system_variables@Base 10.11.8
 LOCK_global_table_stats@Base 10.11.8
 LOCK_global_user_client_stats@Base 10.11.8
 LOCK_grant@Base 10.11.8
 LOCK_item_func_sleep@Base 10.11.8
 LOCK_manager@Base 10.11.8
 LOCK_plugin@Base 10.11.8
 LOCK_prepare_ordered@Base 10.11.8
 LOCK_prepared_stmt_count@Base 10.11.8
 LOCK_server_started@Base 10.11.8
 LOCK_short_uuid_generator@Base 10.11.8
 LOCK_ssl_refresh@Base 10.11.8
 LOCK_start_thread@Base 10.11.8
 LOCK_stats@Base 10.11.8
 LOCK_status@Base 10.11.8
 LOCK_sys_init_connect@Base 10.11.8
 LOCK_sys_init_slave@Base 10.11.8
 LOCK_system_variables_hash@Base 10.11.8
 LOCK_thread_id@Base 10.11.8
 LOCK_user_conn@Base 10.11.8
 MYSQL_PROC_NAME@Base 10.11.8
 MYSQL_SCHEMA_NAME@Base 10.11.8
 NULL_clex_str@Base 10.11.8
 PERFORMANCE_SCHEMA_DB_NAME@Base 10.11.8
 PSI_hook@Base 10.11.8
 PSI_server@Base 10.11.8
 SLOW_LOG_NAME@Base 10.11.8
 STR_DELETING_ALL_ROWS@Base 10.11.8
 STR_IMPOSSIBLE_WHERE@Base 10.11.8
 STR_NO_ROWS_AFTER_PRUNING@Base 10.11.8
 Sys_autocommit_ptr@Base 10.11.8
 Sys_character_set_client_ptr@Base 10.11.8
 Sys_character_set_connection_ptr@Base 10.11.8
 Sys_character_set_results_ptr@Base 10.11.8
 Sys_old_passwords_ptr@Base 10.11.8
 Sys_optimizer_trace_ptr@Base 10.11.8
 THR_COND_threads@Base 10.11.8
 THR_KEY_mysys@Base 10.11.8
 THR_LOCK_charset@Base 10.11.8
 THR_LOCK_heap@Base 10.11.8
 THR_LOCK_lock@Base 10.11.8
 THR_LOCK_malloc@Base 10.11.8
 THR_LOCK_myisam@Base 10.11.8
 THR_LOCK_myisam_mmap@Base 10.11.8
 THR_LOCK_net@Base 10.11.8
 THR_LOCK_open@Base 10.11.8
 THR_LOCK_threads@Base 10.11.8
 THR_thread_count@Base 10.11.8
 TIME_to_double@Base 10.11.8
 TIME_to_ulonglong@Base 10.11.8
 TIME_to_ulonglong_date@Base 10.11.8
 TIME_to_ulonglong_datetime@Base 10.11.8
 TIME_to_ulonglong_time@Base 10.11.8
 TRANSACTION_REG_NAME@Base 10.11.8
 TRG_EXT@Base 10.11.8
 TRN_EXT@Base 10.11.8
 _Z10MYSQLparseP3THD@Base 10.11.8
 _Z10backup_endP3THD@Base 10.11.8
 _Z10cache_dumpv@Base 10.11.8
 _Z10check_wordP10st_typelibPKcS2_PS2_@Base 10.11.8
 _Z10cmp_labelsP8sp_labelS0_@Base 10.11.8
 _Z10copy_funcsPP4ItemPK3THD@Base 10.11.8
 _Z10create_thdv@Base 10.11.8
 _Z10field_convP5FieldS0_@Base 10.11.8
 _Z10find_namedP6I_ListI11NAMED_ILINKEPKcmPPS0_@Base 10.11.8
 _Z10find_type2PK10st_typelibPKcmPK15charset_info_st@Base 10.11.8
 _Z10fn_frm_extPKc@Base 10.11.8
 _Z10free_blobsP5TABLE@Base 10.11.8
 _Z10free_cacheP11READ_RECORD@Base 10.11.8
 _Z10free_itemsP4Item@Base 10.11.8
 _Z10ha_prepareP3THD@Base 10.11.8
 _Z10ha_recoverP7st_hashP11st_mem_root@Base 10.11.8
 _Z10is_cond_orP4Item@Base 10.11.8
 _Z10is_keywordPKcj@Base 10.11.8
 _Z10key_hashnrP6st_keyjPKh@Base 10.11.8
 _Z10key_unpackP6StringP5TABLEP6st_key@Base 10.11.8
 _Z10my_tz_findP3THDPK6String@Base 10.11.8
 _Z10my_tz_freev@Base 10.11.8
 _Z10my_tz_initP3THDPKcc@Base 10.11.8
 _Z10mysql_loadP3THDPK12sql_exchangeP10TABLE_LISTR4ListI4ItemES9_S9_15enum_duplicatesbb@Base 10.11.8
 _Z10open_tableP3THDP10TABLE_LISTP18Open_table_context@Base 10.11.8
 _Z10read_textsPKcS0_PPPS0_@Base 10.11.8
 _Z10reinit_sslv@Base 10.11.8
 _Z10setup_wildP3THDP10TABLE_LISTR4ListI4ItemEPS5_P13st_select_lexb@Base 10.11.8
 _Z10sql_perrorPKc@Base 10.11.8
 _Z10str_to_hexPcPKcm@Base 10.11.8
 _Z10strconvertPK15charset_info_stPKcmS1_PcmPj@Base 10.11.8
 _Z10sub_selectP4JOINP13st_join_tableb@Base 10.11.8
 _Z10tc_recordsv@Base 10.11.8
 _Z10tdc_deinitv@Base 10.11.8
 _Z10unlink_thdP3THD@Base 10.11.8
 _Z10view_checkP3THDP10TABLE_LISTP15st_ha_check_opt@Base 10.11.8
 _Z10wrap_identP3THDPP4Item@Base 10.11.8
 _Z11add_join_onP3THDP10TABLE_LISTP4Item@Base 10.11.8
 _Z11add_to_listP3THDR10SQL_I_ListI8st_orderEP4Itemb@Base 10.11.8
 _Z11alloc_queryP3THDPKcm@Base 10.11.8
 _Z11backup_initv@Base 10.11.8
 _Z11backup_lockP3THDP10TABLE_LIST@Base 10.11.8
 _Z11check_grantP3THD11privilege_tP10TABLE_LISTbjb@Base 10.11.8
 _Z11choose_planP4JOINy@Base 10.11.8
 _Z11copy_fieldsP15TMP_TABLE_PARAM@Base 10.11.8
 _Z11dd_frm_typeP3THDPcP25st_mysql_const_lex_stringS3_P34st_mysql_const_unsigned_lex_string@Base 10.11.8
 _Z11destroy_thdP3THD@Base 10.11.8
 _Z11drop_serverP3THDP21st_lex_server_options@Base 10.11.8
 _Z11fill_recordP3THDP5TABLEPP5FieldR4ListI4ItemEbbb@Base 10.11.8
 _Z11fill_recordP3THDP5TABLER4ListI4ItemES6_bb@Base 10.11.8
 _Z11fill_statusP3THDP10TABLE_LISTP4Item@Base 10.11.8
 _Z11free_stringPv9TREE_FREES_@Base 10.11.8
 _Z11is_cond_andP4Item@Base 10.11.8
 _Z11is_key_usedP5TABLEjPK9st_bitmap@Base 10.11.8
 _Z11key_buf_cmpP6st_keyjPKhS2_@Base 10.11.8
 _Z11key_restorePhPKhP6st_keyj@Base 10.11.8
 _Z11load_db_optP3THDPKcP23Schema_specification_st@Base 10.11.8
 _Z11lock_tablesP3THDP10TABLE_LISTjj@Base 10.11.8
 _Z11make_selectP5TABLEyyP4ItemP9SORT_INFObPi@Base 10.11.8
 _Z11mdl_destroyv@Base 10.11.8
 _Z11mdl_iteratePFiP10MDL_ticketPvbES1_@Base 10.11.8
 _Z11merge_indexP10Sort_param20Bounds_checked_arrayIhEP11Merge_chunkjP11st_io_cacheS6_@Base 10.11.8
 _Z11my_net_readP6st_net@Base 10.11.8
 _Z11mysql_parseP3THDPcjP12Parser_state@Base 10.11.8
 _Z11mysql_rm_dbP3THDPK25st_mysql_const_lex_stringb@Base 10.11.8
 _Z11mysql_unionP3THDP3LEXP13select_resultP18st_select_lex_unity@Base 10.11.8
 _Z11mysqld_helpP3THDPKc@Base 10.11.8
 _Z11open_binlogP11st_io_cachePKcPS2_@Base 10.11.8
 _Z11open_ltableP3THDP10TABLE_LIST13thr_lock_typej@Base 10.11.8
 _Z11open_tablesP3THDRK14DDL_options_stPP10TABLE_LISTPjjP19Prelocking_strategy@Base 10.11.8
 _Z11plugin_initPiPPci@Base 10.11.8
 _Z11plugin_lockP3THDP13st_plugin_int@Base 10.11.8
 _Z11reverse_keyPhPK15SORT_FIELD_ATTR@Base 10.11.8
 _Z11setup_condsP3THDP10TABLE_LISTR4ListIS1_EPP4Item@Base 10.11.8
 _Z11setup_groupP3THD20Bounds_checked_arrayIP4ItemEP10TABLE_LISTR4ListIS2_ES9_P8st_orderPbb@Base 10.11.8
 _Z11setup_orderP3THD20Bounds_checked_arrayIP4ItemEP10TABLE_LISTR4ListIS2_ES9_P8st_orderb@Base 10.11.8
 _Z11simple_predP9Item_funcPP4ItemPb@Base 10.11.8
 _Z11sys_var_endv@Base 10.11.8
 _Z11tables_dumpv@Base 10.11.8
 _Z11tdc_iterateP3THDPFcPvS1_ES1_b@Base 10.11.8
 _Z11tdc_recordsv@Base 10.11.8
 _Z11test_if_refP4ItemP10Item_fieldS0_@Base 10.11.8
 _Z11trans_beginP3THDj@Base 10.11.8
 _Z11ull_get_keyPKhPmc@Base 10.11.8
 _Z11unhex_type2P10st_typelib@Base 10.11.8
 _Z11unireg_initm@Base 10.11.8
 _Z11unpack_timexP13st_mysql_time25enum_mysql_timestamp_type@Base 10.11.8
 _Z11update_hashP14user_var_entrybPvmPK12Type_handlerPK15charset_info_st@Base 10.11.8
 _Z11view_repairP3THDP10TABLE_LISTP15st_ha_check_opt@Base 10.11.8
 _Z12alter_serverP3THDP21st_lex_server_options@Base 10.11.8
 _Z12calc_weekdaylb@Base 10.11.8
 _Z12check_accessP3THD11privilege_tPKcPS1_P22st_grant_internal_infobb@Base 10.11.8
 _Z12check_engineP3THDPKcS2_P14HA_CREATE_INFO@Base 10.11.8
 _Z12cmp_longlongPvPN11in_longlong15packed_longlongES2_@Base 10.11.8
 _Z12collect_realPdjP12st_tree_info@Base 10.11.8
 _Z12ddl_log_syncv@Base 10.11.8
 _Z12ending_transP3THDb@Base 10.11.8
 _Z12field_unpackP6StringP5FieldPKhjb@Base 10.11.8
 _Z12fill_pluginsP3THDP10TABLE_LISTP4Item@Base 10.11.8
 _Z12fill_sysvarsP3THDP10TABLE_LISTP4Item@Base 10.11.8
 _Z12find_ref_keyP6st_keyjPhP5FieldPjS4_@Base 10.11.8
 _Z12find_sys_varP3THDPKcmb@Base 10.11.8
 _Z12flush_tablesP3THD17flush_tables_type@Base 10.11.8
 _Z12get_variableP7st_hashP25st_mysql_const_lex_stringb@Base 10.11.8
 _Z12ha_checktypeP3THDP10handlertonb@Base 10.11.8
 _Z12ha_savepointP3THDP12st_savepoint@Base 10.11.8
 _Z12init_ftfuncsP3THDP13st_select_lexb@Base 10.11.8
 _Z12is_json_typePK4Item@Base 10.11.8
 _Z12lex_end_nopsP3LEX@Base 10.11.8
 _Z12load_charsetP3THDP11st_mem_rootP5FieldPK15charset_info_stPS7_@Base 10.11.8
 _Z12mysql_deleteP3THDP10TABLE_LISTP4ItemP10SQL_I_ListI8st_orderEyyP13select_result@Base 10.11.8
 _Z12mysql_insertP3THDP10TABLE_LISTR4ListI4ItemERS3_IS5_ES6_S6_15enum_duplicatesbP13select_result@Base 10.11.8
 _Z12mysql_selectP3THDP10TABLE_LISTR4ListI4ItemEPS4_jP8st_orderS9_S7_S9_yP13select_resultP18st_select_lex_unitP13st_select_lex@Base 10.11.8
 _Z12mysql_updateP3THDP10TABLE_LISTR4ListI4ItemES6_PS4_jP8st_orderybPySA_@Base 10.11.8
 _Z12purge_tablesv@Base 10.11.8
 _Z12push_warningP3THDN21Sql_state_errno_level18enum_warning_levelEjPKc@Base 10.11.8
 _Z12queries_dumpv@Base 10.11.8
 _Z12report_errorP5TABLEi@Base 10.11.8
 _Z12servers_freeb@Base 10.11.8
 _Z12servers_initb@Base 10.11.8
 _Z12set_positionP4JOINjP13st_join_tableP8keyuse_t@Base 10.11.8
 _Z12setup_fieldsP3THD20Bounds_checked_arrayIP4ItemER4ListIS2_E17enum_column_usagePS6_S9_b@Base 10.11.8
 _Z12setup_tablesP3THDP23Name_resolution_contextP4ListI10TABLE_LISTEPS4_RS5_bb@Base 10.11.8
 _Z12sp_cache_endv@Base 10.11.8
 _Z12store_lengthPhjj@Base 10.11.8
 _Z12sys_var_initv@Base 10.11.8
 _Z12tc_add_tableP3THDP5TABLE@Base 10.11.8
 _Z12trans_commitP3THD@Base 10.11.8
 _Z12trans_xa_endP3THD@Base 10.11.8
 _Z12unfix_fieldsR4ListI4ItemE@Base 10.11.8
 _Z12unique_tableP3THDP10TABLE_LISTS2_j@Base 10.11.8
 _Z12write_recordP3THDP5TABLEP12st_copy_infoP13select_result@Base 10.11.8
 _Z13add_to_statusP17system_status_varS0_@Base 10.11.8
 _Z13backup_unlockP3THD@Base 10.11.8
 _Z13binlog_commitP3THDbb@Base 10.11.8
 _Z13check_db_nameP19st_mysql_lex_string@Base 10.11.8
 _Z13cleanup_itemsP4Item@Base 10.11.8
 _Z13create_serverP3THDP21st_lex_server_options@Base 10.11.8
 _Z13gcalc_is_zeroPKji@Base 10.11.8
 _Z13get_ft_selectP3THDP5TABLEj@Base 10.11.8
 _Z13get_key_cachePK25st_mysql_const_lex_string@Base 10.11.8
 _Z13get_lock_dataP3THDPP5TABLEjj@Base 10.11.8
 _Z13ha_drop_tableP3THDP10handlertonPKc@Base 10.11.8
 _Z13ha_end_backupv@Base 10.11.8
 _Z13ha_flush_logsv@Base 10.11.8
 _Z13ha_kill_queryP3THD15thd_kill_levels@Base 10.11.8
 _Z13ha_known_extsv@Base 10.11.8
 _Z13handle_selectP3THDP3LEXP13select_resulty@Base 10.11.8
 _Z13insert_fieldsP3THDP23Name_resolution_contextPKcS4_P13List_iteratorI4ItemEbPjb@Base 10.11.8
 _Z13is_stat_tablePK25st_mysql_const_lex_stringPS_@Base 10.11.8
 _Z13item_cmp_type11Item_resultS_@Base 10.11.8
 _Z13key_tuple_cmpP16st_key_part_infoPhS1_j@Base 10.11.8
 _Z13merge_buffersP10Sort_paramP11st_io_cacheS2_20Bounds_checked_arrayIhEP11Merge_chunkS6_S6_i@Base 10.11.8
 _Z13my_yyoverflowPPsPP7YYSTYPEPm@Base 10.11.8
 _Z13mysql_ha_openP3THDP10TABLE_LISTP11SQL_HANDLER@Base 10.11.8
 _Z13mysql_ha_readP3THDP10TABLE_LIST18enum_ha_read_modesPKcP4ListI4ItemE16ha_rkey_functionPS7_yy@Base 10.11.8
 _Z13opt_sum_queryP3THDR4ListI10TABLE_LISTERS1_I4ItemEPS5_@Base 10.11.8
 _Z13plugin_statusPKcmi@Base 10.11.8
 _Z13plugin_unlockP3THDP13st_plugin_int@Base 10.11.8
 _Z13rr_sequentialP11READ_RECORD@Base 10.11.8
 _Z13rr_unlock_rowP13st_join_table@Base 10.11.8
 _Z13search_topicsP3THDP5TABLEP13st_find_fieldP10SQL_SELECTP4ListI6StringEPS8_SB_SB_@Base 10.11.8
 _Z13set_field_ptrPP5FieldPKhS3_@Base 10.11.8
 _Z13set_to_stringP3THDP25st_mysql_const_lex_stringyPPKc@Base 10.11.8
 _Z13setup_ftfuncsP13st_select_lex@Base 10.11.8
 _Z13setup_on_exprP3THDP10TABLE_LISTb@Base 10.11.8
 _Z13setup_windowsP3THD20Bounds_checked_arrayIP4ItemEP10TABLE_LISTR4ListIS2_ES9_RS7_I11Window_specERS7_I16Item_window_funcE@Base 10.11.8
 _Z13sp_cache_initv@Base 10.11.8
 _Z13str_to_offsetPKcjPl@Base 10.11.8
 _Z13tdc_open_viewP3THDP10TABLE_LISTj@Base 10.11.8
 _Z13thd_exit_condP3THDPK17PSI_stage_info_v1PKcS5_i@Base 10.11.8
 _Z13view_checksumP3THDP10TABLE_LIST@Base 10.11.8
 _Z13write_bin_logP3THDbPKcmb@Base 10.11.8
 _Z14append_definerP3THDP6StringPK25st_mysql_const_lex_stringS5_@Base 10.11.8
 _Z14backup_log_ddlPK15backup_log_info@Base 10.11.8
 _Z14build_trn_pathP3THDPK7sp_nameP19st_mysql_lex_string@Base 10.11.8
 _Z14calc_time_diffPK13st_mysql_timeS1_iPS_11date_mode_t@Base 10.11.8
 _Z14calc_time_diffPK13st_mysql_timeS1_iPyPm@Base 10.11.8
 _Z14check_overlapsP16st_json_engine_tS0_b@Base 10.11.8
 _Z14collect_stringP6StringjP12st_tree_info@Base 10.11.8
 _Z14compare_doublePKdS0_@Base 10.11.8
 _Z14compare_recordPK5TABLE@Base 10.11.8
 _Z14create_definerP3THDP25st_mysql_const_lex_stringS2_@Base 10.11.8
 _Z14ddl_log_revertP3THDP16st_ddl_log_state@Base 10.11.8
 _Z14end_send_groupP4JOINP13st_join_tableb@Base 10.11.8
 _Z14fill_variablesP3THDP10TABLE_LISTP4Item@Base 10.11.8
 _Z14fix_inner_refsP3THDR4ListI4ItemEP13st_select_lex20Bounds_checked_arrayIPS2_E@Base 10.11.8
 _Z14fk_option_name14enum_fk_option@Base 10.11.8
 _Z14free_key_cachePKcPv@Base 10.11.8
 _Z14free_tmp_tableP3THDP5TABLE@Base 10.11.8
 _Z14gcalc_set_zeroPji@Base 10.11.8
 _Z14get_all_tablesP3THDP10TABLE_LISTP4Item@Base 10.11.8
 _Z14get_quick_keysP5PARAMP18QUICK_RANGE_SELECTP8KEY_PARTP7SEL_ARGPhjS7_j@Base 10.11.8
 _Z14get_rpl_filterP25st_mysql_const_lex_string@Base 10.11.8
 _Z14get_system_varP3THD13enum_var_typePK25st_mysql_const_lex_stringS4_@Base 10.11.8
 _Z14ha_init_errorsv@Base 10.11.8
 _Z14ha_lock_engineP3THDPK10handlerton@Base 10.11.8
 _Z14ha_show_statusP3THDP10handlerton12ha_stat_type@Base 10.11.8
 _Z14init_sql_allocjP11st_mem_rootjjm@Base 10.11.8
 _Z14ip_to_hostnameP16sockaddr_storagePKcPS2_Pj@Base 10.11.8
 _Z14is_eits_usableP5Field@Base 10.11.8
 _Z14is_locked_viewP3THDP10TABLE_LIST@Base 10.11.8
 _Z14join_read_key2P3THDP13st_join_tableP5TABLEP12st_table_ref@Base 10.11.8
 _Z14load_collationP3THDP11st_mem_rootP5FieldPK15charset_info_stPS7_@Base 10.11.8
 _Z14log_drop_tableP3THDPK25st_mysql_const_lex_stringS3_S3_bPK34st_mysql_const_unsigned_lex_stringb@Base 10.11.8
 _Z14max_row_lengthP5TABLEPK9st_bitmapPKh@Base 10.11.8
 _Z14my_TIME_to_strPK13st_mysql_timeP6Stringj@Base 10.11.8
 _Z14my_decimal2intjPK12st_decimal_tbPx18decimal_round_mode@Base 10.11.8
 _Z14mysql_alter_dbP3THDPK25st_mysql_const_lex_stringPK23Schema_specification_st@Base 10.11.8
 _Z14mysql_ha_closeP3THDP10TABLE_LIST@Base 10.11.8
 _Z14mysql_ha_flushP3THD@Base 10.11.8
 _Z14mysql_rm_tableP3THDP10TABLE_LISTbbbb@Base 10.11.8
 _Z14net_store_dataPhPKhm@Base 10.11.8
 _Z14net_store_dataPhi@Base 10.11.8
 _Z14net_store_dataPhx@Base 10.11.8
 _Z14next_thread_idv@Base 10.11.8
 _Z14normalize_condP3THDP4Item@Base 10.11.8
 _Z14open_log_tableP3THDP10TABLE_LISTP18Open_tables_backup@Base 10.11.8
 _Z14open_table_defP3THDP11TABLE_SHAREj@Base 10.11.8
 _Z14open_tmp_tableP5TABLE@Base 10.11.8
 _Z14quick_rm_tableP3THDP10handlertonPK25st_mysql_const_lex_stringS5_jPKc@Base 10.11.8
 _Z14read_to_bufferP11st_io_cacheP11Merge_chunkP10Sort_paramb@Base 10.11.8
 _Z14refresh_statusP3THD@Base 10.11.8
 _Z14scheduler_initv@Base 10.11.8
 _Z14search_keywordP3THDP5TABLEP13st_find_fieldP10SQL_SELECTPi@Base 10.11.8
 _Z14servers_reloadP3THD@Base 10.11.8
 _Z14set_part_stateP10Alter_infoP14partition_info15partition_state@Base 10.11.8
 _Z14slow_log_printP3THDPKcjy@Base 10.11.8
 _Z14sp_cache_clearPP8sp_cache@Base 10.11.8
 _Z14str2my_decimaljPKcmPK15charset_info_stP10my_decimalPS0_@Base 10.11.8
 _Z14tdc_lock_shareP3THDPKcS2_@Base 10.11.8
 _Z14test_if_numberP14st_number_infoPKcj@Base 10.11.8
 _Z14thd_attach_thdP3THD@Base 10.11.8
 _Z14thd_detach_thdPv@Base 10.11.8
 _Z14thd_enter_condP3THDP13st_mysql_condP14st_mysql_mutexPK17PSI_stage_info_v1PS5_PKcSA_i@Base 10.11.8
 _Z14trans_rollbackP3THD@Base 10.11.8
 _Z14trans_xa_startP3THD@Base 10.11.8
 _Z14wsrep_xid_uuidPK5xid_t@Base 10.11.8
 _Z14xid_cache_freev@Base 10.11.8
 _Z14xid_cache_initv@Base 10.11.8
 _Z15add_status_varsP17st_mysql_show_var@Base 10.11.8
 _Z15and_expressionsP3THDP4ItemS2_PS2_@Base 10.11.8
 _Z15append_intervalP6String13interval_typeRK8INTERVAL@Base 10.11.8
 _Z15build_frm_imageP3THDRK25st_mysql_const_lex_stringP14HA_CREATE_INFOR4ListI12Create_fieldEjP6st_keyP7handler@Base 10.11.8
 _Z15check_has_superP7sys_varP3THDP7set_var@Base 10.11.8
 _Z15check_host_nameP25st_mysql_const_lex_string@Base 10.11.8
 _Z15check_integrityb@Base 10.11.8
 _Z15check_ulonglongPKcj@Base 10.11.8
 _Z15cleanup_errmsgsv@Base 10.11.8
 _Z15cleanup_ftfuncsP13st_select_lex@Base 10.11.8
 _Z15close_log_tableP3THDP18Open_tables_backup@Base 10.11.8
 _Z15collect_decimalPhjP12st_tree_info@Base 10.11.8
 _Z15comp_eq_creatorb@Base 10.11.8
 _Z15comp_ge_creatorb@Base 10.11.8
 _Z15comp_gt_creatorb@Base 10.11.8
 _Z15comp_le_creatorb@Base 10.11.8
 _Z15comp_lt_creatorb@Base 10.11.8
 _Z15comp_ne_creatorb@Base 10.11.8
 _Z15compare_double2PvPKdS1_@Base 10.11.8
 _Z15date2my_decimalPK13st_mysql_timeP10my_decimal@Base 10.11.8
 _Z15ddl_log_drop_dbP16st_ddl_log_statePK25st_mysql_const_lex_stringS3_@Base 10.11.8
 _Z15ddl_log_releasev@Base 10.11.8
 _Z15delete_precheckP3THDP10TABLE_LIST@Base 10.11.8
 _Z15drop_open_tableP3THDP5TABLEPK25st_mysql_const_lex_stringS5_@Base 10.11.8
 _Z15end_read_recordP11READ_RECORD@Base 10.11.8
 _Z15end_write_groupP4JOINP13st_join_tableb@Base 10.11.8
 _Z15error_log_print8loglevelPKcP13__va_list_tag@Base 10.11.8
 _Z15expand_sql_modey@Base 10.11.8
 _Z15find_item_equalP10COND_EQUALP5FieldPb@Base 10.11.8
 _Z15fix_escape_itemP3THDP4ItemP6StringbPK15charset_info_stPi@Base 10.11.8
 _Z15flush_error_logv@Base 10.11.8
 _Z15free_rpl_filterPKcPv@Base 10.11.8
 _Z15free_user_statsP13st_user_stats@Base 10.11.8
 _Z15gcalc_add_coordPjiPKjS1_@Base 10.11.8
 _Z15gcalc_cmp_coordPKjS0_i@Base 10.11.8
 _Z15gcalc_mul_coordPjiPKjiS1_i@Base 10.11.8
 _Z15gcalc_sub_coordPjiPKjS1_@Base 10.11.8
 _Z15get_ev_num_infoP28st_extreme_value_number_infoP14st_number_infoPKc@Base 10.11.8
 _Z15get_new_handlerP11TABLE_SHAREP11st_mem_rootP10handlerton@Base 10.11.8
 _Z15get_purge_tableP3THD@Base 10.11.8
 _Z15get_thd_memrootP3THD@Base 10.11.8
 _Z15ha_commit_transP3THDb@Base 10.11.8
 _Z15ha_count_rw_2pcP3THDb@Base 10.11.8
 _Z15ha_count_rw_allP3THDPP11Ha_trx_info@Base 10.11.8
 _Z15ha_create_tableP3THDPKcS2_S2_P14HA_CREATE_INFOP34st_mysql_const_unsigned_lex_stringb@Base 10.11.8
 _Z15ha_delete_tableP3THDP10handlertonPKcPK25st_mysql_const_lex_stringS7_b@Base 10.11.8
 _Z15ha_pre_shutdownv@Base 10.11.8
 _Z15ha_table_existsP3THDPK25st_mysql_const_lex_stringS3_P34st_mysql_const_unsigned_lex_stringPS1_PP10handlertonPb@Base 10.11.8
 _Z15inc_host_errorsPKcP11Host_errors@Base 10.11.8
 _Z15init_errmessagev@Base 10.11.8
 _Z15init_user_statsP13st_user_statsPKcmS2_jjjlddyyyyyyyyyyyyyyyyyy@Base 10.11.8
 _Z15insert_precheckP3THDP10TABLE_LIST@Base 10.11.8
 _Z15is_simple_orderP8st_order@Base 10.11.8
 _Z15is_update_query16enum_sql_command@Base 10.11.8
 _Z15key_cmp_if_sameP5TABLEPKhjj@Base 10.11.8
 _Z15kill_one_threadP3THDy12killed_state11killed_type@Base 10.11.8
 _Z15merge_many_buffP10Sort_param20Bounds_checked_arrayIhEP11Merge_chunkPjP11st_io_cache@Base 10.11.8
 _Z15my_decimal_trimPyPt@Base 10.11.8
 _Z15my_double_rounddxbb@Base 10.11.8
 _Z15my_time_comparePK13st_mysql_timeS1_@Base 10.11.8
 _Z15mysql_change_dbP3THDPK25st_mysql_const_lex_stringb@Base 10.11.8
 _Z15mysql_create_dbP3THDPK25st_mysql_const_lex_string14DDL_options_stPK23Schema_specification_st@Base 10.11.8
 _Z15mysql_drop_viewP3THDP10TABLE_LIST14enum_drop_mode@Base 10.11.8
 _Z15mysql_make_viewP3THDP11TABLE_SHAREP10TABLE_LISTb@Base 10.11.8
 _Z15mysql_write_frmP18st_lock_param_typej@Base 10.11.8
 _Z15new_Cached_itemP3THDP4Itemb@Base 10.11.8
 _Z15next_linear_tabP4JOINP13st_join_table20enum_with_bush_roots@Base 10.11.8
 _Z15optimize_keyuseP4JOINP16st_dynamic_array@Base 10.11.8
 _Z15parse_vcol_defsP3THDP11st_mem_rootP5TABLEPb14vcol_init_mode@Base 10.11.8
 _Z15part_type_errorP3THDP14partition_infoPKcS2_@Base 10.11.8
 _Z15pause_executionP3THDd@Base 10.11.8
 _Z15plugin_is_readyPK25st_mysql_const_lex_stringi@Base 10.11.8
 _Z15plugin_shutdownv@Base 10.11.8
 _Z15print_list_itemP6StringP4ListI4ItemE15enum_query_type@Base 10.11.8
 _Z15push_index_condP13st_join_tablej@Base 10.11.8
 _Z15rb_delete_fixupP7SEL_ARGS0_S0_@Base 10.11.8
 _Z15rename_file_extPKcS0_S0_@Base 10.11.8
 _Z15reopen_fstreamsPKcP8_IO_FILES2_@Base 10.11.8
 _Z15reset_lock_dataP13st_mysql_lockb@Base 10.11.8
 _Z15safe_index_readP13st_join_table@Base 10.11.8
 _Z15sequence_insertP3THDP3LEXP10TABLE_LIST@Base 10.11.8
 _Z15set_current_thdP3THD@Base 10.11.8
 _Z15setup_procedureP3THDP8st_orderP13select_resultR4ListI4ItemEPi@Base 10.11.8
 _Z15sp_cache_insertPP8sp_cacheP7sp_head@Base 10.11.8
 _Z15sp_cache_lookupPP8sp_cachePK23Database_qualified_name@Base 10.11.8
 _Z15sp_returns_typeP3THDR6StringPK7sp_head@Base 10.11.8
 _Z15sql_print_errorPKcz@Base 10.11.8
 _Z15str_set_decimaljPK10my_decimaljjcP6StringPK15charset_info_st@Base 10.11.8
 _Z15thd_clear_errorP3THD@Base 10.11.8
 _Z15trace_conditionP3THDPKcS2_P4ItemS2_@Base 10.11.8
 _Z15trans_savepointP3THD25st_mysql_const_lex_string@Base 10.11.8
 _Z15trans_xa_commitP3THD@Base 10.11.8
 _Z15trans_xa_detachP3THD@Base 10.11.8
 _Z15truncate_doublePdjtbd@Base 10.11.8
 _Z15update_precheckP3THDP10TABLE_LIST@Base 10.11.8
 _Z15update_sj_stateP4JOINPK13st_join_tablejy@Base 10.11.8
 _Z15use_trans_cachePK3THDb@Base 10.11.8
 _Z15uuid_short_initv@Base 10.11.8
 _Z16acl_authenticateP3THDj@Base 10.11.8
 _Z16add_item_to_listP3THDP4Item@Base 10.11.8
 _Z16add_join_naturalP10TABLE_LISTS0_P4ListI6StringEP13st_select_lex@Base 10.11.8
 _Z16add_proc_to_listP3THDP4Item@Base 10.11.8
 _Z16append_unescapedP6StringPKcm@Base 10.11.8
 _Z16best_access_pathP4JOINP13st_join_tableyPK8POSITIONjbdPS3_S6_@Base 10.11.8
 _Z16check_expressionP19Virtual_column_infoPK25st_mysql_const_lex_string19enum_vcol_info_typeP10Alter_info@Base 10.11.8
 _Z16check_table_namePKcmb@Base 10.11.8
 _Z16check_trn_existsPK25st_mysql_const_lex_string@Base 10.11.8
 _Z16check_valid_pathPKcm@Base 10.11.8
 _Z16close_connectionP3THDj@Base 10.11.8
 _Z16collect_longlongPxjP12st_tree_info@Base 10.11.8
 _Z16compare_decimal2PiPKcS1_@Base 10.11.8
 _Z16compare_longlongPKxS0_@Base 10.11.8
 _Z16copy_engine_listPP13st_plugin_int@Base 10.11.8
 _Z16create_histogramP11st_mem_root19enum_histogram_type@Base 10.11.8
 _Z16create_key_cachePKcm@Base 10.11.8
 _Z16create_tmp_fieldP5TABLEP4ItemPPS2_PP5FieldS7_bbbb@Base 10.11.8
 _Z16create_tmp_tableP3THDP15TMP_TABLE_PARAMR4ListI4ItemEP8st_orderbbyyPK25st_mysql_const_lex_stringbb@Base 10.11.8
 _Z16ddl_log_add_flagP16st_ddl_log_statet@Base 10.11.8
 _Z16ddl_log_completeP16st_ddl_log_state@Base 10.11.8
 _Z16digest_add_tokenP16sql_digest_statejP7YYSTYPE@Base 10.11.8
 _Z16dispatch_command19enum_server_commandP3THDPcjb@Base 10.11.8
 _Z16eliminate_tablesP4JOIN@Base 10.11.8
 _Z16explain_filenameP3THDPKcPcj26enum_explain_filename_mode@Base 10.11.8
 _Z16fill_all_pluginsP3THDP10TABLE_LISTP4Item@Base 10.11.8
 _Z16fill_open_tablesP3THDP10TABLE_LISTP4Item@Base 10.11.8
 _Z16fill_schema_procP3THDP10TABLE_LISTP4Item@Base 10.11.8
 _Z16first_linear_tabP4JOIN20enum_with_bush_roots22enum_with_const_tables@Base 10.11.8
 _Z16free_engine_listPP13st_plugin_int@Base 10.11.8
 _Z16free_status_varsv@Base 10.11.8
 _Z16free_table_shareP11TABLE_SHARE@Base 10.11.8
 _Z16gcalc_set_doublePjdd@Base 10.11.8
 _Z16get_checksum_algPKhm@Base 10.11.8
 _Z16get_current_userP3THDP8LEX_USERb@Base 10.11.8
 _Z16get_frame_cursorP3THDP11Window_specb@Base 10.11.8
 _Z16get_ha_partitionP14partition_info@Base 10.11.8
 _Z16get_lookup_valueP3THDP9Item_funcP10TABLE_LISTP22st_lookup_field_values@Base 10.11.8
 _Z16get_one_variableP3THDPK17st_mysql_show_var13enum_var_type20enum_mysql_show_typeP17system_status_varPPK15charset_info_stPcPm@Base 10.11.8
 _Z16get_part_for_bufPKhS0_P14partition_infoPj@Base 10.11.8
 _Z16get_quick_selectP5PARAMjP7SEL_ARGjjP11st_mem_root@Base 10.11.8
 _Z16get_schema_table18enum_schema_tables@Base 10.11.8
 _Z16ha_drop_databasePKc@Base 10.11.8
 _Z16hash_join_fanoutP4JOINP13st_join_tableydP8keyuse_tPb@Base 10.11.8
 _Z16init_read_recordP11READ_RECORDP3THDP5TABLEP10SQL_SELECTP9SORT_INFOibb@Base 10.11.8
 _Z16init_sp_psi_keysv@Base 10.11.8
 _Z16init_status_varsv@Base 10.11.8
 _Z16item_create_initv@Base 10.11.8
 _Z16list_open_tablesP3THDPKcS2_@Base 10.11.8
 _Z16lock_db_routinesP3THDPKc@Base 10.11.8
 _Z16lock_object_nameP3THDN7MDL_key18enum_mdl_namespaceEPKcS4_@Base 10.11.8
 _Z16lock_schema_nameP3THDPKc@Base 10.11.8
 _Z16lock_table_namesP3THDRK14DDL_options_stP10TABLE_LISTS5_mj@Base 10.11.8
 _Z16make_leaves_listP3THDR4ListI10TABLE_LISTEPS2_bS5_@Base 10.11.8
 _Z16mariadb_fix_viewP3THDP10TABLE_LISTbb@Base 10.11.8
 _Z16my_dbopt_cleanupv@Base 10.11.8
 _Z16mysql_ha_cleanupP3THD@Base 10.11.8
 _Z16mysql_lock_mergeP13st_mysql_lockS0_P3THD@Base 10.11.8
 _Z16mysql_new_selectP3LEXbP13st_select_lex@Base 10.11.8
 _Z16mysql_upgrade_dbP3THDPK25st_mysql_const_lex_string@Base 10.11.8
 _Z16mysql_xa_recoverP3THD@Base 10.11.8
 _Z16open_purge_tableP3THDPKcmS2_m@Base 10.11.8
 _Z16open_table_errorP11TABLE_SHARE14open_frm_errori@Base 10.11.8
 _Z16plugin_is_forcedP13st_plugin_int@Base 10.11.8
 _Z16prune_partitionsP3THDP5TABLEP4Item@Base 10.11.8
 _Z16query_error_codeP3THDb@Base 10.11.8
 _Z16reuse_freed_buffP8st_queueP11Merge_chunkj@Base 10.11.8
 _Z16rm_dir_w_symlinkPKcc@Base 10.11.8
 _Z16rm_trigname_filePcPK25st_mysql_const_lex_stringS2_m@Base 10.11.8
 _Z16rr_from_pointersP11READ_RECORD@Base 10.11.8
 _Z16run_backup_stageP3THD13backup_stages@Base 10.11.8
 _Z16set_current_dateP3THDP13st_mysql_time@Base 10.11.8
 _Z16sp_cache_versionv@Base 10.11.8
 _Z16sub_select_cacheP4JOINP13st_join_tableb@Base 10.11.8
 _Z16sys_var_elementsv@Base 10.11.8
 _Z16tc_acquire_tableP3THDP11TDC_element@Base 10.11.8
 _Z16tc_release_tableP5TABLE@Base 10.11.8
 _Z16tdc_remove_tableP3THDPKcS2_@Base 10.11.8
 _Z16tdc_unlock_shareP11TDC_element@Base 10.11.8
 _Z16thd_get_query_idPK3THD@Base 10.11.8
 _Z16time_to_datetimeP13st_mysql_time@Base 10.11.8
 _Z16time_to_datetimeP3THDPK13st_mysql_timePS1_@Base 10.11.8
 _Z16trans_xa_prepareP3THD@Base 10.11.8
 _Z16xid_cache_deleteP3THDP9XID_STATE@Base 10.11.8
 _Z16xid_cache_insertP3THDP9XID_STATEP5xid_t@Base 10.11.8
 _Z16xid_cache_insertP5xid_t@Base 10.11.8
 _Z17TIME_to_timestampP3THDPK13st_mysql_timePj@Base 10.11.8
 _Z17adjust_quick_costdy@Base 10.11.8
 _Z17alloc_table_sharePKcS0_S0_j@Base 10.11.8
 _Z17append_identifierP3THDP6StringPKcm@Base 10.11.8
 _Z17append_row_to_strR6StringPKhP5TABLE@Base 10.11.8
 _Z17binlog_drop_tableP3THDP5TABLE@Base 10.11.8
 _Z17calc_group_bufferP15TMP_TABLE_PARAMP8st_order@Base 10.11.8
 _Z17calculate_key_lenP5TABLEjPKhm@Base 10.11.8
 _Z17check_column_namePKc@Base 10.11.8
 _Z17check_key_in_viewP3THDP10TABLE_LIST@Base 10.11.8
 _Z17check_period_namePKc@Base 10.11.8
 _Z17check_proc_recordPK15charset_info_stPK22st_lookup_field_valuesRK25st_mysql_const_lex_stringS7_@Base 10.11.8
 _Z17check_selectivityP3THDmP5TABLEP4ListI17st_cond_statisticE@Base 10.11.8
 _Z17check_signed_flagP14partition_info@Base 10.11.8
 _Z17cmp_rqp_locationsPKP26Rewritable_query_parameterS2_@Base 10.11.8
 _Z17collect_ulonglongPyjP12st_tree_info@Base 10.11.8
 _Z17compare_longlong2PvPKxS1_@Base 10.11.8
 _Z17compare_ulonglongPKyS0_@Base 10.11.8
 _Z17count_cond_for_njP13st_select_lexP10TABLE_LIST@Base 10.11.8
 _Z17count_field_typesP13st_select_lexP15TMP_TABLE_PARAMR4ListI4ItemEb@Base 10.11.8
 _Z17create_rpl_filterPKcm@Base 10.11.8
 _Z17create_sort_indexP3THDP4JOINP13st_join_tableP8Filesort@Base 10.11.8
 _Z17create_view_fieldP3THDP10TABLE_LISTPP4ItemP25st_mysql_const_lex_string@Base 10.11.8
 _Z17date_add_intervalP3THDP13st_mysql_time13interval_typeRK8INTERVALb@Base 10.11.8
 _Z17dd_recreate_tableP3THDPKcS2_@Base 10.11.8
 _Z17ddl_log_add_entryP16st_ddl_log_stateP23st_ddl_log_memory_entry@Base 10.11.8
 _Z17ddl_log_drop_viewP16st_ddl_log_statePK25st_mysql_const_lex_stringS3_S3_@Base 10.11.8
 _Z17extend_table_listP3THDP10TABLE_LISTP19Prelocking_strategyb@Base 10.11.8
 _Z17fill_i_s_keywordsP3THDP10TABLE_LISTP4Item@Base 10.11.8
 _Z17find_item_in_listP4ItemR4ListIS_EPj27find_item_error_report_typeP20enum_resolution_typej@Base 10.11.8
 _Z17find_locked_tableP5TABLEPKcS2_@Base 10.11.8
 _Z17find_schema_tableP3THDPK25st_mysql_const_lex_stringPb@Base 10.11.8
 _Z17find_shortest_keyP5TABLEPK6BitmapILj64EE@Base 10.11.8
 _Z17find_thread_by_idxb@Base 10.11.8
 _Z17flagset_to_stringP3THDP25st_mysql_const_lex_stringyPPKc@Base 10.11.8
 _Z17general_log_printP3THD19enum_server_commandPKcz@Base 10.11.8
 _Z17general_log_writeP3THD19enum_server_commandPKcm@Base 10.11.8
 _Z17get_partition_setPK5TABLEPhjPK12st_key_rangeP13part_id_range@Base 10.11.8
 _Z17get_table_def_keyPK10TABLE_LISTPPKc@Base 10.11.8
 _Z17ha_discover_tableP3THDP11TABLE_SHARE@Base 10.11.8
 _Z17ha_rollback_transP3THDb@Base 10.11.8
 _Z17init_dups_weedoutP4JOINjij@Base 10.11.8
 _Z17init_mdl_requestsP10TABLE_LIST@Base 10.11.8
 _Z17is_sqlstate_validPK25st_mysql_const_lex_string@Base 10.11.8
 _Z17load_des_key_filePKc@Base 10.11.8
 _Z17localtime_to_TIMEP13st_mysql_timeP2tm@Base 10.11.8
 _Z17mdl_hash_functionPK15charset_info_stPKhm@Base 10.11.8
 _Z17my_locale_by_namePKc@Base 10.11.8
 _Z17my_xpath_functionPKcS0_@Base 10.11.8
 _Z17mysql_alter_tableP3THDPK25st_mysql_const_lex_stringS3_P22Table_specification_stP10TABLE_LISTP13Recreate_infoP10Alter_infojP8st_orderbb@Base 10.11.8
 _Z17mysql_create_viewP3THDP10TABLE_LIST21enum_view_create_mode@Base 10.11.8
 _Z17mysql_lock_removeP3THDP13st_mysql_lockP5TABLE@Base 10.11.8
 _Z17mysql_lock_tablesP3THDP13st_mysql_lockj@Base 10.11.8
 _Z17mysql_lock_tablesP3THDPP5TABLEjj@Base 10.11.8
 _Z17mysql_open_cursorP3THDP13select_resultPP18Server_side_cursor@Base 10.11.8
 _Z17mysql_rename_viewP3THDPK25st_mysql_const_lex_stringS3_S3_S3_@Base 10.11.8
 _Z17mysql_ull_cleanupP3THD@Base 10.11.8
 _Z17mysqld_stmt_closeP3THDPc@Base 10.11.8
 _Z17mysqld_stmt_fetchP3THDPcj@Base 10.11.8
 _Z17mysqld_stmt_resetP3THDPc@Base 10.11.8
 _Z17negate_expressionP3THDP4Item@Base 10.11.8
 _Z17normalize_db_namePKcPcm@Base 10.11.8
 _Z17parse_option_listP3THDP10handlertonPvPP19engine_option_valueP25st_ha_create_table_optionbP11st_mem_root@Base 10.11.8
 _Z17plugin_dl_foreachP3THDPK25st_mysql_const_lex_stringPFcS0_P13st_plugin_intPvES6_@Base 10.11.8
 _Z17plugin_mutex_initv@Base 10.11.8
 _Z17prev_record_readsPK8POSITIONjy@Base 10.11.8
 _Z17proc_analyse_initP3THDP8st_orderP13select_resultR4ListI4ItemE@Base 10.11.8
 _Z17reset_status_varsv@Base 10.11.8
 _Z17ror_intersect_cpyP18ROR_INTERSECT_INFOPKS_@Base 10.11.8
 _Z17schema_tables_addP3THDP13Dynamic_arrayIP25st_mysql_const_lex_stringEPKc@Base 10.11.8
 _Z17search_categoriesP3THDP5TABLEP13st_find_fieldP10SQL_SELECTP4ListI6StringEPs@Base 10.11.8
 _Z17server_uuid_valuev@Base 10.11.8
 _Z17set_field_to_nullP5Field@Base 10.11.8
 _Z17set_key_field_ptrP6st_keyPKhS2_@Base 10.11.8
 _Z17setup_copy_fieldsP3THDP15TMP_TABLE_PARAM20Bounds_checked_arrayIP4ItemER4ListIS4_ES9_jS9_@Base 10.11.8
 _Z17show_create_tableP3THDP10TABLE_LISTP6StringP22Table_specification_st17enum_with_db_name@Base 10.11.8
 _Z17sql_parse_preparePK25st_mysql_const_lex_stringP11st_mem_rootb@Base 10.11.8
 _Z17sql_print_warningPKcz@Base 10.11.8
 _Z17sql_set_variablesP3THDP4ListI12set_var_baseEb@Base 10.11.8
 _Z17store_schema_procP3THDP5TABLES2_P22st_lookup_field_valuesbPKc@Base 10.11.8
 _Z17tdc_acquire_shareP3THDP10TABLE_LISTjPP5TABLE@Base 10.11.8
 _Z17tdc_release_shareP11TABLE_SHARE@Base 10.11.8
 _Z17thd_net_is_killedP3THD@Base 10.11.8
 _Z17trace_plan_prefixP4JOINjy@Base 10.11.8
 _Z17trans_commit_stmtP3THD@Base 10.11.8
 _Z17trans_register_haP3THDbP10handlertony@Base 10.11.8
 _Z17trans_xa_rollbackP3THD@Base 10.11.8
 _Z17vprint_msg_to_log8loglevelPKcP13__va_list_tag@Base 10.11.8
 _Z17wild_case_comparePK15charset_info_stPKcS3_@Base 10.11.8
 _Z17wsrep_prepare_keyPKhmS0_mP9wsrep_bufPm@Base 10.11.8
 _Z18add_diff_to_statusP17system_status_varS0_S0_@Base 10.11.8
 _Z18add_plugin_optionsP16st_dynamic_arrayP11st_mem_root@Base 10.11.8
 _Z18append_file_to_dirP3THDPPKcPK25st_mysql_const_lex_string@Base 10.11.8
 _Z18binlog_reset_cacheP3THD@Base 10.11.8
 _Z18calc_time_from_secP13st_mysql_timemm@Base 10.11.8
 _Z18check_binlog_magicP11st_io_cachePPKc@Base 10.11.8
 _Z18check_ident_lengthPK25st_mysql_const_lex_string@Base 10.11.8
 _Z18check_if_log_tablePK10TABLE_LISTbPKc@Base 10.11.8
 _Z18check_routine_namePK25st_mysql_const_lex_string@Base 10.11.8
 _Z18check_unique_tableP3THDP10TABLE_LIST@Base 10.11.8
 _Z18close_mysql_tablesP3THD@Base 10.11.8
 _Z18close_thread_tableP3THDPP5TABLE@Base 10.11.8
 _Z18compare_glle_gtidsPKvS0_@Base 10.11.8
 _Z18compare_ulonglong2PvPKyS1_@Base 10.11.8
 _Z18compute_digest_md5PK18sql_digest_storagePh@Base 10.11.8
 _Z18cp_buffer_from_refP3THDP5TABLEP12st_table_ref@Base 10.11.8
 _Z18ddl_log_delete_frmP16st_ddl_log_statePKc@Base 10.11.8
 _Z18ddl_log_drop_tableP16st_ddl_log_stateP10handlertonPK25st_mysql_const_lex_stringS5_S5_@Base 10.11.8
 _Z18ddl_log_initializev@Base 10.11.8
 _Z18ddl_log_update_xidP16st_ddl_log_statey@Base 10.11.8
 _Z18end_sj_materializeP4JOINP13st_join_tableb@Base 10.11.8
 _Z18enumerate_sys_varsP3THDb13enum_var_type@Base 10.11.8
 _Z18error_if_full_joinP4JOIN@Base 10.11.8
 _Z18find_fk_open_tableP3THDPKcmS2_m@Base 10.11.8
 _Z18find_plugin_sysvarP13st_plugin_intP16st_mysql_sys_var@Base 10.11.8
 _Z18find_table_in_listP10TABLE_LISTMS_S0_PK25st_mysql_const_lex_stringS4_@Base 10.11.8
 _Z18fix_fields_for_tvcP3THDR18List_iterator_fastI4ListI4ItemEE@Base 10.11.8
 _Z18fix_partition_funcP3THDP5TABLEb@Base 10.11.8
 _Z18free_max_user_connv@Base 10.11.8
 _Z18get_interval_valueP3THDP4Item13interval_typeP8INTERVAL@Base 10.11.8
 _Z18get_server_by_nameP11st_mem_rootPKcP19st_federated_server@Base 10.11.8
 _Z18get_table_categoryPK25st_mysql_const_lex_stringS1_@Base 10.11.8
 _Z18get_wsrep_recoveryv@Base 10.11.8
 _Z18ha_resolve_by_nameP3THDPK25st_mysql_const_lex_stringb@Base 10.11.8
 _Z18inc_thread_createdv@Base 10.11.8
 _Z18init_max_user_connv@Base 10.11.8
 _Z18insert_view_fieldsP3THDP4ListI4ItemEP10TABLE_LIST@Base 10.11.8
 _Z18is_native_functionP3THDPK25st_mysql_const_lex_string@Base 10.11.8
 _Z18lex_unlock_pluginsP3LEX@Base 10.11.8
 _Z18log_slow_statementP3THD@Base 10.11.8
 _Z18make_schema_selectP3THDP13st_select_lexP15st_schema_table@Base 10.11.8
 _Z18my_decimal2secondsPK10my_decimalPyPmS3_@Base 10.11.8
 _Z18mysql_ha_rm_tablesP3THDP10TABLE_LIST@Base 10.11.8
 _Z18mysql_multi_updateP3THDP10TABLE_LISTP4ListI4ItemES6_PS4_y15enum_duplicatesbP18st_select_lex_unitP13st_select_lexPP12multi_update@Base 10.11.8
 _Z18mysql_preload_keysP3THDP10TABLE_LIST@Base 10.11.8
 _Z18mysql_print_statusv@Base 10.11.8
 _Z18mysql_rename_tableP10handlertonPK25st_mysql_const_lex_stringS3_S3_S3_P34st_mysql_const_unsigned_lex_stringj@Base 10.11.8
 _Z18mysql_rm_arc_filesP3THDP9st_my_dirPKc@Base 10.11.8
 _Z18mysql_schema_tableP3THDP3LEXP10TABLE_LIST@Base 10.11.8
 _Z18mysqld_list_fieldsP3THDP10TABLE_LISTPKc@Base 10.11.8
 _Z18mysqld_show_createP3THDP10TABLE_LIST@Base 10.11.8
 _Z18next_top_level_tabP4JOINP13st_join_table@Base 10.11.8
 _Z18plugin_thdvar_initP3THD@Base 10.11.8
 _Z18plugin_unlock_listP3THDPP13st_plugin_intm@Base 10.11.8
 _Z18prepare_frm_headerP3THDjPhP14HA_CREATE_INFOjP6st_key@Base 10.11.8
 _Z18print_keydup_errorP5TABLEP6st_keyPKcm@Base 10.11.8
 _Z18print_keydup_errorP5TABLEP6st_keym@Base 10.11.8
 _Z18process_key_cachesPFiPKcP12st_key_cachePvES3_@Base 10.11.8
 _Z18query_cache_insertPvPKcmj@Base 10.11.8
 _Z18remove_status_varsP17st_mysql_show_var@Base 10.11.8
 _Z18resolve_const_itemP3THDPP4ItemS2_@Base 10.11.8
 _Z18safe_vio_type_nameP6st_vio@Base 10.11.8
 _Z18seconds2my_decimalbymP10my_decimal@Base 10.11.8
 _Z18set_server_versionPcm@Base 10.11.8
 _Z18setup_keyinfo_hashP6st_key@Base 10.11.8
 _Z18setup_log_handlingv@Base 10.11.8
 _Z18simple_str_key_cmpPvPhS0_@Base 10.11.8
 _Z18sp_process_definerP3THD@Base 10.11.8
 _Z18tdc_start_shutdownv@Base 10.11.8
 _Z18temp_pool_set_nextv@Base 10.11.8
 _Z18view_store_optionsP3THDP10TABLE_LISTP6String@Base 10.11.8
 _Z18wrap_tvc_with_tailP3THDP13st_select_lex@Base 10.11.8
 _Z19add_symbol_to_tablePKcP5TABLE@Base 10.11.8
 _Z19addr_matches_subnetPK8sockaddrPK6subnet@Base 10.11.8
 _Z19append_query_stringPK15charset_info_stP6StringPKcmb@Base 10.11.8
 _Z19binlog_buf_compressPKhPhjPj@Base 10.11.8
 _Z19binlog_create_tableP3THDP5TABLEb@Base 10.11.8
 _Z19bulk_parameters_setP3THD@Base 10.11.8
 _Z19check_global_accessP3THD11privilege_tb@Base 10.11.8
 _Z19check_stack_overrunP3THDlPh@Base 10.11.8
 _Z19clear_sj_tmp_tablesP4JOIN@Base 10.11.8
 _Z19close_cached_tablesP3THDP10TABLE_LISTbm@Base 10.11.8
 _Z19close_thread_tablesP3THD@Base 10.11.8
 _Z19compute_digest_textPK18sql_digest_storageP6String@Base 10.11.8
 _Z19compute_window_funcP3THDR4ListI16Item_window_funcERS1_I14Cursor_managerEP5TABLEP9SORT_INFO@Base 10.11.8
 _Z19copy_if_not_allocedP6StringS0_j@Base 10.11.8
 _Z19cost_for_index_readPK3THDPK5TABLEjyy@Base 10.11.8
 _Z19create_schema_tableP3THDP10TABLE_LIST@Base 10.11.8
 _Z19ddl_log_alter_tableP16st_ddl_log_stateP10handlertonPK25st_mysql_const_lex_stringS5_S2_S2_S5_S5_S5_S5_PK34st_mysql_const_unsigned_lex_stringyb@Base 10.11.8
 _Z19ddl_log_create_viewP16st_ddl_log_statePK25st_mysql_const_lex_string30enum_ddl_log_create_view_phase@Base 10.11.8
 _Z19ddl_log_rename_viewP16st_ddl_log_statePK25st_mysql_const_lex_stringS3_S3_S3_@Base 10.11.8
 _Z19ddl_log_store_queryP3THDP16st_ddl_log_statePKcm@Base 10.11.8
 _Z19ddl_log_write_entryP16st_ddl_log_entryPP23st_ddl_log_memory_entry@Base 10.11.8
 _Z19digest_reduce_tokenP16sql_digest_statejj@Base 10.11.8
 _Z19event_checksum_testPhm24enum_binlog_checksum_alg@Base 10.11.8
 _Z19filesort_use_addonsP5TABLEjPjS1_S1_S1_@Base 10.11.8
 _Z19fill_schema_enginesP3THDP10TABLE_LISTP4Item@Base 10.11.8
 _Z19find_field_in_tableP3THDP5TABLEPKcmbPt@Base 10.11.8
 _Z19find_select_handlerP3THDP13st_select_lex@Base 10.11.8
 _Z19first_top_level_tabP4JOIN22enum_with_const_tables@Base 10.11.8
 _Z19fix_delay_key_writeP7sys_varP3THD13enum_var_type@Base 10.11.8
 _Z19fix_rownum_pointersP3THDP13st_select_lexPy@Base 10.11.8
 _Z19free_error_messagesv@Base 10.11.8
 _Z19get_date_from_daynrlPjS_S_@Base 10.11.8
 _Z19get_default_definerP3THDP8LEX_USERb@Base 10.11.8
 _Z19get_gtid_list_eventP11st_io_cachePP19Gtid_list_log_event@Base 10.11.8
 _Z19get_index_for_orderP8st_orderP5TABLEP10SQL_SELECTyPyPbS6_@Base 10.11.8
 _Z19get_max_connectionsv@Base 10.11.8
 _Z19get_sweep_read_costP5TABLEybP13Cost_estimate@Base 10.11.8
 _Z19get_sweep_read_costPK5PARAMy@Base 10.11.8
 _Z19ha_change_key_cacheP12st_key_cacheS0_@Base 10.11.8
 _Z19ha_checkpoint_stateb@Base 10.11.8
 _Z19ha_close_connectionP3THD@Base 10.11.8
 _Z19ha_commit_one_phaseP3THDb@Base 10.11.8
 _Z19ha_recover_completeP7st_hashPSt4pairIjyE@Base 10.11.8
 _Z19ha_resize_key_cacheP12st_key_cache@Base 10.11.8
 _Z19hostname_cache_freev@Base 10.11.8
 _Z19hostname_cache_initv@Base 10.11.8
 _Z19hostname_cache_lockv@Base 10.11.8
 _Z19hostname_cache_sizev@Base 10.11.8
 _Z19ignore_db_dirs_freev@Base 10.11.8
 _Z19ignore_db_dirs_initv@Base 10.11.8
 _Z19imerge_list_or_listP15RANGE_OPT_PARAMP4ListI10SEL_IMERGEES4_@Base 10.11.8
 _Z19init_update_queriesv@Base 10.11.8
 _Z19intern_find_sys_varPKcm@Base 10.11.8
 _Z19is_eliminated_tableyP10TABLE_LIST@Base 10.11.8
 _Z19is_secure_file_pathPc@Base 10.11.8
 _Z19item_create_cleanupv@Base 10.11.8
 _Z19load_db_opt_by_nameP3THDPKcP23Schema_specification_st@Base 10.11.8
 _Z19my_locale_by_numberj@Base 10.11.8
 _Z19mysql_audit_releaseP3THD@Base 10.11.8
 _Z19mysql_drop_functionP3THDPK25st_mysql_const_lex_string@Base 10.11.8
 _Z19mysql_explain_unionP3THDP18st_select_lex_unitP13select_result@Base 10.11.8
 _Z19mysql_opt_change_dbP3THDPK25st_mysql_const_lex_stringP19st_mysql_lex_stringbPb@Base 10.11.8
 _Z19mysql_rename_tablesP3THDP10TABLE_LISTbb@Base 10.11.8
 _Z19mysql_rm_tmp_tablesv@Base 10.11.8
 _Z19mysql_unlock_tablesP3THDP13st_mysql_lock@Base 10.11.8
 _Z19mysql_unlock_tablesP3THDP13st_mysql_lockb@Base 10.11.8
 _Z19mysqld_help_prepareP3THDPKcP4ListI4ItemE@Base 10.11.8
 _Z19mysqld_show_authorsP3THD@Base 10.11.8
 _Z19mysqld_stmt_executeP3THDPcj@Base 10.11.8
 _Z19mysqld_stmt_prepareP3THDPKcj@Base 10.11.8
 _Z19optimize_semi_joinsP4JOINyjPdS1_P8POSITION@Base 10.11.8
 _Z19plugin_lock_by_nameP3THDPK25st_mysql_const_lex_stringi@Base 10.11.8
 _Z19prune_partition_setPK5TABLEP13part_id_range@Base 10.11.8
 _Z19prune_sel_arg_graphP7SEL_ARGj@Base 10.11.8
 _Z19push_ignored_db_dirPKc@Base 10.11.8
 _Z19push_warning_printfP3THDN21Sql_state_errno_level18enum_warning_levelEjPKcz@Base 10.11.8
 _Z19read_escaped_stringPKcS0_P19st_mysql_lex_string@Base 10.11.8
 _Z19resolve_engine_listP3THDPKcmbb@Base 10.11.8
 _Z19send_variant_2_listP11st_mem_rootP8ProtocolP4ListI6StringEPKcPS4_@Base 10.11.8
 _Z19show_create_triggerP3THDPK7sp_name@Base 10.11.8
 _Z19simple_remove_constP8st_orderP4Item@Base 10.11.8
 _Z19sp_add_used_routineP17Query_tables_listP11Query_arenaPK7MDL_keyPK10Sp_handlerP10TABLE_LIST@Base 10.11.8
 _Z19sp_cache_invalidatev@Base 10.11.8
 _Z19sp_drop_db_routinesP3THDPKc@Base 10.11.8
 _Z19stop_handle_managerv@Base 10.11.8
 _Z19store_schema_paramsP3THDP5TABLES2_P22st_lookup_field_valuesbPKc@Base 10.11.8
 _Z19sys_var_add_optionsP16st_dynamic_arrayi@Base 10.11.8
 _Z19tdc_share_is_cachedP3THDPKcS2_@Base 10.11.8
 _Z19temp_pool_clear_bitj@Base 10.11.8
 _Z19trans_rollback_stmtP3THD@Base 10.11.8
 _Z19trans_track_end_trxP3THD@Base 10.11.8
 _Z19wsrep_lock_rollbackv@Base 10.11.8
 _Z20append_possible_keysP11st_mem_rootR11String_listP5TABLE6BitmapILj64EE@Base 10.11.8
 _Z20binlog_commit_by_xidP10handlertonP5xid_t@Base 10.11.8
 _Z20build_table_filenamePcmPKcS1_S1_j@Base 10.11.8
 _Z20check_date_with_warnP3THDPK13st_mysql_time16date_conv_mode_t25enum_mysql_timestamp_type@Base 10.11.8
 _Z20check_mysql50_prefixPKc@Base 10.11.8
 _Z20check_partition_dirsP14partition_info@Base 10.11.8
 _Z20check_reserved_wordsPK25st_mysql_const_lex_string@Base 10.11.8
 _Z20convert_to_printablePcmPKcmPK15charset_info_stm@Base 10.11.8
 _Z20copy_keys_from_shareP5TABLEP11st_mem_root@Base 10.11.8
 _Z20create_explain_queryP3LEXP11st_mem_root@Base 10.11.8
 _Z20create_view_precheckP3THDP10TABLE_LISTS2_21enum_view_create_mode@Base 10.11.8
 _Z20ddl_log_create_tableP16st_ddl_log_stateP10handlertonPK25st_mysql_const_lex_stringS5_S5_b@Base 10.11.8
 _Z20ddl_log_drop_triggerP16st_ddl_log_statePK25st_mysql_const_lex_stringS3_S3_S3_@Base 10.11.8
 _Z20ddl_log_rename_tableP16st_ddl_log_stateP10handlertonPK25st_mysql_const_lex_stringS5_S5_S5_@Base 10.11.8
 _Z20ddl_log_update_phaseP16st_ddl_log_stateh@Base 10.11.8
 _Z20delete_explain_queryP3LEX@Base 10.11.8
 _Z20eliminate_item_equalP3THDP4ItemP10COND_EQUALP10Item_equal@Base 10.11.8
 _Z20execute_init_commandP3THDP19st_mysql_lex_stringP15st_mysql_rwlock@Base 10.11.8
 _Z20fill_schema_charsetsP3THDP10TABLE_LISTP4Item@Base 10.11.8
 _Z20fill_schema_schemataP3THDP10TABLE_LISTP4Item@Base 10.11.8
 _Z20find_field_in_tablesP3THDP10Item_identP10TABLE_LISTS4_P4ListIS3_EPP4Item27find_item_error_report_typebb@Base 10.11.8
 _Z20find_ignore_reactionP3THD@Base 10.11.8
 _Z20find_string_in_arrayP25st_mysql_const_lex_stringS0_PK15charset_info_st@Base 10.11.8
 _Z20free_all_rpl_filtersv@Base 10.11.8
 _Z20free_underlaid_joinsP3THDP13st_select_lex@Base 10.11.8
 _Z20get_fanout_with_depsP4JOINy@Base 10.11.8
 _Z20get_length_and_scaleyyPjPtjjP4Item@Base 10.11.8
 _Z20get_part_id_from_keyPK5TABLEPhP6st_keyPK12st_key_rangePj@Base 10.11.8
 _Z20get_schema_table_idxP15st_schema_table@Base 10.11.8
 _Z20ha_release_savepointP3THDP12st_savepoint@Base 10.11.8
 _Z20handle_early_optionsv@Base 10.11.8
 _Z20hostname_cache_firstv@Base 10.11.8
 _Z20ignore_db_dirs_resetv@Base 10.11.8
 _Z20init_read_record_idxP11READ_RECORDP3THDP5TABLEbjb@Base 10.11.8
 _Z20init_server_psi_keysv@Base 10.11.8
 _Z20init_tmp_table_shareP3THDP11TABLE_SHAREPKcjS4_S4_@Base 10.11.8
 _Z20item_func_sleep_freev@Base 10.11.8
 _Z20item_func_sleep_initv@Base 10.11.8
 _Z20make_proc_old_formatP3THDP15st_schema_table@Base 10.11.8
 _Z20merge_engine_optionsP19engine_option_valueS0_PS0_P11st_mem_root@Base 10.11.8
 _Z20mysql_audit_finalizev@Base 10.11.8
 _Z20mysql_audit_free_thdP3THD@Base 10.11.8
 _Z20mysql_audit_init_thdP3THD@Base 10.11.8
 _Z20mysql_checksum_tableP3THDP10TABLE_LISTP15st_ha_check_opt@Base 10.11.8
 _Z20mysql_compare_tablesP5TABLEP10Alter_infoP14HA_CREATE_INFOPb@Base 10.11.8
 _Z20mysql_handle_derivedP3LEXj@Base 10.11.8
 _Z20mysql_install_pluginP3THDPK25st_mysql_const_lex_stringS3_@Base 10.11.8
 _Z20mysql_manager_submitPFvPvES_@Base 10.11.8
 _Z20mysql_prepare_deleteP3THDP10TABLE_LISTPP4ItemPb@Base 10.11.8
 _Z20mysql_prepare_insertP3THDP10TABLE_LISTR4ListI4ItemEPS5_S6_S6_15enum_duplicatesbPPS4_b@Base 10.11.8
 _Z20mysql_prepare_updateP3THDP10TABLE_LISTPP4ItemjP8st_order@Base 10.11.8
 _Z20mysql_recreate_tableP3THDP10TABLE_LISTP13Recreate_infob@Base 10.11.8
 _Z20mysql_sql_stmt_closeP3THD@Base 10.11.8
 _Z20mysqld_show_warningsP3THDm@Base 10.11.8
 _Z20next_depth_first_tabP4JOINP13st_join_table@Base 10.11.8
 _Z20one_thread_schedulerP19scheduler_functionsP14Atomic_counterIjE@Base 10.11.8
 _Z20open_and_lock_tablesP3THDRK14DDL_options_stP10TABLE_LISTbjP19Prelocking_strategy@Base 10.11.8
 _Z20parse_escaped_stringPKcS0_P11st_mem_rootP25st_mysql_const_lex_string@Base 10.11.8
 _Z20prepare_schema_tableP3THDP3LEXP11Table_ident18enum_schema_tables@Base 10.11.8
 _Z20quick_range_seq_initPvjj@Base 10.11.8
 _Z20quick_range_seq_nextPvP18st_key_multi_range@Base 10.11.8
 _Z20read_bucket_endpointP16st_json_engine_tP5FieldP6StringPPKc@Base 10.11.8
 _Z20reload_acl_and_cacheP3THDyP10TABLE_LISTPi@Base 10.11.8
 _Z20report_json_error_exPKcP16st_json_engine_tS0_iN21Sql_state_errno_level18enum_warning_levelE@Base 10.11.8
 _Z20report_path_error_exPKcP14st_json_path_tS0_iN21Sql_state_errno_level18enum_warning_levelE@Base 10.11.8
 _Z20set_linear_hash_maskP14partition_infoj@Base 10.11.8
 _Z20show_create_table_exP3THDP10TABLE_LISTPKcS4_P6StringP22Table_specification_st17enum_with_db_name@Base 10.11.8
 _Z20start_handle_managerv@Base 10.11.8
 _Z20throw_bounds_warningP3THDPKcS2_@Base 10.11.8
 _Z20throw_bounds_warningP3THDPKcbbx@Base 10.11.8
 _Z20throw_bounds_warningP3THDPKcbd@Base 10.11.8
 _Z20unique_write_to_filePhjP6Unique@Base 10.11.8
 _Z20unique_write_to_ptrsPhjP6Unique@Base 10.11.8
 _Z20view_error_processorP3THDPv@Base 10.11.8
 _Z21add_table_for_triggerP3THDPK7sp_namebPP10TABLE_LIST@Base 10.11.8
 _Z21binlog_buf_uncompressPKhPhjPj@Base 10.11.8
 _Z21build_normalized_namePcmPKcmS1_mm@Base 10.11.8
 _Z21check_duplicate_namesP3THDR4ListI4ItemEb@Base 10.11.8
 _Z21check_for_outer_joinsP4ListI10TABLE_LISTE@Base 10.11.8
 _Z21check_role_is_grantedPKcS0_S0_@Base 10.11.8
 _Z21check_sequence_fieldsP3LEXP4ListI12Create_fieldE25st_mysql_const_lex_stringS5_@Base 10.11.8
 _Z21check_simple_equalityP3THDRKN12Value_source7ContextEP4ItemS6_P10COND_EQUAL@Base 10.11.8
 _Z21compare_keys_but_namePK6st_keyS1_P10Alter_infoPK5TABLES1_S1_@Base 10.11.8
 _Z21compare_nested_objectP16st_json_engine_tS0_@Base 10.11.8
 _Z21convert_error_messagePcmPK15charset_info_stPKcmS2_Pj@Base 10.11.8
 _Z21create_background_thdv@Base 10.11.8
 _Z21create_partition_namePcmPKcS1_jb@Base 10.11.8
 _Z21create_table_precheckP3THDP10TABLE_LISTS2_@Base 10.11.8
 _Z21date_time_format_copyP3THDP19st_date_time_format@Base 10.11.8
 _Z21date_time_format_make25enum_mysql_timestamp_typePKcj@Base 10.11.8
 _Z21ddl_log_disable_entryP16st_ddl_log_state@Base 10.11.8
 _Z21ddl_log_execute_entryP3THDj@Base 10.11.8
 _Z21del_global_index_statP3THDP5TABLEP6st_key@Base 10.11.8
 _Z21del_global_table_statP3THDPK25st_mysql_const_lex_stringS3_@Base 10.11.8
 _Z21destroy_sj_tmp_tablesP4JOIN@Base 10.11.8
 _Z21drop_database_objectsP3THDPK25st_mysql_const_lex_stringS3_b@Base 10.11.8
 _Z21dummy_error_processorP3THDPv@Base 10.11.8
 _Z21engine_options_differPvS_P25st_ha_create_table_option@Base 10.11.8
 _Z21filename_to_tablenamePKcPcmb@Base 10.11.8
 _Z21fill_key_cache_tablesP3THDP10TABLE_LISTP4Item@Base 10.11.8
 _Z21fill_schema_collationP3THDP10TABLE_LISTP4Item@Base 10.11.8
 _Z21finalize_audit_pluginP13st_plugin_int@Base 10.11.8
 _Z21finalize_schema_tableP13st_plugin_int@Base 10.11.8
 _Z21find_eq_ref_candidateP5TABLEy@Base 10.11.8
 _Z21first_depth_first_tabP4JOIN@Base 10.11.8
 _Z21get_connection_attribv@Base 10.11.8
 _Z21get_table_open_methodP10TABLE_LISTP15st_schema_table18enum_schema_tables@Base 10.11.8
 _Z21ha_default_handlertonP3THD@Base 10.11.8
 _Z21ha_delete_table_forceP3THDPKcPK25st_mysql_const_lex_stringS5_@Base 10.11.8
 _Z21ha_enable_transactionP3THDb@Base 10.11.8
 _Z21ha_prepare_for_backupv@Base 10.11.8
 _Z21hostname_cache_resizej@Base 10.11.8
 _Z21hostname_cache_unlockv@Base 10.11.8
 _Z21ignore_db_dirs_appendPKc@Base 10.11.8
 _Z21init_intvar_from_filePiP11st_io_cachei@Base 10.11.8
 _Z21init_strvar_from_filePciP11st_io_cachePKc@Base 10.11.8
 _Z21instantiate_tmp_tableP5TABLEP6st_keyP18st_maria_columndefPS4_y@Base 10.11.8
 _Z21is_foreign_key_prefixP3KeyS0_@Base 10.11.8
 _Z21join_init_read_recordP13st_join_table@Base 10.11.8
 _Z21key_uses_partial_colsP11TABLE_SHAREj@Base 10.11.8
 _Z21make_default_log_namePPcPKcb@Base 10.11.8
 _Z21multi_delete_precheckP3THDP10TABLE_LIST@Base 10.11.8
 _Z21multi_update_precheckP3THDP10TABLE_LIST@Base 10.11.8
 _Z21my_time_binary_lengthj@Base 10.11.8
 _Z21mysql_create_functionP3THDP11st_udf_func@Base 10.11.8
 _Z21mysql_execute_commandP3THDb@Base 10.11.8
 _Z21mysql_ha_flush_tablesP3THDP10TABLE_LIST@Base 10.11.8
 _Z21mysql_ha_read_prepareP3THDP10TABLE_LIST18enum_ha_read_modesPKcP4ListI4ItemE16ha_rkey_functionPS7_@Base 10.11.8
 _Z21mysqld_list_processesP3THDPKcb@Base 10.11.8
 _Z21mysqld_show_create_dbP3THDP25st_mysql_const_lex_stringS2_RK14DDL_options_st@Base 10.11.8
 _Z21open_table_from_shareP3THDP11TABLE_SHAREPK25st_mysql_const_lex_stringjjjP5TABLEbP4ListI6StringE@Base 10.11.8
 _Z21plugin_opt_set_limitsP9my_optionPK16st_mysql_sys_var@Base 10.11.8
 _Z21plugin_thdvar_cleanupP3THD@Base 10.11.8
 _Z21prep_alter_part_tableP3THDP5TABLEP10Alter_infoP14HA_CREATE_INFOPbS7_@Base 10.11.8
 _Z21prepare_simple_selectP3THDP4ItemP5TABLEPi@Base 10.11.8
 _Z21re_setup_keyinfo_hashP6st_key@Base 10.11.8
 _Z21read_first_record_seqP13st_join_table@Base 10.11.8
 _Z21rename_in_schema_fileP3THDPKcS2_S2_S2_@Base 10.11.8
 _Z21restore_prev_sj_stateyPK13st_join_tablej@Base 10.11.8
 _Z21save_agg_explain_dataP4JOINP14Explain_select@Base 10.11.8
 _Z21setup_end_select_funcP4JOIN@Base 10.11.8
 _Z21setup_jtbm_semi_joinsP4JOINP4ListI10TABLE_LISTERS1_I4ItemE@Base 10.11.8
 _Z21sql_print_informationPKcz@Base 10.11.8
 _Z21store_schema_schemataP3THDP5TABLEP25st_mysql_const_lex_stringPK15charset_info_stS4_@Base 10.11.8
 _Z21store_tuple_to_recordPP5FieldPjPhS3_@Base 10.11.8
 _Z21tablename_to_filenamePKcPcm@Base 10.11.8
 _Z21temp_copy_engine_listP3THDPP13st_plugin_int@Base 10.11.8
 _Z21test_if_data_home_dirPKc@Base 10.11.8
 _Z21test_if_group_changedR4ListI11Cached_itemE@Base 10.11.8
 _Z21trans_commit_implicitP3THD@Base 10.11.8
 _Z21write_log_replace_frmP18st_lock_param_typejPKcS2_@Base 10.11.8
 _Z21xa_recover_get_fieldsP3THDP4ListI4ItemEPPFcPvS5_E@Base 10.11.8
 _Z22add_virtual_expressionP3THDP4Item@Base 10.11.8
 _Z22binlog_report_wait_forP3THDS0_@Base 10.11.8
 _Z22binlog_rollback_by_xidP10handlertonP5xid_t@Base 10.11.8
 _Z22binlog_unsafe_map_initv@Base 10.11.8
 _Z22calc_sum_of_all_statusP17system_status_var@Base 10.11.8
 _Z22change_double_for_sortdPh@Base 10.11.8
 _Z22check_db_dir_existencePKc@Base 10.11.8
 _Z22check_part_func_fieldsPP5Fieldb@Base 10.11.8
 _Z22check_range_capable_PFP5TABLE@Base 10.11.8
 _Z22create_default_definerP3THDb@Base 10.11.8
 _Z22create_dummy_tmp_tableP3THD@Base 10.11.8
 _Z22create_func_dyncol_addP3THDP4ItemR4ListI21st_dyncall_create_defE@Base 10.11.8
 _Z22create_func_dyncol_getP3THDP4ItemS2_PK12Type_handlerRK21Lex_length_and_dec_stPK15charset_info_st@Base 10.11.8
 _Z22ddl_log_create_triggerP16st_ddl_log_statePK25st_mysql_const_lex_stringS3_S3_33enum_ddl_log_create_trigger_phase@Base 10.11.8
 _Z22ddl_log_drop_view_initP16st_ddl_log_statePK25st_mysql_const_lex_string@Base 10.11.8
 _Z22destroy_background_thdP3THD@Base 10.11.8
 _Z22error_if_data_home_dirPKcS0_@Base 10.11.8
 _Z22fields_in_hash_keyinfoP6st_key@Base 10.11.8
 _Z22fill_i_s_sql_functionsP3THDP10TABLE_LISTP4Item@Base 10.11.8
 _Z22fill_show_analyze_jsonP3THDP10TABLE_LISTP4Item@Base 10.11.8
 _Z22fill_show_explain_jsonP3THDP10TABLE_LISTP4Item@Base 10.11.8
 _Z22free_global_user_statsv@Base 10.11.8
 _Z22get_canonical_filenameP7handlerPKcPc@Base 10.11.8
 _Z22get_topics_for_keywordP3THDP5TABLES2_P13st_find_fieldsP4ListI6StringEPS6_S9_S9_@Base 10.11.8
 _Z22ha_finalize_handlertonP13st_plugin_int@Base 10.11.8
 _Z22hostname_cache_refreshv@Base 10.11.8
 _Z22hton_fill_schema_tableP3THDP10TABLE_LISTP4Item@Base 10.11.8
 _Z22init_global_user_statsv@Base 10.11.8
 _Z22is_engine_option_knownP19engine_option_valueP25st_ha_create_table_option@Base 10.11.8
 _Z22is_lex_native_functionPK25st_mysql_const_lex_string@Base 10.11.8
 _Z22is_multiple_semi_joinsP4JOINP8POSITIONjy@Base 10.11.8
 _Z22memorize_variant_topicP3THDP5TABLEiP13st_find_fieldP4ListI6StringEPS6_S9_S9_@Base 10.11.8
 _Z22my_timestamp_to_binaryPK7timevalPhj@Base 10.11.8
 _Z22mysql_audit_initializev@Base 10.11.8
 _Z22mysql_create_frm_imageP3THDP14HA_CREATE_INFOP10Alter_infoiPP6st_keyPjP34st_mysql_const_unsigned_lex_string@Base 10.11.8
 _Z22mysql_sql_stmt_executeP3THD@Base 10.11.8
 _Z22mysql_sql_stmt_prepareP3THD@Base 10.11.8
 _Z22mysql_uninstall_pluginP3THDPK25st_mysql_const_lex_stringS3_@Base 10.11.8
 _Z22mysql_unpack_partitionP3THDPcjP5TABLEbP10handlertonPb@Base 10.11.8
 _Z22mysqld_show_privilegesP3THD@Base 10.11.8
 _Z22next_explain_order_tabP4JOINP13st_join_table@Base 10.11.8
 _Z22parse_date_time_format25enum_mysql_timestamp_typePKcjP19st_date_time_format@Base 10.11.8
 _Z22partition_key_modifiedP5TABLEPK9st_bitmap@Base 10.11.8
 _Z22post_kill_notificationP3THD@Base 10.11.8
 _Z22print_final_join_orderP4JOIN@Base 10.11.8
 _Z22query_event_uncompressPK28Format_description_log_eventbPKhmPhmPbPS4_Pm@Base 10.11.8
 _Z22records_are_comparablePK5TABLE@Base 10.11.8
 _Z22reinit_stmt_before_useP3THDP3LEX@Base 10.11.8
 _Z22sel_arg_range_seq_initPvjj@Base 10.11.8
 _Z22sel_arg_range_seq_nextPvP18st_key_multi_range@Base 10.11.8
 _Z22setup_returning_fieldsP3THDP10TABLE_LIST@Base 10.11.8
 _Z22setup_table_attributesP3THDP10TABLE_LISTS2_Rj@Base 10.11.8
 _Z22sort_and_filter_keyuseP4JOINP16st_dynamic_arrayb@Base 10.11.8
 _Z22sp_add_to_query_tablesP3THDP3LEXPK25st_mysql_const_lex_stringS5_13thr_lock_type13enum_mdl_type@Base 10.11.8
 _Z22sp_cache_enforce_limitP8sp_cachem@Base 10.11.8
 _Z22store_key_image_to_recP5FieldPhj@Base 10.11.8
 _Z22unsafe_mixed_statementN17Query_tables_list24enum_stmt_accessed_tableES0_j@Base 10.11.8
 _Z22uses_index_fields_onlyP4ItemP5TABLEjb@Base 10.11.8
 _Z22vers_create_partitionsP3THDP10TABLE_LISTj@Base 10.11.8
 _Z22wsrep_thd_ignore_tableP3THD@Base 10.11.8
 _Z23attach_gap_time_trackerP3THDP16Gap_time_trackery@Base 10.11.8
 _Z23binlog_get_compress_lenj@Base 10.11.8
 _Z23build_tmptable_filenameP3THDPcm@Base 10.11.8
 _Z23check_routine_level_aclP3THDPKcS2_PK10Sp_handler@Base 10.11.8
 _Z23close_tables_for_reopenP3THDPP10TABLE_LISTRK13MDL_savepoint@Base 10.11.8
 _Z23convert_month_to_periodm@Base 10.11.8
 _Z23convert_period_to_monthm@Base 10.11.8
 _Z23ddl_log_delete_tmp_fileP16st_ddl_log_statePK25st_mysql_const_lex_stringS0_@Base 10.11.8
 _Z23ddl_log_drop_table_initP16st_ddl_log_statePK25st_mysql_const_lex_stringS3_@Base 10.11.8
 _Z23ddl_log_increment_phasej@Base 10.11.8
 _Z23ddl_log_release_entriesP16st_ddl_log_state@Base 10.11.8
 _Z23eq_ranges_exceeds_limitP15st_range_seq_ifPvj@Base 10.11.8
 _Z23explain_append_mrr_infoP18QUICK_RANGE_SELECTP6String@Base 10.11.8
 _Z23fill_schema_processlistP3THDP10TABLE_LISTP4Item@Base 10.11.8
 _Z23find_field_in_table_refP3THDP10TABLE_LISTPKcmS4_S4_S4_P4ListIS1_EPP4ItembbPtbPS2_@Base 10.11.8
 _Z23find_field_in_table_sefP5TABLEPKc@Base 10.11.8
 _Z23first_explain_order_tabP4JOIN@Base 10.11.8
 _Z23free_global_index_statsv@Base 10.11.8
 _Z23free_global_table_statsv@Base 10.11.8
 _Z23get_bound_sj_equalitiesP10TABLE_LISTy@Base 10.11.8
 _Z23get_cached_table_accessP22st_grant_internal_infoPKcS2_@Base 10.11.8
 _Z23get_lookup_field_valuesP3THDP4ItembP10TABLE_LISTP22st_lookup_field_values@Base 10.11.8
 _Z23get_old_charset_by_namePKc@Base 10.11.8
 _Z23get_or_create_key_cachePKcm@Base 10.11.8
 _Z23get_post_group_estimateP4JOINd@Base 10.11.8
 _Z23get_status_vars_versionv@Base 10.11.8
 _Z23ha_discover_table_namesP3THDP25st_mysql_const_lex_stringP9st_my_dirP21Discovered_table_listb@Base 10.11.8
 _Z23init_floatvar_from_filePfP11st_io_cachef@Base 10.11.8
 _Z23init_global_index_statsv@Base 10.11.8
 _Z23init_global_table_statsv@Base 10.11.8
 _Z23initialize_audit_pluginP13st_plugin_int@Base 10.11.8
 _Z23initialize_schema_tableP13st_plugin_int@Base 10.11.8
 _Z23is_indexed_agg_distinctP4JOINP4ListI10Item_fieldE@Base 10.11.8
 _Z23json_path_parts_comparePK19st_json_path_step_tS1_S1_S1_16json_value_typesPKi@Base 10.11.8
 _Z23json_skip_current_levelP16st_json_engine_tS0_@Base 10.11.8
 _Z23make_columns_old_formatP3THDP15st_schema_table@Base 10.11.8
 _Z23make_valid_column_namesP3THDR4ListI4ItemE@Base 10.11.8
 _Z23mark_join_nest_as_constP4JOINP10TABLE_LISTPyPj@Base 10.11.8
 _Z23my_dboptions_cache_freev@Base 10.11.8
 _Z23my_dboptions_cache_initv@Base 10.11.8
 _Z23mysql_add_sys_var_chainP7sys_var@Base 10.11.8
 _Z23mysql_del_sys_var_chainP7sys_var@Base 10.11.8
 _Z23mysql_init_multi_deleteP3LEX@Base 10.11.8
 _Z23mysql_rm_table_no_locksP3THDP10TABLE_LISTPK25st_mysql_const_lex_stringP16st_ddl_log_statebbbbbb@Base 10.11.8
 _Z23mysql_stmt_get_longdataP3THDPcm@Base 10.11.8
 _Z23net_allocate_new_packetP6st_netPvj@Base 10.11.8
 _Z23optimize_semijoin_nestsP4JOINy@Base 10.11.8
 _Z23pack_length_to_packflagj@Base 10.11.8
 _Z23prepare_select_for_nameP3THDPKcmP5TABLEP5FieldPi@Base 10.11.8
 _Z23prepare_sequence_fieldsP3THDP4ListI12Create_fieldE@Base 10.11.8
 _Z23sp_cache_flush_obsoletePP8sp_cachePP7sp_head@Base 10.11.8
 _Z23sql_print_information_vPKcP13__va_list_tag@Base 10.11.8
 _Z23thd_init_client_charsetP3THDj@Base 10.11.8
 _Z23trans_release_savepointP3THD25st_mysql_const_lex_string@Base 10.11.8
 _Z23trans_rollback_implicitP3THD@Base 10.11.8
 _Z23validate_comment_lengthP3THDP25st_mysql_const_lex_stringmjPKc@Base 10.11.8
 _Z23vers_insert_history_rowP5TABLE@Base 10.11.8
 _Z23wsrep_set_data_home_dirPKc@Base 10.11.8
 _Z23wsrep_thd_exec_mode_strP3THD@Base 10.11.8
 _Z23xa_trans_force_rollbackP3THD@Base 10.11.8
 _Z24all_any_subquery_creatorP3THDP4ItemPFP12Comp_creatorbEbP13st_select_lex@Base 10.11.8
 _Z24check_string_byte_lengthPK25st_mysql_const_lex_stringjm@Base 10.11.8
 _Z24check_string_char_lengthPK25st_mysql_const_lex_stringjmPK15charset_info_stb@Base 10.11.8
 _Z24compare_packed_sort_keysPvPPhS1_@Base 10.11.8
 _Z24cond_is_datetime_is_nullP4Item@Base 10.11.8
 _Z24convert_error_to_warningP3THD@Base 10.11.8
 _Z24create_subpartition_namePcmPKcS1_S1_j@Base 10.11.8
 _Z24ddl_log_execute_recoveryv@Base 10.11.8
 _Z24ddl_log_update_unique_idP16st_ddl_log_statey@Base 10.11.8
 _Z24default_regex_flags_pcreP3THD@Base 10.11.8
 _Z24ending_single_stmt_transP3THDb@Base 10.11.8
 _Z24find_matching_field_pairP4Item4ListI10Field_pairE@Base 10.11.8
 _Z24free_global_client_statsv@Base 10.11.8
 _Z24get_cached_schema_accessP22st_grant_internal_infoPKc@Base 10.11.8
 _Z24get_column_avg_frequencyP5Field@Base 10.11.8
 _Z24get_date_time_format_strP25st_known_date_time_format25enum_mysql_timestamp_type@Base 10.11.8
 _Z24get_default_db_collationP3THDPKc@Base 10.11.8
 _Z24get_file_options_ulllistRPKcS0_S0_PhP11File_optionP11st_mem_root@Base 10.11.8
 _Z24get_or_create_rpl_filterPKcm@Base 10.11.8
 _Z24get_quick_select_for_refP3THDP5TABLEP12st_table_refy@Base 10.11.8
 _Z24get_schema_tables_resultP4JOIN23enum_schema_table_state@Base 10.11.8
 _Z24get_sys_var_value_originPv@Base 10.11.8
 _Z24get_tmp_table_write_costP3THDdj@Base 10.11.8
 _Z24ha_initialize_handlertonP13st_plugin_int@Base 10.11.8
 _Z24ha_repartition_key_cacheP12st_key_cache@Base 10.11.8
 _Z24ha_rollback_to_savepointP3THDP12st_savepoint@Base 10.11.8
 _Z24init_global_client_statsv@Base 10.11.8
 _Z24init_io_cache_encryptionv@Base 10.11.8
 _Z24is_log_table_write_query16enum_sql_command@Base 10.11.8
 _Z24json_compare_arr_and_objP16st_json_engine_tS0_@Base 10.11.8
 _Z24make_schemata_old_formatP3THDP15st_schema_table@Base 10.11.8
 _Z24make_used_partitions_strP11st_mem_rootP14partition_infoP6StringR11String_list@Base 10.11.8
 _Z24mariadb_view_version_getP11TABLE_SHARE@Base 10.11.8
 _Z24my_time_packed_to_binaryxPhj@Base 10.11.8
 _Z24my_timestamp_from_binaryP7timevalPKhj@Base 10.11.8
 _Z24mysql_assign_to_keycacheP3THDP10TABLE_LISTPK25st_mysql_const_lex_string@Base 10.11.8
 _Z24mysql_bin_log_commit_posP3THDPyPPKc@Base 10.11.8
 _Z24mysql_ha_cleanup_no_freeP3THD@Base 10.11.8
 _Z24mysql_unlock_read_tablesP3THDP13st_mysql_lock@Base 10.11.8
 _Z24mysql_unlock_some_tablesP3THDPP5TABLEjj@Base 10.11.8
 _Z24mysqld_show_contributorsP3THD@Base 10.11.8
 _Z24mysqld_stmt_bulk_executeP3THDPcj@Base 10.11.8
 _Z24net_send_progress_packetP3THD@Base 10.11.8
 _Z24non_existing_table_errori@Base 10.11.8
 _Z24open_n_lock_single_tableP3THDP10TABLE_LIST13thr_lock_typejP19Prelocking_strategy@Base 10.11.8
 _Z24open_proc_table_for_readP3THD@Base 10.11.8
 _Z24plugin_foreach_with_maskP3THDPFcS0_P13st_plugin_intPvEijS3_@Base 10.11.8
 _Z24pretty_print_engine_listP3THDPP13st_plugin_int@Base 10.11.8
 _Z24process_gap_time_trackerP3THDy@Base 10.11.8
 _Z24propagate_new_equalitiesP3THDP4ItemP4ListI10Item_equalEP10COND_EQUALPb@Base 10.11.8
 _Z24pull_out_semijoin_tablesP4JOIN@Base 10.11.8
 _Z24purge_log_get_error_codei@Base 10.11.8
 _Z24read_hex_bucket_endpointP16st_json_engine_tP5FieldP6StringPPKc@Base 10.11.8
 _Z24read_lock_type_for_tableP3THDP17Query_tables_listP10TABLE_LISTb@Base 10.11.8
 _Z24restart_trans_for_tablesP3THDP10TABLE_LIST@Base 10.11.8
 _Z24row_log_event_uncompressPK28Format_description_log_eventbPKhmPhmPbPS4_Pm@Base 10.11.8
 _Z24set_statistics_for_tableP3THDP5TABLE@Base 10.11.8
 _Z24set_sys_var_value_originPvN7sys_var5whereEPKc@Base 10.11.8
 _Z24sets_var_optimizer_trace16enum_sql_commandP4ListI12set_var_baseE@Base 10.11.8
 _Z24setup_semijoin_loosescanP4JOIN@Base 10.11.8
 _Z24show_tc_active_instancesP3THDP17st_mysql_show_varPvP17system_status_var13enum_var_type@Base 10.11.8
 _Z24sp_create_assignment_lexP3THDPKc@Base 10.11.8
 _Z24sp_get_flags_for_commandP3LEX@Base 10.11.8
 _Z24sql_strmake_with_convertP3THDPKcmPK15charset_info_stmS5_Pm@Base 10.11.8
 _Z24stored_field_cmp_to_itemP3THDP5FieldP4Item@Base 10.11.8
 _Z24sub_select_postjoin_aggrP4JOINP13st_join_tableb@Base 10.11.8
 _Z24tdc_wait_for_old_versionP3THDPKcS2_mj@Base 10.11.8
 _Z24thd_get_query_start_dataP3THDPc@Base 10.11.8
 _Z24update_global_user_statsP3THDbl@Base 10.11.8
 _Z24wait_while_table_is_usedP3THDP5TABLE17ha_extra_function@Base 10.11.8
 _Z25binlog_get_uncompress_lenPKh@Base 10.11.8
 _Z25check_show_routine_accessP3THDP7sp_headPb@Base 10.11.8
 _Z25close_all_tables_for_nameP3THDP11TABLE_SHARE17ha_extra_functionP5TABLE@Base 10.11.8
 _Z25compare_partition_optionsP14HA_CREATE_INFOP17partition_element@Base 10.11.8
 _Z25cond_has_datetime_is_nullP4Item@Base 10.11.8
 _Z25const_expression_in_whereP4ItemS0_P5FieldPS0_@Base 10.11.8
 _Z25create_func_dyncol_createP3THDR4ListI21st_dyncall_create_defE@Base 10.11.8
 _Z25create_func_dyncol_deleteP3THDP4ItemR4ListIS1_E@Base 10.11.8
 _Z25create_internal_tmp_tableP5TABLEP6st_keyP18st_maria_columndefPS4_y@Base 10.11.8
 _Z25create_table_for_functionP3THDP10TABLE_LIST@Base 10.11.8
 _Z25decimal_operation_resultsiPKcS0_@Base 10.11.8
 _Z25emb_count_querycache_sizeP3THD@Base 10.11.8
 _Z25end_lex_with_single_tableP3THDP5TABLEP3LEX@Base 10.11.8
 _Z25fill_optimizer_trace_infoP3THDP10TABLE_LISTP4Item@Base 10.11.8
 _Z25fill_schema_enabled_rolesP3THDP10TABLE_LISTP4Item@Base 10.11.8
 _Z25fill_show_analyze_tabularP3THDP10TABLE_LISTP4Item@Base 10.11.8
 _Z25fill_show_explain_tabularP3THDP10TABLE_LISTP4Item@Base 10.11.8
 _Z25free_statistics_for_tableP5TABLE@Base 10.11.8
 _Z25free_sysvar_table_optionsP10handlerton@Base 10.11.8
 _Z25generate_partition_syntaxP3THDP14partition_infoPjbP14HA_CREATE_INFOP10Alter_info@Base 10.11.8
 _Z25get_blob_type_from_lengthm@Base 10.11.8
 _Z25get_full_part_id_from_keyPK5TABLEPhP6st_keyPK12st_key_rangeP13part_id_range@Base 10.11.8
 _Z25get_key_map_from_key_listP6BitmapILj64EEP5TABLEP4ListI6StringE@Base 10.11.8
 _Z25get_tmp_table_lookup_costP3THDdj@Base 10.11.8
 _Z25gtid_parse_string_to_listPKcmPj@Base 10.11.8
 _Z25ha_change_key_cache_paramP12st_key_cache@Base 10.11.8
 _Z25ha_default_tmp_handlertonP3THD@Base 10.11.8
 _Z25ha_resolve_by_legacy_typeP3THD14legacy_db_type@Base 10.11.8
 _Z25has_proxy_protocol_headerP6st_net@Base 10.11.8
 _Z25init_net_server_extensionP3THD@Base 10.11.8
 _Z25int_to_datetime_with_warnP3THDRK15Longlong_hybridP13st_mysql_time11date_mode_tPK11TABLE_SHAREPKc@Base 10.11.8
 _Z25is_proxy_protocol_allowedPK8sockaddr@Base 10.11.8
 _Z25make_cond_for_info_schemaP3THDP4ItemP10TABLE_LIST@Base 10.11.8
 _Z25make_in_exists_conversionP3THDP4JOINP17Item_in_subselect@Base 10.11.8
 _Z25mark_unsupported_functionPKcPvj@Base 10.11.8
 _Z25mark_unsupported_functionPKcS0_Pvj@Base 10.11.8
 _Z25my_copy_with_hex_escapingPK15charset_info_stPcmPKcm@Base 10.11.8
 _Z25my_datetime_binary_lengthj@Base 10.11.8
 _Z25my_missing_function_errorRK25st_mysql_const_lex_stringPKc@Base 10.11.8
 _Z25mysql_add_invisible_fieldP3THDP4ListI12Create_fieldEPKcP12Type_handler18field_visibility_tP4Item@Base 10.11.8
 _Z25mysql_add_invisible_indexP3THDP4ListI3KeyEP25st_mysql_const_lex_stringNS2_7KeytypeE@Base 10.11.8
 _Z25mysql_prepare_alter_tableP3THDP5TABLEP22Table_specification_stP10Alter_infoP15Alter_table_ctx@Base 10.11.8
 _Z25parse_engine_part_optionsP3THDP5TABLE@Base 10.11.8
 _Z25pushdown_cond_for_derivedP3THDP4ItemP10TABLE_LIST@Base 10.11.8
 _Z25read_keys_and_merge_scansP3THDP5TABLE4ListI18QUICK_RANGE_SELECTEPS4_P11READ_RECORDbP6BitmapILj64EEPP6Unique@Base 10.11.8
 _Z25reset_host_connect_errorsPKc@Base 10.11.8
 _Z25run_fill_key_cache_tablesPKcP12st_key_cachePv@Base 10.11.8
 _Z25schema_table_store_recordP3THDP5TABLE@Base 10.11.8
 _Z25ssl_acceptor_stats_updatei@Base 10.11.8
 _Z25str_to_datetime_with_warnP3THDPK15charset_info_stPKcmP13st_mysql_time11date_mode_t@Base 10.11.8
 _Z25write_bin_log_start_alterP3THDRbyb@Base 10.11.8
 _Z25wsrep_thd_query_state_strP3THD@Base 10.11.8
 _Z26alloc_statistics_for_tableP3THDP5TABLEP9st_bitmap@Base 10.11.8
 _Z26alter_partition_convert_inP18st_lock_param_type@Base 10.11.8
 _Z26backup_set_alter_copy_lockP3THDP5TABLE@Base 10.11.8
 _Z26build_tmp_join_prefix_condP4JOINP13st_join_tablePP4Item@Base 10.11.8
 _Z26bulk_parameters_iterationsP3THD@Base 10.11.8
 _Z26check_n_cut_mysql50_prefixPKcPcm@Base 10.11.8
 _Z26create_select_for_variableP3THDP25st_mysql_const_lex_string@Base 10.11.8
 _Z26ddl_log_create_backup_filev@Base 10.11.8
 _Z26emb_load_querycache_resultP3THDP17Querycache_stream@Base 10.11.8
 _Z26ext_table_discovery_simpleP9st_my_dirPN10handlerton15discovered_listE@Base 10.11.8
 _Z26fast_alter_partition_tableP3THDP5TABLEP10Alter_infoP15Alter_table_ctxP14HA_CREATE_INFOP10TABLE_LIST@Base 10.11.8
 _Z26field_is_partition_charsetP5Field@Base 10.11.8
 _Z26finalize_encryption_pluginP13st_plugin_int@Base 10.11.8
 _Z26find_table_for_mdl_upgradeP3THDPKcS2_Pi@Base 10.11.8
 _Z26fix_list_after_tbl_changesP13st_select_lexP4ListI10TABLE_LISTE@Base 10.11.8
 _Z26free_domain_lookup_elementPv@Base 10.11.8
 _Z26get_all_items_for_categoryP3THDP5TABLEP5FieldP10SQL_SELECTP4ListI6StringE@Base 10.11.8
 _Z26get_next_partition_id_listP17st_partition_iter@Base 10.11.8
 _Z26ha_disable_internal_writesb@Base 10.11.8
 _Z26init_fill_schema_files_rowP5TABLE@Base 10.11.8
 _Z26init_lex_with_single_tableP3THDP5TABLEP3LEX@Base 10.11.8
 _Z26init_show_explain_psi_keysv@Base 10.11.8
 _Z26is_set_timestamp_forbiddenP3THD@Base 10.11.8
 _Z26join_tab_execution_startupP13st_join_table@Base 10.11.8
 _Z26join_type_handlers_for_tvcP3THDR18List_iterator_fastI4ListI4ItemEEP11Type_holderj@Base 10.11.8
 _Z26my_time_packed_from_binaryPKhj@Base 10.11.8
 _Z26my_timestamp_binary_lengthj@Base 10.11.8
 _Z26mysql_create_table_no_lockP3THDP16st_ddl_log_stateS2_P22Table_specification_stP10Alter_infoPbiP10TABLE_LIST@Base 10.11.8
 _Z26mysql_multi_delete_prepareP3THD@Base 10.11.8
 _Z26mysql_multi_update_prepareP3THD@Base 10.11.8
 _Z26optimize_wo_join_bufferingP4JOINjjybjPdS1_@Base 10.11.8
 _Z26parse_engine_table_optionsP3THDP10handlertonP11TABLE_SHARE@Base 10.11.8
 _Z26partition_default_handlingP3THDP5TABLEP14partition_infobPKc@Base 10.11.8
 _Z26pos_in_interval_for_doubleddd@Base 10.11.8
 _Z26pos_in_interval_for_stringPK15charset_info_stPKhjS3_jS3_j@Base 10.11.8
 _Z26print_explain_for_slow_logP3LEXP3THDP6String@Base 10.11.8
 _Z26print_explain_message_lineP18select_result_sinkhbjPKcPyS2_@Base 10.11.8
 _Z26read_statistics_for_tablesP3THDP10TABLE_LISTb@Base 10.11.8
 _Z26sp_create_assignment_instrP3THDbb@Base 10.11.8
 _Z26sp_remove_not_own_routinesP17Query_tables_list@Base 10.11.8
 _Z26sp_update_sp_used_routinesP7st_hashS0_@Base 10.11.8
 _Z26sql_backup_definition_filePK25st_mysql_const_lex_stringPS_@Base 10.11.8
 _Z26sql_create_definition_filePK25st_mysql_const_lex_stringS1_S1_PhP11File_option@Base 10.11.8
 _Z26table_already_fk_prelockedP10TABLE_LISTP25st_mysql_const_lex_stringS2_13thr_lock_type@Base 10.11.8
 _Z26test_if_item_cache_changedR4ListI11Cached_itemE@Base 10.11.8
 _Z26time_to_datetime_with_warnP3THDPK13st_mysql_timePS1_16date_conv_mode_t@Base 10.11.8
 _Z26verify_data_with_partitionP5TABLES0_j@Base 10.11.8
 _Z27adjust_time_range_with_warnP3THDP13st_mysql_timej@Base 10.11.8
 _Z27build_table_shadow_filenamePcmP18st_lock_param_typeb@Base 10.11.8
 _Z27commit_checkpoint_notify_haPv@Base 10.11.8
 _Z27create_tmp_table_for_schemaP3THDP15TMP_TABLE_PARAMRK15st_schema_tablexRK25st_mysql_const_lex_stringbb@Base 10.11.8
 _Z27ddl_log_write_execute_entryjjPP23st_ddl_log_memory_entry@Base 10.11.8
 _Z27delete_statistics_for_indexP3THDP5TABLEP6st_keyb@Base 10.11.8
 _Z27delete_statistics_for_tableP3THDPK25st_mysql_const_lex_stringS3_@Base 10.11.8
 _Z27emb_store_querycache_resultP17Querycache_streamP3THD@Base 10.11.8
 _Z27fill_schema_user_privilegesP3THDP10TABLE_LISTP4Item@Base 10.11.8
 _Z27flush_tables_with_read_lockP3THDP10TABLE_LIST@Base 10.11.8
 _Z27get_delayed_table_estimatesP5TABLEPyPdS2_@Base 10.11.8
 _Z27get_next_partition_id_rangeP17st_partition_iter@Base 10.11.8
 _Z27get_packed_keys_compare_ptrv@Base 10.11.8
 _Z27get_type_attributes_for_tvcP3THDR18List_iterator_fastI4ListI4ItemEEP11Type_holderjj@Base 10.11.8
 _Z27ha_signal_ddl_recovery_donev@Base 10.11.8
 _Z27ignored_list_includes_tableP4ListI10TABLE_LISTEPS0_@Base 10.11.8
 _Z27initialize_data_type_pluginP13st_plugin_int@Base 10.11.8
 _Z27join_read_next_same_or_nullP11READ_RECORD@Base 10.11.8
 _Z27load_table_name_for_triggerP3THDPK7sp_namePK25st_mysql_const_lex_stringPS4_@Base 10.11.8
 _Z27make_profile_table_for_showP3THDP15st_schema_table@Base 10.11.8
 _Z27make_table_names_old_formatP3THDP15st_schema_table@Base 10.11.8
 _Z27mysql_audit_acquire_pluginsP3THDPm@Base 10.11.8
 _Z27mysql_handle_single_derivedP3LEXP10TABLE_LISTj@Base 10.11.8
 _Z27mysql_insert_select_prepareP3THDP13select_result@Base 10.11.8
 _Z27mysql_lock_abort_for_threadP3THDP5TABLE@Base 10.11.8
 _Z27open_system_tables_for_readP3THDP10TABLE_LIST@Base 10.11.8
 _Z27parse_proxy_protocol_headerP6st_netP15proxy_peer_info@Base 10.11.8
 _Z27print_best_access_for_tableP3THDP8POSITION9join_type@Base 10.11.8
 _Z27remove_pushed_top_conjunctsP3THDP4Item@Base 10.11.8
 _Z27rename_table_in_stat_tablesP3THDPK25st_mysql_const_lex_stringS3_S3_S3_@Base 10.11.8
 _Z27set_proxy_protocol_networksPKc@Base 10.11.8
 _Z27set_statement_var_if_existsP3THDPKcmy@Base 10.11.8
 _Z27sql_restore_definition_filePK25st_mysql_const_lex_string@Base 10.11.8
 _Z27stmt_causes_implicit_commitP3THDj@Base 10.11.8
 _Z27tdc_remove_referenced_shareP3THDP11TABLE_SHARE@Base 10.11.8
 _Z27trans_rollback_to_savepointP3THD25st_mysql_const_lex_string@Base 10.11.8
 _Z27transform_condition_or_partP3THDP4ItemMS1_FS2_S0_PhES3_@Base 10.11.8
 _Z27truncate_partition_filenamePc@Base 10.11.8
 _Z27unpack_to_base_table_fieldsP5TABLE@Base 10.11.8
 _Z27update_statistics_for_tableP3THDP5TABLE@Base 10.11.8
 _Z27uses_only_table_name_fieldsP4ItemP10TABLE_LIST@Base 10.11.8
 _Z28TIME_to_longlong_time_packedPK13st_mysql_time@Base 10.11.8
 _Z28backup_reset_alter_copy_lockP3THD@Base 10.11.8
 _Z28calc_lookup_values_from_condP3THDP4ItemP10TABLE_LISTP22st_lookup_field_values@Base 10.11.8
 _Z28check_duplicates_in_intervalPKcS0_PK10st_typelibPK15charset_info_stPj@Base 10.11.8
 _Z28check_fk_parent_table_accessP3THDP14HA_CREATE_INFOP10Alter_infoPKc@Base 10.11.8
 _Z28collect_statistics_for_tableP3THDP5TABLE@Base 10.11.8
 _Z28compare_table_with_partitionP3THDP5TABLES2_P17partition_elementj@Base 10.11.8
 _Z28ddl_log_release_memory_entryP23st_ddl_log_memory_entry@Base 10.11.8
 _Z28delete_statistics_for_columnP3THDP5TABLEP5Field@Base 10.11.8
 _Z28double_to_datetime_with_warnP3THDdP13st_mysql_time11date_mode_tPK11TABLE_SHAREPKc@Base 10.11.8
 _Z28dynamic_column_error_message23enum_dyncol_func_result@Base 10.11.8
 _Z28event_that_should_be_ignoredPKh@Base 10.11.8
 _Z28fill_schema_applicable_rolesP3THDP10TABLE_LISTP4Item@Base 10.11.8
 _Z28fill_schema_coll_charset_appP3THDP10TABLE_LISTP4Item@Base 10.11.8
 _Z28fill_schema_table_privilegesP3THDP10TABLE_LISTP4Item@Base 10.11.8
 _Z28fill_show_explain_or_analyzeP3THDP10TABLE_LISTP4Itembb@Base 10.11.8
 _Z28free_u32_gtid_filter_elementPv@Base 10.11.8
 _Z28get_column_range_cardinalityP5FieldP12st_key_rangeS2_j@Base 10.11.8
 _Z28get_corresponding_field_pairP4Item4ListI10Field_pairE@Base 10.11.8
 _Z28ha_commit_checkpoint_requestPvPFvS_E@Base 10.11.8
 _Z28ha_commit_or_rollback_by_xidP5xid_tb@Base 10.11.8
 _Z28ha_start_consistent_snapshotP3THD@Base 10.11.8
 _Z28init_proxy_protocol_networksPKc@Base 10.11.8
 _Z28initialize_encryption_pluginP13st_plugin_int@Base 10.11.8
 _Z28is_native_function_with_warnP3THDPK25st_mysql_const_lex_string@Base 10.11.8
 _Z28join_read_always_key_or_nullP13st_join_table@Base 10.11.8
 _Z28json_compare_arrays_in_orderP16st_json_engine_tS0_@Base 10.11.8
 _Z28json_find_overlap_with_arrayP16st_json_engine_tS0_b@Base 10.11.8
 _Z28make_leaves_for_single_tableP3THDR4ListI10TABLE_LISTEPS2_RbS5_@Base 10.11.8
 _Z28make_truncated_value_warningP3THDN21Sql_state_errno_level18enum_warning_levelEPK7ErrConv25enum_mysql_timestamp_typePKcS8_S8_@Base 10.11.8
 _Z28my_datetime_packed_to_binaryxPhj@Base 10.11.8
 _Z28mysql_create_or_drop_triggerP3THDP10TABLE_LISTb@Base 10.11.8
 _Z28mysql_ha_rm_temporary_tablesP3THD@Base 10.11.8
 _Z28open_system_table_for_updateP3THDP10TABLE_LIST@Base 10.11.8
 _Z28optimize_schema_tables_readsP4JOIN@Base 10.11.8
 _Z28print_keyuse_array_for_traceP3THDP16st_dynamic_array@Base 10.11.8
 _Z28rename_columns_in_stat_tableP3THDP5TABLEP4ListIN10Alter_info25RENAME_COLUMN_STAT_PARAMSEE@Base 10.11.8
 _Z28rename_indexes_in_stat_tableP3THDP5TABLEP4ListIN10Alter_info24RENAME_INDEX_STAT_PARAMSEE@Base 10.11.8
 _Z28resolve_sysvar_table_optionsP10handlerton@Base 10.11.8
 _Z28set_postjoin_aggr_write_funcP13st_join_table@Base 10.11.8
 _Z28sp_update_stmt_used_routinesP3THDP17Query_tables_listP10SQL_I_ListI19Sroutine_hash_entryEP10TABLE_LIST@Base 10.11.8
 _Z28sp_update_stmt_used_routinesP3THDP17Query_tables_listP7st_hashP10TABLE_LIST@Base 10.11.8
 _Z28stmt_has_updated_trans_tablePK3THD@Base 10.11.8
 _Z28write_bin_log_with_if_existsP3THDbbbb@Base 10.11.8
 _Z28wsrep_prepare_key_for_innodbP3THDPKhmS2_mP9wsrep_bufPm@Base 10.11.8
 _Z28wsrep_thd_conflict_state_strP3THD@Base 10.11.8
 _Z29cleanup_empty_jtbm_semi_joinsP4JOINP4ListI10TABLE_LISTE@Base 10.11.8
 _Z29close_thread_tables_for_queryP3THD@Base 10.11.8
 _Z29ddl_log_disable_execute_entryPP23st_ddl_log_memory_entry@Base 10.11.8
 _Z29decimal_to_datetime_with_warnP3THDPK10my_decimalP13st_mysql_time11date_mode_tPK11TABLE_SHAREPKc@Base 10.11.8
 _Z29engine_table_options_frm_readPKhmP11TABLE_SHARE@Base 10.11.8
 _Z29fill_schema_column_privilegesP3THDP10TABLE_LISTP4Item@Base 10.11.8
 _Z29fill_schema_schema_privilegesP3THDP10TABLE_LISTP4Item@Base 10.11.8
 _Z29get_quote_char_for_identifierP3THDPKcm@Base 10.11.8
 _Z29is_materialization_applicableP3THDP17Item_in_subselectP13st_select_lex@Base 10.11.8
 _Z29json_find_overlap_with_objectP16st_json_engine_tS0_b@Base 10.11.8
 _Z29json_find_overlap_with_scalarP16st_json_engine_tS0_@Base 10.11.8
 _Z29mysqld_show_create_get_fieldsP3THDP10TABLE_LISTP4ListI4ItemEP6String@Base 10.11.8
 _Z29open_and_lock_internal_tablesP5TABLEb@Base 10.11.8
 _Z29proxy_protocol_networks_validPKc@Base 10.11.8
 _Z29setup_tables_and_check_accessP3THDP23Name_resolution_contextP4ListI10TABLE_LISTEPS4_RS5_b11privilege_tS9_b@Base 10.11.8
 _Z29trans_has_updated_trans_tablePK3THD@Base 10.11.8
 _Z29trans_reset_one_shot_chisticsP3THD@Base 10.11.8
 _Z29update_create_info_from_tableP14HA_CREATE_INFOP5TABLE@Base 10.11.8
 _Z29update_non_unique_table_errorP10TABLE_LISTPKcS0_@Base 10.11.8
 _Z30TIME_from_longlong_time_packedP13st_mysql_timex@Base 10.11.8
 _Z30add_table_scan_values_to_traceP3THDP13st_join_table@Base 10.11.8
 _Z30ddl_log_close_binlogged_eventsP7st_hash@Base 10.11.8
 _Z30engine_table_options_frm_imagePhP19engine_option_valueR4ListI12Create_fieldEjP6st_key@Base 10.11.8
 _Z30find_table_def_in_with_clausesP10TABLE_LISTP17st_unit_ctxt_elem@Base 10.11.8
 _Z30free_field_buffers_larger_thanP5TABLEj@Base 10.11.8
 _Z30get_columns_for_pseudo_indexesPK5TABLEPK9st_bitmapiPS2_@Base 10.11.8
 _Z30get_merge_many_buffs_cost_fastyyj@Base 10.11.8
 _Z30init_dynarray_intvar_from_fileP16st_dynamic_arrayP11st_io_cache@Base 10.11.8
 _Z30list_has_optimizer_trace_tablePK10TABLE_LIST@Base 10.11.8
 _Z30log_partition_alter_to_ddl_logP18st_lock_param_type@Base 10.11.8
 _Z30make_character_sets_old_formatP3THDP15st_schema_table@Base 10.11.8
 _Z30mark_select_range_as_dependentP3THDP13st_select_lexS2_P5FieldP4ItemP10Item_identb@Base 10.11.8
 _Z30my_datetime_packed_from_binaryPKhj@Base 10.11.8
 _Z30open_normal_and_derived_tablesP3THDP10TABLE_LISTjj@Base 10.11.8
 _Z30opt_trace_print_expanded_queryP3THDP13st_select_lexP18Json_writer_object@Base 10.11.8
 _Z30promote_first_timestamp_columnP4ListI12Create_fieldE@Base 10.11.8
 _Z30run_set_statement_if_requestedP3THDP3LEX@Base 10.11.8
 _Z30setup_sj_materialization_part1P13st_join_table@Base 10.11.8
 _Z30setup_sj_materialization_part2P13st_join_table@Base 10.11.8
 _Z30setup_tmp_table_column_bitmapsP5TABLEPhj@Base 10.11.8
 _Z30sql_mode_string_representationP3THDyP25st_mysql_const_lex_string@Base 10.11.8
 _Z30sql_mode_string_representationj@Base 10.11.8
 _Z30sqlcom_can_generate_row_eventsPK3THD@Base 10.11.8
 _Z30sync_dynamic_session_variablesP3THDb@Base 10.11.8
 _Z30unique_intersect_write_to_ptrsPhjP6Unique@Base 10.11.8
 _Z31add_table_function_dependenciesP4ListI10TABLE_LISTEy@Base 10.11.8
 _Z31build_lower_case_table_filenamePcmPK25st_mysql_const_lex_stringS2_j@Base 10.11.8
 _Z31destroy_proxy_protocol_networksv@Base 10.11.8
 _Z31engine_table_options_frm_lengthP19engine_option_valueR4ListI12Create_fieldEjP6st_key@Base 10.11.8
 _Z31extension_based_table_discoveryP9st_my_dirPKcPN10handlerton15discovered_listE@Base 10.11.8
 _Z31find_and_block_conversion_to_sjP4ItemR18List_iterator_fastI17Item_in_subselectE@Base 10.11.8
 _Z31find_qualified_function_builderP3THD@Base 10.11.8
 _Z31fn_format_relative_to_data_homePcPKcS1_S1_@Base 10.11.8
 _Z31get_list_array_idx_for_endpointP14partition_infobb@Base 10.11.8
 _Z31ha_check_if_updates_are_ignoredP3THDP10handlertonPKc@Base 10.11.8
 _Z31is_connection_printable_in_jsonN12Explain_node23explain_connection_typeE@Base 10.11.8
 _Z31mark_or_conds_to_avoid_pushdownP4Item@Base 10.11.8
 _Z31open_tables_only_view_structureP3THDP10TABLE_LISTb@Base 10.11.8
 _Z31push_table_function_arg_contextP3LEXP11st_mem_root@Base 10.11.8
 _Z31rpl_slave_state_tostring_helperP6StringPK8rpl_gtidPb@Base 10.11.8
 _Z31setup_semijoin_dups_eliminationP4JOINyj@Base 10.11.8
 _Z31unique_write_to_file_with_countPhjP6Unique@Base 10.11.8
 _Z32TIME_to_longlong_datetime_packedPK13st_mysql_time@Base 10.11.8
 _Z32fill_check_table_metadata_fieldsP3THDP4ListI4ItemE@Base 10.11.8
 _Z32get_partition_field_store_lengthP5Field@Base 10.11.8
 _Z32get_system_variable_hash_recordsv@Base 10.11.8
 _Z32get_system_variable_hash_versionv@Base 10.11.8
 _Z32gtid_check_rpl_slave_state_tableP5TABLE@Base 10.11.8
 _Z32handle_connection_in_main_threadP7CONNECT@Base 10.11.8
 _Z32handle_sql2003_note184_exceptionP3THDP4ItembS2_@Base 10.11.8
 _Z32ignore_db_dirs_process_additionsv@Base 10.11.8
 _Z32mysql_sql_stmt_execute_immediateP3THD@Base 10.11.8
 _Z32mysqld_show_create_db_get_fieldsP3THDP4ListI4ItemE@Base 10.11.8
 _Z32push_new_name_resolution_contextP3THDP10TABLE_LISTS2_@Base 10.11.8
 _Z32rewrite_to_index_subquery_engineP4JOIN@Base 10.11.8
 _Z32setup_degenerate_jtbm_semi_joinsP4JOINP4ListI10TABLE_LISTERS1_I4ItemE@Base 10.11.8
 _Z32stmt_has_updated_non_trans_tablePK3THD@Base 10.11.8
 _Z33check_and_do_in_subquery_rewritesP4JOIN@Base 10.11.8
 _Z33check_join_cache_usage_for_tablesP4JOINyj@Base 10.11.8
 _Z33db_name_is_in_ignore_db_dirs_listPKc@Base 10.11.8
 _Z33execute_degenerate_jtbm_semi_joinP3THDP10TABLE_LISTP17Item_in_subselectR4ListI4ItemE@Base 10.11.8
 _Z33generate_partition_syntax_for_frmP3THDP14partition_infoPjP14HA_CREATE_INFOP10Alter_info@Base 10.11.8
 _Z33get_number_of_tables_at_top_levelP4JOIN@Base 10.11.8
 _Z33initialize_information_schema_aclv@Base 10.11.8
 _Z33is_eq_cond_injected_for_split_optP12Item_func_eq@Base 10.11.8
 _Z33switch_to_nullable_trigger_fieldsR4ListI4ItemEP5TABLE@Base 10.11.8
 _Z33tls_version_string_representationP3THDyP25st_mysql_const_lex_string@Base 10.11.8
 _Z33trans_has_updated_non_trans_tablePK3THD@Base 10.11.8
 _Z34TIME_from_longlong_datetime_packedP13st_mysql_timex@Base 10.11.8
 _Z34convert_charset_partition_constantP4ItemPK15charset_info_st@Base 10.11.8
 _Z34create_explain_query_if_not_existsP3LEXP11st_mem_root@Base 10.11.8
 _Z34fill_query_profile_statistics_infoP3THDP10TABLE_LISTP4Item@Base 10.11.8
 _Z34mysql_discard_or_import_tablespaceP3THDP10TABLE_LISTb@Base 10.11.8
 _Z34mysql_trans_commit_alter_copy_dataP3THD@Base 10.11.8
 _Z34read_record_func_for_rr_and_unpackP11READ_RECORD@Base 10.11.8
 _Z34set_field_to_null_with_conversionsP5Fieldb@Base 10.11.8
 _Z35compute_part_of_sort_key_for_equalsP4JOINP5TABLEP10Item_fieldP6BitmapILj64EE@Base 10.11.8
 _Z35copy_event_cache_to_file_and_reinitP11st_io_cacheP8_IO_FILE@Base 10.11.8
 _Z35create_internal_tmp_table_from_heapP3THDP5TABLEP18st_maria_columndefPS4_ibPb@Base 10.11.8
 _Z35fill_checksum_table_metadata_fieldsP3THDP4ListI4ItemE@Base 10.11.8
 _Z35get_partition_id_range_for_endpointP14partition_infobb@Base 10.11.8
 _Z35ha_check_and_coalesce_trx_read_onlyP3THDP11Ha_trx_infob@Base 10.11.8
 _Z35mysql_ha_set_explicit_lock_durationP3THD@Base 10.11.8
 _Z35mysql_trans_prepare_alter_copy_dataP3THD@Base 10.11.8
 _Z35opt_trace_disable_if_no_view_accessP3THDP10TABLE_LISTS2_@Base 10.11.8
 _Z35optimize_schema_tables_memory_usageR4ListI10TABLE_LISTE@Base 10.11.8
 _Z36and_new_conditions_to_optimized_condP3THDP4ItemPP10COND_EQUALR4ListIS1_EPNS1_11cond_resultE@Base 10.11.8
 _Z36calculate_cond_selectivity_for_tableP3THDP5TABLEPP4Item@Base 10.11.8
 _Z36check_duplic_insert_without_overlapsP3THDP5TABLE15enum_duplicates@Base 10.11.8
 _Z36convert_join_subqueries_to_semijoinsP4JOIN@Base 10.11.8
 _Z36convert_null_to_field_value_or_errorP5Field@Base 10.11.8
 _Z36convert_to_printable_required_lengthj@Base 10.11.8
 _Z36fill_record_n_invoke_before_triggersP3THDP5TABLEPP5FieldR4ListI4ItemEb14trg_event_type@Base 10.11.8
 _Z36fill_record_n_invoke_before_triggersP3THDP5TABLER4ListI4ItemES6_b14trg_event_type@Base 10.11.8
 _Z36mysql_ull_set_explicit_lock_durationP3THD@Base 10.11.8
 _Z36read_statistics_for_tables_if_neededP3THDP10TABLE_LIST@Base 10.11.8
 _Z37get_window_functions_required_cursorsP3THDR4ListI16Item_window_funcEPS1_I14Cursor_managerE@Base 10.11.8
 _Z37opt_trace_disable_if_no_tables_accessP3THDP10TABLE_LIST@Base 10.11.8
 _Z38check_that_all_fields_are_given_valuesP3THDP5TABLEP10TABLE_LIST@Base 10.11.8
 _Z38remove_pushed_top_conjuncts_for_havingP3THDP4Item@Base 10.11.8
 _Z39get_list_array_idx_for_endpoint_charsetP14partition_infobb@Base 10.11.8
 _Z39get_partition_id_cols_list_for_endpointP14partition_infobbj@Base 10.11.8
 _Z40Type_collection_geometry_handler_by_nameRK25st_mysql_const_lex_string@Base 10.11.8
 _Z40get_partition_id_cols_range_for_endpointP14partition_infobbj@Base 10.11.8
 _Z40grouping_fields_in_the_in_subq_left_partP3THDP13st_select_lexP4ListI10Field_pairEP8st_order@Base 10.11.8
 _Z40ha_rollback_to_savepoint_can_release_mdlP3THD@Base 10.11.8
 _Z42multi_delete_set_locks_and_link_aux_tablesP3LEX@Base 10.11.8
 _Z42switch_defaults_to_nullable_trigger_fieldsP5TABLE@Base 10.11.8
 _Z45fix_semijoin_strategies_for_picked_join_orderP4JOIN@Base 10.11.8
 _Z46create_table_set_open_action_and_adjust_tablesP3LEX@Base 10.11.8
 _Z47opt_trace_disable_if_no_security_context_accessP3THD@Base 10.11.8
 _Z47opt_trace_disable_if_no_stored_proc_func_accessP3THDP7sp_head@Base 10.11.8
 _Z5wreckjPKc@Base 10.11.8
 _Z6ORAlexP7YYSTYPEP3THD@Base 10.11.8
 _Z6calc_tPjS_S_S_PKN10Gcalc_heap4InfoES3_S3_S3_@Base 10.11.8
 _Z6ha_endv@Base 10.11.8
 _Z7ha_initv@Base 10.11.8
 _Z7in_listP17Query_cache_blockS0_PKc@Base 10.11.8
 _Z7key_cmpP16st_key_part_infoPKhj@Base 10.11.8
 _Z7lex_endP3LEX@Base 10.11.8
 _Z7readfrmPKcPPKhPm@Base 10.11.8
 _Z7sortcmpPK13Binary_stringS1_PK15charset_info_st@Base 10.11.8
 _Z8MYSQLlexP7YYSTYPEP3THD@Base 10.11.8
 _Z8ORAparseP3THD@Base 10.11.8
 _Z8closefrmP5TABLE@Base 10.11.8
 _Z8do_cryptPKhjPhPjP20st_encryption_schemejjjyi@Base 10.11.8
 _Z8err_convPcjPKcjPK15charset_info_st@Base 10.11.8
 _Z8filesortP3THDP5TABLEP8FilesortP16Filesort_trackerP4JOINy@Base 10.11.8
 _Z8find_setPK10st_typelibPKcmPK15charset_info_stPPcPjPb@Base 10.11.8
 _Z8find_udfPKcmb@Base 10.11.8
 _Z8free_udfP11st_udf_func@Base 10.11.8
 _Z8is_equalPK25st_mysql_const_lex_stringS1_@Base 10.11.8
 _Z8key_copyPhPKhPK6st_keyjb@Base 10.11.8
 _Z8lex_freev@Base 10.11.8
 _Z8lex_initv@Base 10.11.8
 _Z8mdl_initv@Base 10.11.8
 _Z8mysql_doP3THDR4ListI4ItemE@Base 10.11.8
 _Z8pack_rowP5TABLEPK9st_bitmapPhPKh@Base 10.11.8
 _Z8sortcmp2PvPK6StringS2_@Base 10.11.8
 _Z8tc_purgev@Base 10.11.8
 _Z8tdc_initv@Base 10.11.8
 _Z8udf_freev@Base 10.11.8
 _Z8udf_initv@Base 10.11.8
 _Z9bins_dumpv@Base 10.11.8
 _Z9bootstrapP13st_mysql_file@Base 10.11.8
 _Z9calc_weekPK13st_mysql_timejPj@Base 10.11.8
 _Z9cmp_itemsP4ItemS0_@Base 10.11.8
 _Z9deletefrmPKc@Base 10.11.8
 _Z9find_typePK10st_typelibPKcmb@Base 10.11.8
 _Z9free_listP6I_ListI8i_stringE@Base 10.11.8
 _Z9get_fieldP11st_mem_rootP5Field@Base 10.11.8
 _Z9get_fieldP11st_mem_rootP5FieldP6String@Base 10.11.8
 _Z9get_wsrepv@Base 10.11.8
 _Z9in_blocksP17Query_cache_block@Base 10.11.8
 _Z9item_initv@Base 10.11.8
 _Z9lex_startP3THD@Base 10.11.8
 _Z9pack_timePK13st_mysql_time@Base 10.11.8
 _Z9parse_sqlP3THDP12Parser_stateP19Object_creation_ctxb@Base 10.11.8
 _Z9reset_mqhP8LEX_USERb@Base 10.11.8
 _Z9reset_thdP3THD@Base 10.11.8
 _Z9stringcmpPK13Binary_stringS1_@Base 10.11.8
 _Z9tdc_purgeb@Base 10.11.8
 _Z9week_modej@Base 10.11.8
 _Z9writefilePKcS0_S0_bPKhm@Base 10.11.8
 _Z9wsrep_logPFvPKczES0_z@Base 10.11.8
 _ZGVN3fmt2v76detail10basic_dataIvE32dragonbox_pow10_significands_128E@Base 10.11.8
 _ZGVZN24Type_handler_json_common15set_format_nameEP28Send_field_extended_metadataE3fmt@Base 10.11.8
 _ZGVZN8Datetime4zeroEvE2nr@Base 10.11.8
 _ZGVZNK20Item_func_json_valid30set_format_by_check_constraintEP28Send_field_extended_metadataE3fmt@Base 10.11.8
 _ZN10Alter_info13supports_lockEP3THDPK18Alter_inplace_info@Base 10.11.8
 _ZN10Alter_info18set_requested_lockEPK25st_mysql_const_lex_string@Base 10.11.8
 _ZN10Alter_info18supports_algorithmEP3THDPK18Alter_inplace_info@Base 10.11.8
 _ZN10Alter_info19add_stat_drop_indexEP3THDPK25st_mysql_const_lex_string@Base 10.11.8
 _ZN10Alter_info19add_stat_drop_indexEP6st_keybP11st_mem_root@Base 10.11.8
 _ZN10Alter_info22collect_renamed_fieldsEP3THD@Base 10.11.8
 _ZN10Alter_info23set_requested_algorithmENS_26enum_alter_table_algorithmE@Base 10.11.8
 _ZN10Alter_info23set_requested_algorithmEPK25st_mysql_const_lex_string@Base 10.11.8
 _ZN10Alter_info32apply_statistics_deletes_renamesEP3THDP5TABLE@Base 10.11.8
 _ZN10Alter_info5resetEv@Base 10.11.8
 _ZN10Alter_infoC1ERKS_P11st_mem_root@Base 10.11.8
 _ZN10Alter_infoC2ERKS_P11st_mem_root@Base 10.11.8
 _ZN10Apc_target13make_apc_callEP3THDPNS_8Apc_callEiPb@Base 10.11.8
 _ZN10Apc_target15dequeue_requestEPNS_12Call_requestE@Base 10.11.8
 _ZN10Apc_target15enqueue_requestEPNS_12Call_requestE@Base 10.11.8
 _ZN10Apc_target20process_apc_requestsEb@Base 10.11.8
 _ZN10Apc_target4initEP14st_mysql_mutex@Base 10.11.8
 _ZN10Copy_field3setEP5FieldS1_b@Base 10.11.8
 _ZN10Copy_field3setEPhP5Field@Base 10.11.8
 _ZN10Cursor_ref10print_funcEP6StringRK25st_mysql_const_lex_string@Base 10.11.8
 _ZN10Cursor_ref24get_open_cursor_or_errorEv@Base 10.11.8
 _ZN10Dep_module13iterator_sizeE@Base 10.11.8
 _ZN10Dep_module8is_finalEv@Base 10.11.8
 _ZN10DsMrr_impl10do_nothingEPv@Base 10.11.8
 _ZN10DsMrr_impl10dsmrr_infoEjjjjPjS0_P13Cost_estimate@Base 10.11.8
 _ZN10DsMrr_impl10dsmrr_initEP7handlerP15st_range_seq_ifPvjjP17st_handler_buffer@Base 10.11.8
 _ZN10DsMrr_impl10dsmrr_nextEPPv@Base 10.11.8
 _ZN10DsMrr_impl11dsmrr_closeEv@Base 10.11.8
 _ZN10DsMrr_impl14check_cpk_scanEP3THDP11TABLE_SHAREjj@Base 10.11.8
 _ZN10DsMrr_impl15choose_mrr_implEjyPjS0_P13Cost_estimate@Base 10.11.8
 _ZN10DsMrr_impl16dsmrr_info_constEjP15st_range_seq_ifPvjPjS3_P13Cost_estimate@Base 10.11.8
 _ZN10DsMrr_impl18dsmrr_explain_infoEjPcm@Base 10.11.8
 _ZN10DsMrr_impl18reset_buffer_sizesEPv@Base 10.11.8
 _ZN10DsMrr_impl18setup_two_handlersEv@Base 10.11.8
 _ZN10DsMrr_impl20close_second_handlerEv@Base 10.11.8
 _ZN10DsMrr_impl20setup_buffer_sharingEjm@Base 10.11.8
 _ZN10DsMrr_impl23get_disk_sweep_mrr_costEjyjPjjP13Cost_estimate@Base 10.11.8
 _ZN10DsMrr_impl25redistribute_buffer_spaceEPv@Base 10.11.8
 _ZN10Eq_creatorD0Ev@Base 10.11.8
 _ZN10Eq_creatorD1Ev@Base 10.11.8
 _ZN10Eq_creatorD2Ev@Base 10.11.8
 _ZN10Field_blob10copy_valueEPS_@Base 10.11.8
 _ZN10Field_blob10update_maxEP5Fieldb@Base 10.11.8
 _ZN10Field_blob10update_minEP5Fieldb@Base 10.11.8
 _ZN10Field_blob11sort_stringEPhj@Base 10.11.8
 _ZN10Field_blob11store_fieldEP5Field@Base 10.11.8
 _ZN10Field_blob11val_decimalEP10my_decimal@Base 10.11.8
 _ZN10Field_blob12do_conv_blobEP10Copy_field@Base 10.11.8
 _ZN10Field_blob12do_copy_blobEP10Copy_field@Base 10.11.8
 _ZN10Field_blob12reset_fieldsEv@Base 10.11.8
 _ZN10Field_blob12store_lengthEPhjj@Base 10.11.8
 _ZN10Field_blob12value_lengthEv@Base 10.11.8
 _ZN10Field_blob13hash_not_nullEP6Hasher@Base 10.11.8
 _ZN10Field_blob13new_key_fieldEP11st_mem_rootP5TABLEPhjS4_j@Base 10.11.8
 _ZN10Field_blob13set_key_imageEPKhj@Base 10.11.8
 _ZN10Field_blob15make_send_fieldEP10Send_field@Base 10.11.8
 _ZN10Field_blob15print_key_valueEP6Stringj@Base 10.11.8
 _ZN10Field_blob17packed_col_lengthEPKhj@Base 10.11.8
 _ZN10Field_blob21max_packed_col_lengthEj@Base 10.11.8
 _ZN10Field_blob34make_empty_rec_store_default_valueEP3THDP4Item@Base 10.11.8
 _ZN10Field_blob35store_from_statistical_minmax_fieldEP5FieldP6StringP11st_mem_root@Base 10.11.8
 _ZN10Field_blob4freeEv@Base 10.11.8
 _ZN10Field_blob4packEPhPKhj@Base 10.11.8
 _ZN10Field_blob5resetEv@Base 10.11.8
 _ZN10Field_blob5storeEPKcmPK15charset_info_st@Base 10.11.8
 _ZN10Field_blob6unpackEPhPKhS2_j@Base 10.11.8
 _ZN10Field_blob7val_intEv@Base 10.11.8
 _ZN10Field_blob7val_strEP6StringS1_@Base 10.11.8
 _ZN10Field_blob8val_realEv@Base 10.11.8
 _ZN10Field_blobC1EPhS0_hN5Field5utypeEPK25st_mysql_const_lex_stringP11TABLE_SHAREjRK11DTCollation@Base 10.11.8
 _ZN10Field_blobC2EPhS0_hN5Field5utypeEPK25st_mysql_const_lex_stringP11TABLE_SHAREjRK11DTCollation@Base 10.11.8
 _ZN10Field_blobD0Ev@Base 10.11.8
 _ZN10Field_blobD1Ev@Base 10.11.8
 _ZN10Field_blobD2Ev@Base 10.11.8
 _ZN10Field_date10store_TIMEEPK13st_mysql_time@Base 10.11.8
 _ZN10Field_date11sort_stringEPhj@Base 10.11.8
 _ZN10Field_date4packEPhPKhj@Base 10.11.8
 _ZN10Field_date4sendEP8Protocol@Base 10.11.8
 _ZN10Field_date5resetEv@Base 10.11.8
 _ZN10Field_date6unpackEPhPKhS2_j@Base 10.11.8
 _ZN10Field_date7val_intEv@Base 10.11.8
 _ZN10Field_date7val_strEP6StringS1_@Base 10.11.8
 _ZN10Field_date8get_dateEP13st_mysql_time11date_mode_t@Base 10.11.8
 _ZN10Field_date8val_realEv@Base 10.11.8
 _ZN10Field_dateD0Ev@Base 10.11.8
 _ZN10Field_dateD1Ev@Base 10.11.8
 _ZN10Field_dateD2Ev@Base 10.11.8
 _ZN10Field_enum10store_typeEy@Base 10.11.8
 _ZN10Field_enum11sort_stringEPhj@Base 10.11.8
 _ZN10Field_enum11store_fieldEP5Field@Base 10.11.8
 _ZN10Field_enum13do_field_enumEP10Copy_field@Base 10.11.8
 _ZN10Field_enum13save_in_fieldEP5Field@Base 10.11.8
 _ZN10Field_enum14make_new_fieldEP11st_mem_rootP5TABLEb@Base 10.11.8
 _ZN10Field_enum20make_empty_rec_resetEP3THD@Base 10.11.8
 _ZN10Field_enum4packEPhPKhj@Base 10.11.8
 _ZN10Field_enum5storeEPKcmPK15charset_info_st@Base 10.11.8
 _ZN10Field_enum5storeEd@Base 10.11.8
 _ZN10Field_enum5storeExb@Base 10.11.8
 _ZN10Field_enum6unpackEPhPKhS2_j@Base 10.11.8
 _ZN10Field_enum7val_intEv@Base 10.11.8
 _ZN10Field_enum7val_strEP6StringS1_@Base 10.11.8
 _ZN10Field_enum8val_realEv@Base 10.11.8
 _ZN10Field_enumD0Ev@Base 10.11.8
 _ZN10Field_enumD1Ev@Base 10.11.8
 _ZN10Field_enumD2Ev@Base 10.11.8
 _ZN10Field_geom13store_decimalEPK10my_decimal@Base 10.11.8
 _ZN10Field_geom15make_send_fieldEP10Send_field@Base 10.11.8
 _ZN10Field_geom15print_key_valueEP6Stringj@Base 10.11.8
 _ZN10Field_geom18load_data_set_nullEP3THD@Base 10.11.8
 _ZN10Field_geom21load_data_set_no_dataEP3THDb@Base 10.11.8
 _ZN10Field_geom5resetEv@Base 10.11.8
 _ZN10Field_geom5storeEPKcmPK15charset_info_st@Base 10.11.8
 _ZN10Field_geom5storeEd@Base 10.11.8
 _ZN10Field_geom5storeExb@Base 10.11.8
 _ZN10Field_geomD0Ev@Base 10.11.8
 _ZN10Field_geomD1Ev@Base 10.11.8
 _ZN10Field_geomD2Ev@Base 10.11.8
 _ZN10Field_long11sort_stringEPhj@Base 10.11.8
 _ZN10Field_long4packEPhPKhj@Base 10.11.8
 _ZN10Field_long4sendEP8Protocol@Base 10.11.8
 _ZN10Field_long5resetEv@Base 10.11.8
 _ZN10Field_long5storeEPKcmPK15charset_info_st@Base 10.11.8
 _ZN10Field_long5storeEd@Base 10.11.8
 _ZN10Field_long5storeExb@Base 10.11.8
 _ZN10Field_long6unpackEPhPKhS2_j@Base 10.11.8
 _ZN10Field_long7val_intEv@Base 10.11.8
 _ZN10Field_long7val_strEP6StringS1_@Base 10.11.8
 _ZN10Field_long8val_realEv@Base 10.11.8
 _ZN10Field_longD0Ev@Base 10.11.8
 _ZN10Field_longD1Ev@Base 10.11.8
 _ZN10Field_longD2Ev@Base 10.11.8
 _ZN10Field_null11sort_stringEPhj@Base 10.11.8
 _ZN10Field_null11val_decimalEP10my_decimal@Base 10.11.8
 _ZN10Field_null13store_decimalEPK10my_decimal@Base 10.11.8
 _ZN10Field_null17move_field_offsetEx@Base 10.11.8
 _ZN10Field_null4nullE@Base 10.11.8
 _ZN10Field_null5resetEv@Base 10.11.8
 _ZN10Field_null5storeEd@Base 10.11.8
 _ZN10Field_null5storeExb@Base 10.11.8
 _ZN10Field_null7val_intEv@Base 10.11.8
 _ZN10Field_null7val_strEP6StringS1_@Base 10.11.8
 _ZN10Field_null8val_boolEv@Base 10.11.8
 _ZN10Field_null8val_realEv@Base 10.11.8
 _ZN10Field_nullD0Ev@Base 10.11.8
 _ZN10Field_nullD1Ev@Base 10.11.8
 _ZN10Field_nullD2Ev@Base 10.11.8
 _ZN10Field_real10get_doubleEPKcmPK15charset_info_stPi@Base 10.11.8
 _ZN10Field_real11val_decimalEP10my_decimal@Base 10.11.8
 _ZN10Field_real13save_in_fieldEP5Field@Base 10.11.8
 _ZN10Field_real13store_decimalEPK10my_decimal@Base 10.11.8
 _ZN10Field_real14store_time_decEPK13st_mysql_timej@Base 10.11.8
 _ZN10Field_real20get_equal_const_itemEP3THDRKN12Value_source7ContextEP4Item@Base 10.11.8
 _ZN10Field_real8get_dateEP13st_mysql_time11date_mode_t@Base 10.11.8
 _ZN10Field_real8val_boolEv@Base 10.11.8
 _ZN10Field_time10val_nativeEP6Native@Base 10.11.8
 _ZN10Field_time11set_curdaysEP3THD@Base 10.11.8
 _ZN10Field_time12store_nativeERK6Native@Base 10.11.8
 _ZN10Field_time13do_field_timeEP10Copy_field@Base 10.11.8
 _ZN10Field_time13new_key_fieldEP11st_mem_rootP5TABLEPhjS4_j@Base 10.11.8
 _ZN10Field_time13store_decimalEPK10my_decimal@Base 10.11.8
 _ZN10Field_time14store_time_decEPK13st_mysql_timej@Base 10.11.8
 _ZN10Field_time20get_equal_const_itemEP3THDRKN12Value_source7ContextEP4Item@Base 10.11.8
 _ZN10Field_time23store_TIME_with_warningEPK4TimePK7ErrConvi@Base 10.11.8
 _ZN10Field_time28check_zero_in_date_with_warnE11date_mode_t@Base 10.11.8
 _ZN10Field_time32can_be_substituted_to_equal_itemERKN12Value_source7ContextEPK10Item_equal@Base 10.11.8
 _ZN10Field_time4sendEP8Protocol@Base 10.11.8
 _ZN10Field_time5storeEPKcmPK15charset_info_st@Base 10.11.8
 _ZN10Field_time5storeEd@Base 10.11.8
 _ZN10Field_time5storeExb@Base 10.11.8
 _ZN10Field_time7val_strEP6StringS1_@Base 10.11.8
 _ZN10Field_tiny11sort_stringEPhj@Base 10.11.8
 _ZN10Field_tiny4packEPhPKhj@Base 10.11.8
 _ZN10Field_tiny4sendEP8Protocol@Base 10.11.8
 _ZN10Field_tiny5resetEv@Base 10.11.8
 _ZN10Field_tiny5storeEPKcmPK15charset_info_st@Base 10.11.8
 _ZN10Field_tiny5storeEd@Base 10.11.8
 _ZN10Field_tiny5storeExb@Base 10.11.8
 _ZN10Field_tiny6unpackEPhPKhS2_j@Base 10.11.8
 _ZN10Field_tiny7val_intEv@Base 10.11.8
 _ZN10Field_tiny7val_strEP6StringS1_@Base 10.11.8
 _ZN10Field_tiny8val_realEv@Base 10.11.8
 _ZN10Field_tinyD0Ev@Base 10.11.8
 _ZN10Field_tinyD1Ev@Base 10.11.8
 _ZN10Field_tinyD2Ev@Base 10.11.8
 _ZN10Field_year14store_time_decEPK13st_mysql_timej@Base 10.11.8
 _ZN10Field_year4sendEP8Protocol@Base 10.11.8
 _ZN10Field_year5storeEPKcmPK15charset_info_st@Base 10.11.8
 _ZN10Field_year5storeEd@Base 10.11.8
 _ZN10Field_year5storeExb@Base 10.11.8
 _ZN10Field_year7val_intEv@Base 10.11.8
 _ZN10Field_year7val_strEP6StringS1_@Base 10.11.8
 _ZN10Field_year8get_dateEP13st_mysql_time11date_mode_t@Base 10.11.8
 _ZN10Field_year8val_realEv@Base 10.11.8
 _ZN10Field_yearD0Ev@Base 10.11.8
 _ZN10Field_yearD1Ev@Base 10.11.8
 _ZN10Field_yearD2Ev@Base 10.11.8
 _ZN10Gcalc_heap10set_extentEdddd@Base 10.11.8
 _ZN10Gcalc_heap14new_point_infoEddj@Base 10.11.8
 _ZN10Gcalc_heap15free_point_infoEPNS_4InfoEPPN14Gcalc_dyn_list4ItemE@Base 10.11.8
 _ZN10Gcalc_heap17prepare_operationEv@Base 10.11.8
 _ZN10Gcalc_heap5resetEv@Base 10.11.8
 _ZN10Ge_creatorD0Ev@Base 10.11.8
 _ZN10Ge_creatorD1Ev@Base 10.11.8
 _ZN10Ge_creatorD2Ev@Base 10.11.8
 _ZN10Gt_creatorD0Ev@Base 10.11.8
 _ZN10Gt_creatorD1Ev@Base 10.11.8
 _ZN10Gt_creatorD2Ev@Base 10.11.8
 _ZN10Index_hint5printEP3THDP6String@Base 10.11.8
 _ZN10Index_stat17store_stat_fieldsEv@Base 10.11.8
 _ZN10Index_stat22change_full_table_nameEPK25st_mysql_const_lex_stringS2_@Base 10.11.8
 _ZN10Index_statD0Ev@Base 10.11.8
 _ZN10Index_statD1Ev@Base 10.11.8
 _ZN10Index_statD2Ev@Base 10.11.8
 _ZN10Item_cache22safe_charset_converterEP3THDPK15charset_info_st@Base 10.11.8
 _ZN10Item_cache5printEP6String15enum_query_type@Base 10.11.8
 _ZN10Item_cache5storeEP4Item@Base 10.11.8
 _ZN10Item_cache8set_nullEv@Base 10.11.8
 _ZN10Item_equal10fix_fieldsEP3THDPP4Item@Base 10.11.8
 _ZN10Item_equal11get_mm_treeEP15RANGE_OPT_PARAMPP4Item@Base 10.11.8
 _ZN10Item_equal12update_constEP3THD@Base 10.11.8
 _ZN10Item_equal14add_key_fieldsEP4JOINPP9KEY_FIELDPjyPP14SARGABLE_PARAM@Base 10.11.8
 _ZN10Item_equal15merge_into_listEP3THDP4ListIS_Ebb@Base 10.11.8
 _ZN10Item_equal16merge_with_checkEP3THDPS_b@Base 10.11.8
 _ZN10Item_equal17build_equal_itemsEP3THDP10COND_EQUALbPS3_@Base 10.11.8
 _ZN10Item_equal17excl_dep_on_tableEy@Base 10.11.8
 _ZN10Item_equal18fix_length_and_decEP3THD@Base 10.11.8
 _ZN10Item_equal18update_used_tablesEv@Base 10.11.8
 _ZN10Item_equal20count_sargable_condsEPv@Base 10.11.8
 _ZN10Item_equal20find_not_null_fieldsEy@Base 10.11.8
 _ZN10Item_equal26create_pushable_equalitiesEP3THDP4ListI4ItemEMS3_FbPhES6_b@Base 10.11.8
 _ZN10Item_equal27excl_dep_on_grouping_fieldsEP13st_select_lex@Base 10.11.8
 _ZN10Item_equal29excl_dep_on_in_subq_left_partEP17Item_in_subselect@Base 10.11.8
 _ZN10Item_equal29multiple_equality_transformerEP3THDPh@Base 10.11.8
 _ZN10Item_equal4sortEPFiP4ItemS1_PvES2_@Base 10.11.8
 _ZN10Item_equal4walkEM4ItemFbPvEbS1_@Base 10.11.8
 _ZN10Item_equal5mergeEP3THDPS_@Base 10.11.8
 _ZN10Item_equal5printEP6String15enum_query_type@Base 10.11.8
 _ZN10Item_equal7cleanupEv@Base 10.11.8
 _ZN10Item_equal7val_intEv@Base 10.11.8
 _ZN10Item_equal8containsEP5Field@Base 10.11.8
 _ZN10Item_equal8get_copyEP3THD@Base 10.11.8
 _ZN10Item_equal9add_constEP3THDP4Item@Base 10.11.8
 _ZN10Item_equal9get_firstEP13st_join_tableP4Item@Base 10.11.8
 _ZN10Item_equal9transformEP3THDM4ItemFPS2_S1_PhES4_@Base 10.11.8
 _ZN10Item_equalC1EP3THDPK12Type_handlerP4ItemS6_b@Base 10.11.8
 _ZN10Item_equalC1EP3THDPS_@Base 10.11.8
 _ZN10Item_equalC2EP3THDPK12Type_handlerP4ItemS6_b@Base 10.11.8
 _ZN10Item_equalC2EP3THDPS_@Base 10.11.8
 _ZN10Item_equalD0Ev@Base 10.11.8
 _ZN10Item_equalD1Ev@Base 10.11.8
 _ZN10Item_equalD2Ev@Base 10.11.8
 _ZN10Item_field10fix_fieldsEP3THDPP4Item@Base 10.11.8
 _ZN10Item_field10str_resultEP6String@Base 10.11.8
 _ZN10Item_field10val_nativeEP3THDP6Native@Base 10.11.8
 _ZN10Item_field10val_resultEv@Base 10.11.8
 _ZN10Item_field11reset_fieldEP5Field@Base 10.11.8
 _ZN10Item_field11save_resultEP5Field@Base 10.11.8
 _ZN10Item_field11val_decimalEP10my_decimal@Base 10.11.8
 _ZN10Item_field13hash_not_nullEP6Hasher@Base 10.11.8
 _ZN10Item_field13save_in_fieldEP5Fieldb@Base 10.11.8
 _ZN10Item_field14get_item_equalEv@Base 10.11.8
 _ZN10Item_field14is_null_resultEv@Base 10.11.8
 _ZN10Item_field14set_item_equalEP10Item_equal@Base 10.11.8
 _ZN10Item_field14val_int_resultEv@Base 10.11.8
 _ZN10Item_field15find_item_equalEP10COND_EQUAL@Base 10.11.8
 _ZN10Item_field15fix_outer_fieldEP3THDPP5FieldPP4Item@Base 10.11.8
 _ZN10Item_field15get_date_resultEP3THDP13st_mysql_time11date_mode_t@Base 10.11.8
 _ZN10Item_field15is_result_fieldEv@Base 10.11.8
 _ZN10Item_field15make_send_fieldEP3THDP10Send_field@Base 10.11.8
 _ZN10Item_field15val_bool_resultEv@Base 10.11.8
 _ZN10Item_field15val_time_packedEP3THD@Base 10.11.8
 _ZN10Item_field16val_int_endpointEbPb@Base 10.11.8
 _ZN10Item_field17build_equal_itemsEP3THDP10COND_EQUALbPS3_@Base 10.11.8
 _ZN10Item_field17excl_dep_on_tableEy@Base 10.11.8
 _ZN10Item_field17fix_after_pulloutEP13st_select_lexPP4Itemb@Base 10.11.8
 _ZN10Item_field17save_org_in_fieldEP5FieldPFiS1_S1_E@Base 10.11.8
 _ZN10Item_field17update_null_valueEv@Base 10.11.8
 _ZN10Item_field17val_native_resultEP3THDP6Native@Base 10.11.8
 _ZN10Item_field18get_tmp_table_itemEP3THD@Base 10.11.8
 _ZN10Item_field18load_data_set_nullEP3THDPK15Load_data_param@Base 10.11.8
 _ZN10Item_field18update_used_tablesEv@Base 10.11.8
 _ZN10Item_field18val_decimal_resultEP10my_decimal@Base 10.11.8
 _ZN10Item_field19create_tmp_field_exEP11st_mem_rootP5TABLEP13Tmp_field_srcPK15Tmp_field_param@Base 10.11.8
 _ZN10Item_field19load_data_set_valueEP3THDPKcjPK15Load_data_param@Base 10.11.8
 _ZN10Item_field19replace_equal_fieldEP3THDPh@Base 10.11.8
 _ZN10Item_field19val_datetime_packedEP3THD@Base 10.11.8
 _ZN10Item_field20find_not_null_fieldsEy@Base 10.11.8
 _ZN10Item_field20get_load_data_outvarEv@Base 10.11.8
 _ZN10Item_field20save_in_result_fieldEb@Base 10.11.8
 _ZN10Item_field21field_for_view_updateEv@Base 10.11.8
 _ZN10Item_field21load_data_set_no_dataEP3THDPK15Load_data_param@Base 10.11.8
 _ZN10Item_field21update_vcol_processorEPv@Base 10.11.8
 _ZN10Item_field22check_index_dependenceEPv@Base 10.11.8
 _ZN10Item_field22propagate_equal_fieldsEP3THDRKN12Value_source7ContextEP10COND_EQUAL@Base 10.11.8
 _ZN10Item_field23rename_fields_processorEPv@Base 10.11.8
 _ZN10Item_field23setup_fast_field_copierEP5Field@Base 10.11.8
 _ZN10Item_field24register_field_in_bitmapEPv@Base 10.11.8
 _ZN10Item_field24set_refers_to_temp_tableEv@Base 10.11.8
 _ZN10Item_field24update_value_transformerEP3THDPh@Base 10.11.8
 _ZN10Item_field25check_vcol_func_processorEPv@Base 10.11.8
 _ZN10Item_field25unknown_splocal_processorEPv@Base 10.11.8
 _ZN10Item_field26add_field_to_set_processorEPv@Base 10.11.8
 _ZN10Item_field26register_field_in_read_mapEPv@Base 10.11.8
 _ZN10Item_field27excl_dep_on_grouping_fieldsEP13st_select_lex@Base 10.11.8
 _ZN10Item_field27register_field_in_write_mapEPv@Base 10.11.8
 _ZN10Item_field28collect_item_field_processorEPv@Base 10.11.8
 _ZN10Item_field29excl_dep_on_in_subq_left_partEP17Item_in_subselect@Base 10.11.8
 _ZN10Item_field30check_partition_func_processorEPv@Base 10.11.8
 _ZN10Item_field30enumerate_field_refs_processorEPv@Base 10.11.8
 _ZN10Item_field30update_table_bitmaps_processorEPv@Base 10.11.8
 _ZN10Item_field31check_valid_arguments_processorEPv@Base 10.11.8
 _ZN10Item_field32check_field_expression_processorEPv@Base 10.11.8
 _ZN10Item_field32create_tmp_field_from_item_fieldEP11st_mem_rootP5TABLEP8Item_refPK15Tmp_field_param@Base 10.11.8
 _ZN10Item_field33find_item_in_field_list_processorEPv@Base 10.11.8
 _ZN10Item_field33set_fields_as_dependent_processorEPv@Base 10.11.8
 _ZN10Item_field34cleanup_excluding_fields_processorEPv@Base 10.11.8
 _ZN10Item_field35derived_field_transformer_for_whereEP3THDPh@Base 10.11.8
 _ZN10Item_field35in_subq_field_transformer_for_whereEP3THDPh@Base 10.11.8
 _ZN10Item_field35post_fix_fields_part_expr_processorEPv@Base 10.11.8
 _ZN10Item_field35switch_to_nullable_fields_processorEPv@Base 10.11.8
 _ZN10Item_field36derived_field_transformer_for_havingEP3THDPh@Base 10.11.8
 _ZN10Item_field36grouping_field_transformer_for_whereEP3THDPh@Base 10.11.8
 _ZN10Item_field36in_subq_field_transformer_for_havingEP3THDPh@Base 10.11.8
 _ZN10Item_field40cleanup_excluding_const_fields_processorEPv@Base 10.11.8
 _ZN10Item_field4sendEP8ProtocolP8st_value@Base 10.11.8
 _ZN10Item_field5printEP6String15enum_query_type@Base 10.11.8
 _ZN10Item_field7cleanupEv@Base 10.11.8
 _ZN10Item_field7is_nullEv@Base 10.11.8
 _ZN10Item_field7val_intEv@Base 10.11.8
 _ZN10Item_field7val_strEP6String@Base 10.11.8
 _ZN10Item_field8get_copyEP3THD@Base 10.11.8
 _ZN10Item_field8get_dateEP3THDP13st_mysql_time11date_mode_t@Base 10.11.8
 _ZN10Item_field8val_realEv@Base 10.11.8
 _ZN10Item_field9set_fieldEP5Field@Base 10.11.8
 _ZN10Item_fieldC1EP3THDP23Name_resolution_contextP5Field@Base 10.11.8
 _ZN10Item_fieldC1EP3THDP23Name_resolution_contextRK25st_mysql_const_lex_stringS6_S6_@Base 10.11.8
 _ZN10Item_fieldC1EP3THDP5Field@Base 10.11.8
 _ZN10Item_fieldC1EP3THDPS_@Base 10.11.8
 _ZN10Item_fieldC2EP3THDP23Name_resolution_contextP5Field@Base 10.11.8
 _ZN10Item_fieldC2EP3THDP23Name_resolution_contextRK25st_mysql_const_lex_stringS6_S6_@Base 10.11.8
 _ZN10Item_fieldC2EP3THDP5Field@Base 10.11.8
 _ZN10Item_fieldC2EP3THDPS_@Base 10.11.8
 _ZN10Item_fieldD0Ev@Base 10.11.8
 _ZN10Item_fieldD1Ev@Base 10.11.8
 _ZN10Item_fieldD2Ev@Base 10.11.8
 _ZN10Item_float10clone_itemEP3THD@Base 10.11.8
 _ZN10Item_float11val_decimalEP10my_decimal@Base 10.11.8
 _ZN10Item_float13save_in_fieldEP5Fieldb@Base 10.11.8
 _ZN10Item_float3negEP3THD@Base 10.11.8
 _ZN10Item_float5printEP6String15enum_query_type@Base 10.11.8
 _ZN10Item_float7val_intEv@Base 10.11.8
 _ZN10Item_float7val_strEP6String@Base 10.11.8
 _ZN10Item_float8get_copyEP3THD@Base 10.11.8
 _ZN10Item_float8val_realEv@Base 10.11.8
 _ZN10Item_floatC1EP3THDPKcm@Base 10.11.8
 _ZN10Item_floatC2EP3THDPKcm@Base 10.11.8
 _ZN10Item_floatD0Ev@Base 10.11.8
 _ZN10Item_floatD1Ev@Base 10.11.8
 _ZN10Item_floatD2Ev@Base 10.11.8
 _ZN10Item_ident24change_context_processorEPv@Base 10.11.8
 _ZN10Item_ident27collect_outer_ref_processorEPv@Base 10.11.8
 _ZN10Item_ident27remove_dependence_processorEPv@Base 10.11.8
 _ZN10Item_ident5printEP6String15enum_query_type@Base 10.11.8
 _ZN10Item_ident7cleanupEv@Base 10.11.8
 _ZN10Item_identC1EP3THDP10TABLE_LISTRK25st_mysql_const_lex_string@Base 10.11.8
 _ZN10Item_identC1EP3THDP23Name_resolution_contextRK25st_mysql_const_lex_stringS6_S6_@Base 10.11.8
 _ZN10Item_identC1EP3THDPS_@Base 10.11.8
 _ZN10Item_identC2EP3THDP10TABLE_LISTRK25st_mysql_const_lex_string@Base 10.11.8
 _ZN10Item_identC2EP3THDP23Name_resolution_contextRK25st_mysql_const_lex_stringS6_S6_@Base 10.11.8
 _ZN10Item_identC2EP3THDPS_@Base 10.11.8
 _ZN10Item_param10clone_itemEP3THD@Base 10.11.8
 _ZN10Item_param10set_doubleEd@Base 10.11.8
 _ZN10Item_param10set_ignoreEv@Base 10.11.8
 _ZN10Item_param10val_nativeEP3THDP6Native@Base 10.11.8
 _ZN10Item_param11set_decimalEPK10my_decimalb@Base 10.11.8
 _ZN10Item_param11set_decimalEPKcm@Base 10.11.8
 _ZN10Item_param11set_defaultEv@Base 10.11.8
 _ZN10Item_param11sync_clonesEv@Base 10.11.8
 _ZN10Item_param11val_decimalEP10my_decimal@Base 10.11.8
 _ZN10Item_param12add_as_cloneEP3THD@Base 10.11.8
 _ZN10Item_param12fix_temporalEjj@Base 10.11.8
 _ZN10Item_param12set_longdataEPKcm@Base 10.11.8
 _ZN10Item_param13save_in_fieldEP5Fieldb@Base 10.11.8
 _ZN10Item_param13set_from_itemEP3THDP4Item@Base 10.11.8
 _ZN10Item_param13set_param_strEPPhm@Base 10.11.8
 _ZN10Item_param14append_for_logEP3THDP6String@Base 10.11.8
 _ZN10Item_param14assign_defaultEP5Field@Base 10.11.8
 _ZN10Item_param14get_item_paramEv@Base 10.11.8
 _ZN10Item_param14set_param_dateEPPhm@Base 10.11.8
 _ZN10Item_param14set_param_timeEPPhm@Base 10.11.8
 _ZN10Item_param14set_param_tinyEPPhm@Base 10.11.8
 _ZN10Item_param15CONVERSION_INFO3setEP3THDPK15charset_info_st@Base 10.11.8
 _ZN10Item_param15CONVERSION_INFO7convertEP3THDP6String@Base 10.11.8
 _ZN10Item_param15make_send_fieldEP3THDP10Send_field@Base 10.11.8
 _ZN10Item_param15set_param_floatEPPhm@Base 10.11.8
 _ZN10Item_param15set_param_int32EPPhm@Base 10.11.8
 _ZN10Item_param15set_param_int64EPPhm@Base 10.11.8
 _ZN10Item_param15set_param_shortEPPhm@Base 10.11.8
 _ZN10Item_param16set_param_doubleEPPhm@Base 10.11.8
 _ZN10Item_param16setup_conversionEP3THDh@Base 10.11.8
 _ZN10Item_param16value_clone_itemEP3THD@Base 10.11.8
 _ZN10Item_param17convert_str_valueEP3THD@Base 10.11.8
 _ZN10Item_param17set_param_decimalEPPhm@Base 10.11.8
 _ZN10Item_param18set_out_param_infoEP10Send_field@Base 10.11.8
 _ZN10Item_param18set_param_datetimeEPPhm@Base 10.11.8
 _ZN10Item_param21setup_conversion_blobEP3THD@Base 10.11.8
 _ZN10Item_param22safe_charset_converterEP3THDPK15charset_info_st@Base 10.11.8
 _ZN10Item_param23setup_conversion_stringEP3THDPK15charset_info_st@Base 10.11.8
 _ZN10Item_param25check_vcol_func_processorEPv@Base 10.11.8
 _ZN10Item_param25raise_error_not_evaluableEv@Base 10.11.8
 _ZN10Item_param27associate_with_target_fieldEP3THDP10Item_field@Base 10.11.8
 _ZN10Item_param29set_param_type_and_swap_valueEPS_@Base 10.11.8
 _ZN10Item_param30get_rewritable_query_parameterEv@Base 10.11.8
 _ZN10Item_param30get_settable_routine_parameterEv@Base 10.11.8
 _ZN10Item_param5printEP6String15enum_query_type@Base 10.11.8
 _ZN10Item_param5resetEv@Base 10.11.8
 _ZN10Item_param6PValue11val_decimalEP10my_decimalPK19Type_std_attributes@Base 10.11.8
 _ZN10Item_param6PValue7val_strEP6StringPK19Type_std_attributes@Base 10.11.8
 _ZN10Item_param7cleanupEv@Base 10.11.8
 _ZN10Item_param7is_nullEv@Base 10.11.8
 _ZN10Item_param7set_intExj@Base 10.11.8
 _ZN10Item_param7set_strEPKcmPK15charset_info_stS4_@Base 10.11.8
 _ZN10Item_param7val_intEv@Base 10.11.8
 _ZN10Item_param8get_copyEP3THD@Base 10.11.8
 _ZN10Item_param8get_dateEP3THDP13st_mysql_time11date_mode_t@Base 10.11.8
 _ZN10Item_param8set_nullEv@Base 10.11.8
 _ZN10Item_param8set_timeEP13st_mysql_time25enum_mysql_timestamp_typej@Base 10.11.8
 _ZN10Item_param8set_timeEPK13st_mysql_timejj@Base 10.11.8
 _ZN10Item_param8val_realEv@Base 10.11.8
 _ZN10Item_param9set_valueEP3THDP11sp_rcontextPP4Item@Base 10.11.8
 _ZN10Item_paramC1EP3THDPK25st_mysql_const_lex_stringjj@Base 10.11.8
 _ZN10Item_paramC2EP3THDPK25st_mysql_const_lex_stringjj@Base 10.11.8
 _ZN10Item_paramD0Ev@Base 10.11.8
 _ZN10Item_paramD1Ev@Base 10.11.8
 _ZN10Item_paramD2Ev@Base 10.11.8
 _ZN10JOIN_CACHE10get_recordEv@Base 10.11.8
 _ZN10JOIN_CACHE10put_recordEv@Base 10.11.8
 _ZN10JOIN_CACHE12alloc_bufferEv@Base 10.11.8
 _ZN10JOIN_CACHE12alloc_fieldsEv@Base 10.11.8
 _ZN10JOIN_CACHE12get_curr_recEv@Base 10.11.8
 _ZN10JOIN_CACHE12join_recordsEb@Base 10.11.8
 _ZN10JOIN_CACHE13set_constantsEv@Base 10.11.8
 _ZN10JOIN_CACHE14realloc_bufferEv@Base 10.11.8
 _ZN10JOIN_CACHE15aux_buffer_incrEm@Base 10.11.8
 _ZN10JOIN_CACHE15skip_if_matchedEv@Base 10.11.8
 _ZN10JOIN_CACHE16extra_key_lengthEv@Base 10.11.8
 _ZN10JOIN_CACHE16read_flag_fieldsEv@Base 10.11.8
 _ZN10JOIN_CACHE16setup_aux_bufferER17st_handler_buffer@Base 10.11.8
 _ZN10JOIN_CACHE17get_curr_rec_linkEv@Base 10.11.8
 _ZN10JOIN_CACHE17get_prefix_lengthEv@Base 10.11.8
 _ZN10JOIN_CACHE17get_record_by_posEPh@Base 10.11.8
 _ZN10JOIN_CACHE17read_record_fieldEP14st_cache_fieldb@Base 10.11.8
 _ZN10JOIN_CACHE17save_explain_dataEP16EXPLAIN_BKA_TYPE@Base 10.11.8
 _ZN10JOIN_CACHE17set_curr_rec_linkEPh@Base 10.11.8
 _ZN10JOIN_CACHE17write_record_dataEPhPb@Base 10.11.8
 _ZN10JOIN_CACHE18calc_record_fieldsEv@Base 10.11.8
 _ZN10JOIN_CACHE18create_flag_fieldsEv@Base 10.11.8
 _ZN10JOIN_CACHE19check_emb_key_usageEv@Base 10.11.8
 _ZN10JOIN_CACHE19restore_last_recordEv@Base 10.11.8
 _ZN10JOIN_CACHE21create_key_arg_fieldsEv@Base 10.11.8
 _ZN10JOIN_CACHE21get_match_flag_by_posEPh@Base 10.11.8
 _ZN10JOIN_CACHE21join_matching_recordsEb@Base 10.11.8
 _ZN10JOIN_CACHE21join_null_complementsEb@Base 10.11.8
 _ZN10JOIN_CACHE21read_referenced_fieldEP14st_cache_fieldPhPj@Base 10.11.8
 _ZN10JOIN_CACHE22calc_avg_record_lengthEv@Base 10.11.8
 _ZN10JOIN_CACHE22read_all_record_fieldsEv@Base 10.11.8
 _ZN10JOIN_CACHE22set_match_flag_if_noneEP13st_join_tablePh@Base 10.11.8
 _ZN10JOIN_CACHE23create_remaining_fieldsEv@Base 10.11.8
 _ZN10JOIN_CACHE24collect_info_on_key_argsEv@Base 10.11.8
 _ZN10JOIN_CACHE24generate_full_extensionsEPh@Base 10.11.8
 _ZN10JOIN_CACHE24get_curr_association_ptrEv@Base 10.11.8
 _ZN10JOIN_CACHE24get_max_join_buffer_sizeEbm@Base 10.11.8
 _ZN10JOIN_CACHE24get_min_join_buffer_sizeEv@Base 10.11.8
 _ZN10JOIN_CACHE24skip_if_not_needed_matchEv@Base 10.11.8
 _ZN10JOIN_CACHE27get_record_max_affix_lengthEv@Base 10.11.8
 _ZN10JOIN_CACHE27shrink_join_buffer_in_ratioEyy@Base 10.11.8
 _ZN10JOIN_CACHE28get_number_of_ranges_for_mrrEv@Base 10.11.8
 _ZN10JOIN_CACHE34get_max_key_addon_space_per_recordEv@Base 10.11.8
 _ZN10JOIN_CACHE38get_match_flag_by_pos_from_join_bufferEPhP13st_join_table@Base 10.11.8
 _ZN10JOIN_CACHE3thdEv@Base 10.11.8
 _ZN10JOIN_CACHE4initEb@Base 10.11.8
 _ZN10JOIN_CACHE5resetEb@Base 10.11.8
 _ZN10JOIN_CACHE9rem_spaceEv@Base 10.11.8
 _ZN10Le_creatorD0Ev@Base 10.11.8
 _ZN10Le_creatorD1Ev@Base 10.11.8
 _ZN10Le_creatorD2Ev@Base 10.11.8
 _ZN10Lt_creatorD0Ev@Base 10.11.8
 _ZN10Lt_creatorD1Ev@Base 10.11.8
 _ZN10Lt_creatorD2Ev@Base 10.11.8
 _ZN10MDL_ticket14accept_visitorEP26MDL_wait_for_graph_visitor@Base 10.11.8
 _ZN10MDL_ticket14downgrade_lockE13enum_mdl_type@Base 10.11.8
 _ZN10MDL_ticket6createEP11MDL_context13enum_mdl_type@Base 10.11.8
 _ZN10MDL_ticket7destroyEPS_@Base 10.11.8
 _ZN10MDL_ticketD0Ev@Base 10.11.8
 _ZN10MDL_ticketD1Ev@Base 10.11.8
 _ZN10MDL_ticketD2Ev@Base 10.11.8
 _ZN10Ne_creatorD0Ev@Base 10.11.8
 _ZN10Ne_creatorD1Ev@Base 10.11.8
 _ZN10Ne_creatorD2Ev@Base 10.11.8
 _ZN10Rpl_filter12add_do_tableEPKc@Base 10.11.8
 _ZN10Rpl_filter12get_do_tableEP6String@Base 10.11.8
 _ZN10Rpl_filter12set_do_tableEPKc@Base 10.11.8
 _ZN10Rpl_filter13add_ignore_dbEPKc@Base 10.11.8
 _ZN10Rpl_filter13get_ignore_dbEP6String@Base 10.11.8
 _ZN10Rpl_filter13get_ignore_dbEv@Base 10.11.8
 _ZN10Rpl_filter13set_ignore_dbEPKc@Base 10.11.8
 _ZN10Rpl_filter14add_rewrite_dbEPKc@Base 10.11.8
 _ZN10Rpl_filter14add_table_ruleEP7st_hashPKc@Base 10.11.8
 _ZN10Rpl_filter14get_rewrite_dbEP6String@Base 10.11.8
 _ZN10Rpl_filter14get_rewrite_dbEPKcPm@Base 10.11.8
 _ZN10Rpl_filter14get_rewrite_dbEv@Base 10.11.8
 _ZN10Rpl_filter14set_rewrite_dbEPKc@Base 10.11.8
 _ZN10Rpl_filter15add_string_listEP6I_ListI8i_stringEPKc@Base 10.11.8
 _ZN10Rpl_filter16add_ignore_tableEPKc@Base 10.11.8
 _ZN10Rpl_filter16free_string_listEP6I_ListI8i_stringE@Base 10.11.8
 _ZN10Rpl_filter16get_ignore_tableEP6String@Base 10.11.8
 _ZN10Rpl_filter16set_ignore_tableEPKc@Base 10.11.8
 _ZN10Rpl_filter17add_wild_do_tableEPKc@Base 10.11.8
 _ZN10Rpl_filter17free_string_arrayEP16st_dynamic_array@Base 10.11.8
 _ZN10Rpl_filter17get_wild_do_tableEP6String@Base 10.11.8
 _ZN10Rpl_filter17parse_filter_ruleEPKcMS_FiS1_E@Base 10.11.8
 _ZN10Rpl_filter17set_wild_do_tableEPKc@Base 10.11.8
 _ZN10Rpl_filter19add_wild_table_ruleEP16st_dynamic_arrayPKc@Base 10.11.8
 _ZN10Rpl_filter19rewrite_db_is_emptyEv@Base 10.11.8
 _ZN10Rpl_filter20add_string_pair_listEPKc@Base 10.11.8
 _ZN10Rpl_filter20init_table_rule_hashEP7st_hashPb@Base 10.11.8
 _ZN10Rpl_filter21add_wild_ignore_tableEPKc@Base 10.11.8
 _ZN10Rpl_filter21db_ok_with_wild_tableEPKc@Base 10.11.8
 _ZN10Rpl_filter21free_string_pair_listEP6I_ListI13i_string_pairE@Base 10.11.8
 _ZN10Rpl_filter21get_wild_ignore_tableEP6String@Base 10.11.8
 _ZN10Rpl_filter21init_table_rule_arrayEP16st_dynamic_arrayPb@Base 10.11.8
 _ZN10Rpl_filter21set_wild_ignore_tableEPKc@Base 10.11.8
 _ZN10Rpl_filter23db_rule_ent_list_to_strEP6StringP6I_ListI8i_stringE@Base 10.11.8
 _ZN10Rpl_filter26table_rule_ent_hash_to_strEP6StringP7st_hashb@Base 10.11.8
 _ZN10Rpl_filter31db_rewrite_rule_ent_list_to_strEP6StringP6I_ListI13i_string_pairE@Base 10.11.8
 _ZN10Rpl_filter35table_rule_ent_dynamic_array_to_strEP6StringP16st_dynamic_arrayb@Base 10.11.8
 _ZN10Rpl_filter5db_okEPKc@Base 10.11.8
 _ZN10Rpl_filter5is_onEv@Base 10.11.8
 _ZN10Rpl_filter9add_do_dbEPKc@Base 10.11.8
 _ZN10Rpl_filter9find_wildEP16st_dynamic_arrayPKci@Base 10.11.8
 _ZN10Rpl_filter9get_do_dbEP6String@Base 10.11.8
 _ZN10Rpl_filter9get_do_dbEv@Base 10.11.8
 _ZN10Rpl_filter9set_do_dbEPKc@Base 10.11.8
 _ZN10Rpl_filter9tables_okEPKcP10TABLE_LIST@Base 10.11.8
 _ZN10Rpl_filterC1Ev@Base 10.11.8
 _ZN10Rpl_filterC2Ev@Base 10.11.8
 _ZN10Rpl_filterD1Ev@Base 10.11.8
 _ZN10Rpl_filterD2Ev@Base 10.11.8
 _ZN10SEL_ARG_LTC1EP3THDPKhPK8KEY_PARTP5FieldP4Item@Base 10.11.8
 _ZN10SEL_ARG_LTC2EP3THDPKhPK8KEY_PARTP5FieldP4Item@Base 10.11.8
 _ZN10SEL_IMERGE11or_sel_treeEP15RANGE_OPT_PARAMP8SEL_TREE@Base 10.11.8
 _ZN10SEL_IMERGE12and_sel_treeEP15RANGE_OPT_PARAMP8SEL_TREEPS_@Base 10.11.8
 _ZN10SEL_IMERGE16have_common_keysEP15RANGE_OPT_PARAMP8SEL_TREE@Base 10.11.8
 _ZN10SEL_IMERGE23or_sel_tree_with_checksEP15RANGE_OPT_PARAMjP8SEL_TREEbPb@Base 10.11.8
 _ZN10SEL_IMERGE25or_sel_imerge_with_checksEP15RANGE_OPT_PARAMjPS_bPb@Base 10.11.8
 _ZN10SEL_IMERGEC1EPS_jP15RANGE_OPT_PARAM@Base 10.11.8
 _ZN10SEL_IMERGEC2EPS_jP15RANGE_OPT_PARAM@Base 10.11.8
 _ZN10SQL_SELECT17test_quick_selectEP3THD6BitmapILj64EEyybbbbN9Item_func6BitmapE@Base 10.11.8
 _ZN10SQL_SELECT7cleanupEv@Base 10.11.8
 _ZN10SQL_SELECTC1Ev@Base 10.11.8
 _ZN10SQL_SELECTC2Ev@Base 10.11.8
 _ZN10SQL_SELECTD1Ev@Base 10.11.8
 _ZN10SQL_SELECTD2Ev@Base 10.11.8
 _ZN10Send_fieldC1EP3THDP4Item@Base 10.11.8
 _ZN10Send_fieldC2EP3THDP4Item@Base 10.11.8
 _ZN10Sort_param17init_for_filesortEjP5TABLEyP8Filesort@Base 10.11.8
 _ZN10Sort_param18try_to_pack_addonsEm@Base 10.11.8
 _ZN10Sort_param20try_to_pack_sortkeysEv@Base 10.11.8
 _ZN10String_ptrC1EP4ItemP6String@Base 10.11.8
 _ZN10String_ptrC2EP4ItemP6String@Base 10.11.8
 _ZN10Sys_var_tz13global_updateEP3THDP7set_var@Base 10.11.8
 _ZN10Sys_var_tz14session_updateEP3THDP7set_var@Base 10.11.8
 _ZN10Sys_var_tz19global_save_defaultEP3THDP7set_var@Base 10.11.8
 _ZN10Sys_var_tz20session_save_defaultEP3THDP7set_var@Base 10.11.8
 _ZN10Sys_var_tz8do_checkEP3THDP7set_var@Base 10.11.8
 _ZN10Sys_var_tzC1EPKcS1_ilm8CMD_LINEPP9Time_zoneP8PolyLockN7sys_var18binlog_status_enumEPFbPS8_P3THDP7set_varEPFbSA_SC_13enum_var_typeES1_@Base 10.11.8
 _ZN10Sys_var_tzC2EPKcS1_ilm8CMD_LINEPP9Time_zoneP8PolyLockN7sys_var18binlog_status_enumEPFbPS8_P3THDP7set_varEPFbSA_SC_13enum_var_typeES1_@Base 10.11.8
 _ZN10Sys_var_tzD0Ev@Base 10.11.8
 _ZN10Sys_var_tzD1Ev@Base 10.11.8
 _ZN10Sys_var_tzD2Ev@Base 10.11.8
 _ZN10TABLE_LIST10prep_whereEP3THDPP4Itemb@Base 10.11.8
 _ZN10TABLE_LIST12init_derivedEP3THDb@Base 10.11.8
 _ZN10TABLE_LIST13cleanup_itemsEv@Base 10.11.8
 _ZN10TABLE_LIST13is_active_sjmEv@Base 10.11.8
 _ZN10TABLE_LIST13is_with_tableEv@Base 10.11.8
 _ZN10TABLE_LIST13set_lock_typeEP3THD13thr_lock_type@Base 10.11.8
 _ZN10TABLE_LIST14fill_recursiveEP3THD@Base 10.11.8
 _ZN10TABLE_LIST14handle_derivedEP3LEXj@Base 10.11.8
 _ZN10TABLE_LIST15get_first_tableEv@Base 10.11.8
 _ZN10TABLE_LIST15hide_view_errorEP3THD@Base 10.11.8
 _ZN10TABLE_LIST16prepare_securityEP3THD@Base 10.11.8
 _ZN10TABLE_LIST16setup_underlyingEP3THD@Base 10.11.8
 _ZN10TABLE_LIST17get_single_selectEv@Base 10.11.8
 _ZN10TABLE_LIST17is_sjm_scan_tableEv@Base 10.11.8
 _ZN10TABLE_LIST17prep_check_optionEP3THDh@Base 10.11.8
 _ZN10TABLE_LIST17print_leaf_tablesEP3THDP6String15enum_query_type@Base 10.11.8
 _ZN10TABLE_LIST17reinit_before_useEP3THD@Base 10.11.8
 _ZN10TABLE_LIST17reset_const_tableEv@Base 10.11.8
 _ZN10TABLE_LIST17set_insert_valuesEP11st_mem_root@Base 10.11.8
 _ZN10TABLE_LIST17view_check_optionEP3THDb@Base 10.11.8
 _ZN10TABLE_LIST18check_single_tableEPPS_yS0_@Base 10.11.8
 _ZN10TABLE_LIST19get_real_join_tableEv@Base 10.11.8
 _ZN10TABLE_LIST19process_index_hintsEP5TABLE@Base 10.11.8
 _ZN10TABLE_LIST20containing_subselectEv@Base 10.11.8
 _ZN10TABLE_LIST20fetch_number_of_rowsEv@Base 10.11.8
 _ZN10TABLE_LIST20find_derived_handlerEP3THD@Base 10.11.8
 _ZN10TABLE_LIST20register_want_accessE11privilege_t@Base 10.11.8
 _ZN10TABLE_LIST21change_refs_to_fieldsEv@Base 10.11.8
 _ZN10TABLE_LIST21find_underlying_tableEP5TABLE@Base 10.11.8
 _ZN10TABLE_LIST21wrap_into_nested_joinER4ListIS_E@Base 10.11.8
 _ZN10TABLE_LIST22is_the_same_definitionEP3THDP11TABLE_SHARE@Base 10.11.8
 _ZN10TABLE_LIST22set_check_materializedEv@Base 10.11.8
 _ZN10TABLE_LIST22single_table_updatableEv@Base 10.11.8
 _ZN10TABLE_LIST23is_recursive_with_tableEv@Base 10.11.8
 _ZN10TABLE_LIST24create_field_translationEP3THD@Base 10.11.8
 _ZN10TABLE_LIST27is_leaf_for_name_resolutionEv@Base 10.11.8
 _ZN10TABLE_LIST29last_leaf_for_name_resolutionEv@Base 10.11.8
 _ZN10TABLE_LIST30first_leaf_for_name_resolutionEv@Base 10.11.8
 _ZN10TABLE_LIST32register_as_derived_with_rec_refEP12With_element@Base 10.11.8
 _ZN10TABLE_LIST33is_with_table_recursive_referenceEv@Base 10.11.8
 _ZN10TABLE_LIST36is_nonrecursive_derived_with_rec_refEv@Base 10.11.8
 _ZN10TABLE_LIST5printEP3THDyP6String15enum_query_type@Base 10.11.8
 _ZN10TABLE_LIST8calc_md5EPc@Base 10.11.8
 _ZN10TABLE_LIST8get_unitEv@Base 10.11.8
 _ZN10TABLE_LISTC1EP3THD25st_mysql_const_lex_stringbS2_bP11Table_ident13thr_lock_type13enum_mdl_typembP13st_select_lexP4ListI10Index_hintEP19st_mysql_lex_string@Base 10.11.8
 _ZN10TABLE_LISTC2EP3THD25st_mysql_const_lex_stringbS2_bP11Table_ident13thr_lock_type13enum_mdl_typembP13st_select_lexP4ListI10Index_hintEP19st_mysql_lex_string@Base 10.11.8
 _ZN10Table_stat17store_stat_fieldsEv@Base 10.11.8
 _ZN10Table_stat22change_full_table_nameEPK25st_mysql_const_lex_stringS2_@Base 10.11.8
 _ZN10Table_statD0Ev@Base 10.11.8
 _ZN10Table_statD1Ev@Base 10.11.8
 _ZN10Table_statD2Ev@Base 10.11.8
 _ZN10Window_def4nameEv@Base 10.11.8
 _ZN10Window_defD0Ev@Base 10.11.8
 _ZN10Window_defD1Ev@Base 10.11.8
 _ZN10Window_defD2Ev@Base 10.11.8
 _ZN10Yacc_stateD1Ev@Base 10.11.8
 _ZN10Yacc_stateD2Ev@Base 10.11.8
 _ZN10field_info8decimalsEv@Base 10.11.8
 _ZN10field_real11get_max_argEP6String@Base 10.11.8
 _ZN10field_real11get_min_argEP6String@Base 10.11.8
 _ZN10field_real12collect_enumEv@Base 10.11.8
 _ZN10field_real12get_opt_typeEP6Stringy@Base 10.11.8
 _ZN10field_real3addEv@Base 10.11.8
 _ZN10field_real3avgEP6Stringy@Base 10.11.8
 _ZN10field_real3stdEP6Stringy@Base 10.11.8
 _ZN10field_real8decimalsEv@Base 10.11.8
 _ZN10field_realD0Ev@Base 10.11.8
 _ZN10field_realD1Ev@Base 10.11.8
 _ZN10field_realD2Ev@Base 10.11.8
 _ZN10in_decimal11create_itemEP3THD@Base 10.11.8
 _ZN10in_decimal13value_to_itemEjP4Item@Base 10.11.8
 _ZN10in_decimal3setEjP4Item@Base 10.11.8
 _ZN10in_decimal9get_valueEP4Item@Base 10.11.8
 _ZN10in_decimalC1EP3THDj@Base 10.11.8
 _ZN10in_decimalC2EP3THDj@Base 10.11.8
 _ZN10in_decimalD0Ev@Base 10.11.8
 _ZN10in_decimalD1Ev@Base 10.11.8
 _ZN10in_decimalD2Ev@Base 10.11.8
 _ZN10my_decimalC1EP5Field@Base 10.11.8
 _ZN10my_decimalC2EP5Field@Base 10.11.8
 _ZN10my_decimalD1Ev@Base 10.11.8
 _ZN10my_decimalD2Ev@Base 10.11.8
 _ZN10sp_package11get_packageEv@Base 10.11.8
 _ZN10sp_package14init_psi_shareEv@Base 10.11.8
 _ZN10sp_package21instantiate_if_neededEP3THD@Base 10.11.8
 _ZN10sp_package21validate_after_parserEP3THD@Base 10.11.8
 _ZN10sp_package23add_routine_declarationEP3LEX@Base 10.11.8
 _ZN10sp_package24validate_public_routinesEP3THDPS_@Base 10.11.8
 _ZN10sp_package25validate_private_routinesEP3THD@Base 10.11.8
 _ZN10sp_package26add_routine_implementationEP3LEX@Base 10.11.8
 _ZN10sp_package6createEP3LEXPK7sp_namePK10Sp_handler@Base 10.11.8
 _ZN10sp_package7LexList14find_qualifiedERK25st_mysql_const_lex_string12enum_sp_type@Base 10.11.8
 _ZN10sp_package7LexList4findERK25st_mysql_const_lex_string12enum_sp_type@Base 10.11.8
 _ZN10sp_package7LexList7cleanupEv@Base 10.11.8
 _ZN10sp_packageC1EP11st_mem_rootP3LEXPK7sp_namePK10Sp_handler@Base 10.11.8
 _ZN10sp_packageC2EP11st_mem_rootP3LEXPK7sp_namePK10Sp_handler@Base 10.11.8
 _ZN10sp_packageD0Ev@Base 10.11.8
 _ZN10sp_packageD1Ev@Base 10.11.8
 _ZN10sp_packageD2Ev@Base 10.11.8
 _ZN11Cached_itemD0Ev@Base 10.11.8
 _ZN11Cached_itemD1Ev@Base 10.11.8
 _ZN11Cached_itemD2Ev@Base 10.11.8
 _ZN11Column_stat15get_stat_valuesEP17Column_statisticsP11st_mem_rootb@Base 10.11.8
 _ZN11Column_stat17store_stat_fieldsEv@Base 10.11.8
 _ZN11Column_stat22change_full_table_nameEPK25st_mysql_const_lex_stringS2_@Base 10.11.8
 _ZN11Column_statD0Ev@Base 10.11.8
 _ZN11Column_statD1Ev@Base 10.11.8
 _ZN11Column_statD2Ev@Base 10.11.8
 _ZN11DTCollation9aggregateERKS_j@Base 10.11.8
 _ZN11Delete_plan24save_explain_delete_dataEP3THDP11st_mem_root@Base 10.11.8
 _ZN11Delete_planD0Ev@Base 10.11.8
 _ZN11Delete_planD1Ev@Base 10.11.8
 _ZN11Delete_planD2Ev@Base 10.11.8
 _ZN11Field_fixer11visit_fieldEP10Item_field@Base 10.11.8
 _ZN11Field_fixerD0Ev@Base 10.11.8
 _ZN11Field_fixerD1Ev@Base 10.11.8
 _ZN11Field_fixerD2Ev@Base 10.11.8
 _ZN11Field_float11sort_stringEPhj@Base 10.11.8
 _ZN11Field_float4sendEP8Protocol@Base 10.11.8
 _ZN11Field_float5resetEv@Base 10.11.8
 _ZN11Field_float5storeEPKcmPK15charset_info_st@Base 10.11.8
 _ZN11Field_float5storeEd@Base 10.11.8
 _ZN11Field_float5storeExb@Base 10.11.8
 _ZN11Field_float7val_intEv@Base 10.11.8
 _ZN11Field_float7val_strEP6StringS1_@Base 10.11.8
 _ZN11Field_float8val_realEv@Base 10.11.8
 _ZN11Field_floatD0Ev@Base 10.11.8
 _ZN11Field_floatD1Ev@Base 10.11.8
 _ZN11Field_floatD2Ev@Base 10.11.8
 _ZN11Field_short11sort_stringEPhj@Base 10.11.8
 _ZN11Field_short4packEPhPKhj@Base 10.11.8
 _ZN11Field_short4sendEP8Protocol@Base 10.11.8
 _ZN11Field_short5resetEv@Base 10.11.8
 _ZN11Field_short5storeEPKcmPK15charset_info_st@Base 10.11.8
 _ZN11Field_short5storeEd@Base 10.11.8
 _ZN11Field_short5storeExb@Base 10.11.8
 _ZN11Field_short6unpackEPhPKhS2_j@Base 10.11.8
 _ZN11Field_short7val_intEv@Base 10.11.8
 _ZN11Field_short7val_strEP6StringS1_@Base 10.11.8
 _ZN11Field_short8val_realEv@Base 10.11.8
 _ZN11Field_shortD0Ev@Base 10.11.8
 _ZN11Field_shortD1Ev@Base 10.11.8
 _ZN11Field_shortD2Ev@Base 10.11.8
 _ZN11Field_time010store_TIMEEPK13st_mysql_time@Base 10.11.8
 _ZN11Field_time011sort_stringEPhj@Base 10.11.8
 _ZN11Field_time07val_intEv@Base 10.11.8
 _ZN11Field_time08get_dateEP13st_mysql_time11date_mode_t@Base 10.11.8
 _ZN11Field_time08val_realEv@Base 10.11.8
 _ZN11Field_time0D0Ev@Base 10.11.8
 _ZN11Field_time0D1Ev@Base 10.11.8
 _ZN11Field_time0D2Ev@Base 10.11.8
 _ZN11Field_timef10store_TIMEEPK13st_mysql_time@Base 10.11.8
 _ZN11Field_timef10val_nativeEP6Native@Base 10.11.8
 _ZN11Field_timef11sort_stringEPhj@Base 10.11.8
 _ZN11Field_timef12store_nativeERK6Native@Base 10.11.8
 _ZN11Field_timef15val_time_packedEP3THD@Base 10.11.8
 _ZN11Field_timef5resetEv@Base 10.11.8
 _ZN11Field_timef8get_dateEP13st_mysql_time11date_mode_t@Base 10.11.8
 _ZN11Field_timefD0Ev@Base 10.11.8
 _ZN11Field_timefD1Ev@Base 10.11.8
 _ZN11Field_timefD2Ev@Base 10.11.8
 _ZN11Foreign_key8validateER4ListI12Create_fieldE@Base 10.11.8
 _ZN11Foreign_keyC1ERKS_P11st_mem_root@Base 10.11.8
 _ZN11Foreign_keyC2ERKS_P11st_mem_root@Base 10.11.8
 _ZN11Foreign_keyD0Ev@Base 10.11.8
 _ZN11Foreign_keyD1Ev@Base 10.11.8
 _ZN11Foreign_keyD2Ev@Base 10.11.8
 _ZN11Gis_polygon13init_from_wkbEPKcjN8Geometry12wkbByteOrderEP6String@Base 10.11.8
 _ZN11Gis_polygon13init_from_wktEP15Gis_read_streamP6String@Base 10.11.8
 _ZN11Gis_polygon14init_from_jsonEP16st_json_engine_tbP6String@Base 10.11.8
 _ZN11Gis_polygon18init_from_opresultEP6StringPKcj@Base 10.11.8
 _ZN11Gis_polygonD0Ev@Base 10.11.8
 _ZN11Gis_polygonD1Ev@Base 10.11.8
 _ZN11Gis_polygonD2Ev@Base 10.11.8
 _ZN11Host_errors5resetEv@Base 10.11.8
 _ZN11Host_errors9aggregateEPKS_@Base 10.11.8
 _ZN11Host_errorsC1Ev@Base 10.11.8
 _ZN11Host_errorsC2Ev@Base 10.11.8
 _ZN11Host_errorsD1Ev@Base 10.11.8
 _ZN11Host_errorsD2Ev@Base 10.11.8
 _ZN11Item_func_x18fix_length_and_decEP3THD@Base 10.11.8
 _ZN11Item_func_x8get_copyEP3THD@Base 10.11.8
 _ZN11Item_func_x8val_realEv@Base 10.11.8
 _ZN11Item_func_xD0Ev@Base 10.11.8
 _ZN11Item_func_xD1Ev@Base 10.11.8
 _ZN11Item_func_xD2Ev@Base 10.11.8
 _ZN11Item_func_y18fix_length_and_decEP3THD@Base 10.11.8
 _ZN11Item_func_y8get_copyEP3THD@Base 10.11.8
 _ZN11Item_func_y8val_realEv@Base 10.11.8
 _ZN11Item_func_yD0Ev@Base 10.11.8
 _ZN11Item_func_yD1Ev@Base 10.11.8
 _ZN11Item_func_yD2Ev@Base 10.11.8
 _ZN11Item_num_op16fix_type_handlerEPK15Type_aggregator@Base 10.11.8
 _ZN11Item_num_op27need_parentheses_in_defaultEv@Base 10.11.8
 _ZN11Item_num_op5printEP6String15enum_query_type@Base 10.11.8
 _ZN11Item_string10clone_itemEP3THD@Base 10.11.8
 _ZN11Item_string11val_decimalEP10my_decimal@Base 10.11.8
 _ZN11Item_string13save_in_fieldEP5Fieldb@Base 10.11.8
 _ZN11Item_string17make_odbc_literalEP3THDPK25st_mysql_const_lex_string@Base 10.11.8
 _ZN11Item_string22safe_charset_converterEP3THDPK15charset_info_st@Base 10.11.8
 _ZN11Item_string26make_string_literal_concatEP3THDPK25st_mysql_const_lex_string@Base 10.11.8
 _ZN11Item_string5printEP6String15enum_query_type@Base 10.11.8
 _ZN11Item_string7val_intEv@Base 10.11.8
 _ZN11Item_string7val_strEP6String@Base 10.11.8
 _ZN11Item_string8get_copyEP3THD@Base 10.11.8
 _ZN11Item_string8get_dateEP3THDP13st_mysql_time11date_mode_t@Base 10.11.8
 _ZN11Item_string8val_realEv@Base 10.11.8
 _ZN11Item_stringC1EP3THDPKcmPK15charset_info_st10Derivation@Base 10.11.8
 _ZN11Item_stringC2EP3THDPKcmPK15charset_info_st10Derivation@Base 10.11.8
 _ZN11Item_stringD0Ev@Base 10.11.8
 _ZN11Item_stringD1Ev@Base 10.11.8
 _ZN11Item_stringD2Ev@Base 10.11.8
 _ZN11Item_sum_or12copy_or_sameEP3THD@Base 10.11.8
 _ZN11Item_sum_or22set_bits_from_countersEv@Base 10.11.8
 _ZN11Item_sum_or3addEv@Base 10.11.8
 _ZN11Item_sum_or8get_copyEP3THD@Base 10.11.8
 _ZN11Item_sum_orD0Ev@Base 10.11.8
 _ZN11Item_sum_orD1Ev@Base 10.11.8
 _ZN11Item_sum_orD2Ev@Base 10.11.8
 _ZN11Item_sum_sp10fix_fieldsEP3THDPP4Item@Base 10.11.8
 _ZN11Item_sum_sp10val_nativeEP3THDP6Native@Base 10.11.8
 _ZN11Item_sum_sp11reset_fieldEv@Base 10.11.8
 _ZN11Item_sum_sp11val_decimalEP10my_decimal@Base 10.11.8
 _ZN11Item_sum_sp12copy_or_sameEP3THD@Base 10.11.8
 _ZN11Item_sum_sp12update_fieldEv@Base 10.11.8
 _ZN11Item_sum_sp18fix_length_and_decEP3THD@Base 10.11.8
 _ZN11Item_sum_sp30create_field_for_create_selectEP11st_mem_rootP5TABLE@Base 10.11.8
 _ZN11Item_sum_sp3addEv@Base 10.11.8
 _ZN11Item_sum_sp5clearEv@Base 10.11.8
 _ZN11Item_sum_sp7cleanupEv@Base 10.11.8
 _ZN11Item_sum_sp7executeEv@Base 10.11.8
 _ZN11Item_sum_sp7val_intEv@Base 10.11.8
 _ZN11Item_sum_sp7val_strEP6String@Base 10.11.8
 _ZN11Item_sum_sp8get_copyEP3THD@Base 10.11.8
 _ZN11Item_sum_sp8get_dateEP3THDP13st_mysql_time11date_mode_t@Base 10.11.8
 _ZN11Item_sum_sp8val_realEv@Base 10.11.8
 _ZN11Item_sum_spC1EP3THDP23Name_resolution_contextP7sp_nameP7sp_head@Base 10.11.8
 _ZN11Item_sum_spC1EP3THDP23Name_resolution_contextP7sp_nameP7sp_headR4ListI4ItemE@Base 10.11.8
 _ZN11Item_sum_spC1EP3THDPS_@Base 10.11.8
 _ZN11Item_sum_spC2EP3THDP23Name_resolution_contextP7sp_nameP7sp_head@Base 10.11.8
 _ZN11Item_sum_spC2EP3THDP23Name_resolution_contextP7sp_nameP7sp_headR4ListI4ItemE@Base 10.11.8
 _ZN11Item_sum_spC2EP3THDPS_@Base 10.11.8
 _ZN11Item_sum_spD0Ev@Base 10.11.8
 _ZN11Item_sum_spD1Ev@Base 10.11.8
 _ZN11Item_sum_spD2Ev@Base 10.11.8
 _ZN11Json_writer10add_doubleEd@Base 10.11.8
 _ZN11Json_writer10add_memberEPKc@Base 10.11.8
 _ZN11Json_writer10add_memberEPKcm@Base 10.11.8
 _ZN11Json_writer10end_objectEv@Base 10.11.8
 _ZN11Json_writer11start_arrayEv@Base 10.11.8
 _ZN11Json_writer12start_objectEv@Base 10.11.8
 _ZN11Json_writer13append_indentEv@Base 10.11.8
 _ZN11Json_writer13start_elementEv@Base 10.11.8
 _ZN11Json_writer14add_table_nameEPK13st_join_table@Base 10.11.8
 _ZN11Json_writer14add_table_nameEPK5TABLE@Base 10.11.8
 _ZN11Json_writer16add_unquoted_strEPKc@Base 10.11.8
 _ZN11Json_writer16add_unquoted_strEPKcm@Base 10.11.8
 _ZN11Json_writer17start_sub_elementEv@Base 10.11.8
 _ZN11Json_writer6add_llEx@Base 10.11.8
 _ZN11Json_writer7add_strEP4Item@Base 10.11.8
 _ZN11Json_writer7add_strEPKc@Base 10.11.8
 _ZN11Json_writer7add_strEPKcm@Base 10.11.8
 _ZN11Json_writer7add_strERK6String@Base 10.11.8
 _ZN11Json_writer7add_ullEy@Base 10.11.8
 _ZN11Json_writer8add_boolEb@Base 10.11.8
 _ZN11Json_writer8add_nullEv@Base 10.11.8
 _ZN11Json_writer8add_sizeEx@Base 10.11.8
 _ZN11Json_writer9end_arrayEv@Base 10.11.8
 _ZN11Json_writerD1Ev@Base 10.11.8
 _ZN11Json_writerD2Ev@Base 10.11.8
 _ZN11MDL_context11find_ticketEP11MDL_requestP17enum_mdl_duration@Base 10.11.8
 _ZN11MDL_context12acquire_lockEP11MDL_requestd@Base 10.11.8
 _ZN11MDL_context12clone_ticketEP11MDL_request@Base 10.11.8
 _ZN11MDL_context12release_lockE17enum_mdl_durationP10MDL_ticket@Base 10.11.8
 _ZN11MDL_context12release_lockEP10MDL_ticket@Base 10.11.8
 _ZN11MDL_context13acquire_locksEP8I_P_ListI11MDL_request16I_P_List_adapterIS1_XadL_ZNS1_12next_in_listEEEXadL_ZNS1_12prev_in_listEEEE16I_P_List_counter21I_P_List_no_push_backIS1_EEd@Base 10.11.8
 _ZN11MDL_context13find_deadlockEv@Base 10.11.8
 _ZN11MDL_context13is_lock_ownerEN7MDL_key18enum_mdl_namespaceEPKcS3_13enum_mdl_type@Base 10.11.8
 _ZN11MDL_context14get_lock_ownerEP7MDL_key@Base 10.11.8
 _ZN11MDL_context14visit_subgraphEP26MDL_wait_for_graph_visitor@Base 10.11.8
 _ZN11MDL_context16try_acquire_lockEP11MDL_request@Base 10.11.8
 _ZN11MDL_context17set_lock_durationEP10MDL_ticket17enum_mdl_duration@Base 10.11.8
 _ZN11MDL_context18has_explicit_locksEv@Base 10.11.8
 _ZN11MDL_context19upgrade_shared_lockEP10MDL_ticket13enum_mdl_typed@Base 10.11.8
 _ZN11MDL_context21rollback_to_savepointERK13MDL_savepoint@Base 10.11.8
 _ZN11MDL_context21try_acquire_lock_implEP11MDL_requestPP10MDL_ticket@Base 10.11.8
 _ZN11MDL_context22release_explicit_locksEv@Base 10.11.8
 _ZN11MDL_context23release_statement_locksEv@Base 10.11.8
 _ZN11MDL_context26release_all_locks_for_nameEP10MDL_ticket@Base 10.11.8
 _ZN11MDL_context27release_locks_stored_beforeE17enum_mdl_durationP10MDL_ticket@Base 10.11.8
 _ZN11MDL_context27release_transactional_locksEP3THD@Base 10.11.8
 _ZN11MDL_context35set_explicit_duration_for_all_locksEv@Base 10.11.8
 _ZN11MDL_context38set_transaction_duration_for_all_locksEv@Base 10.11.8
 _ZN11MDL_context7destroyEv@Base 10.11.8
 _ZN11MDL_context8fix_pinsEv@Base 10.11.8
 _ZN11MDL_context8has_lockERK13MDL_savepointP10MDL_ticket@Base 10.11.8
 _ZN11MDL_contextC1Ev@Base 10.11.8
 _ZN11MDL_contextC2Ev@Base 10.11.8
 _ZN11MDL_request16init_with_sourceEN7MDL_key18enum_mdl_namespaceEPKcS3_13enum_mdl_type17enum_mdl_durationS3_j@Base 10.11.8
 _ZN11MDL_request23init_by_key_with_sourceEPK7MDL_key13enum_mdl_type17enum_mdl_durationPKcj@Base 10.11.8
 _ZN11MyCTX_nopad4initEPK13evp_cipher_stiPKhjS4_j@Base 10.11.8
 _ZN11MyCTX_nopad6finishEPhPj@Base 10.11.8
 _ZN11MyCTX_nopad6updateEPKhjPhPj@Base 10.11.8
 _ZN11MyCTX_nopadD0Ev@Base 10.11.8
 _ZN11MyCTX_nopadD1Ev@Base 10.11.8
 _ZN11MyCTX_nopadD2Ev@Base 10.11.8
 _ZN11NAMED_ILINKD0Ev@Base 10.11.8
 _ZN11NAMED_ILINKD1Ev@Base 10.11.8
 _ZN11NAMED_ILINKD2Ev@Base 10.11.8
 _ZN11NAMED_ILIST14delete_elementEPKcmPFvS1_PvE@Base 10.11.8
 _ZN11NAMED_ILIST15delete_elementsEPFvPKcPvE@Base 10.11.8
 _ZN11NAMED_ILISTD1Ev@Base 10.11.8
 _ZN11NAMED_ILISTD2Ev@Base 10.11.8
 _ZN11Ordered_key16null_selectivityEv@Base 10.11.8
 _ZN11Ordered_key18alloc_keys_buffersEv@Base 10.11.8
 _ZN11Ordered_key20cmp_keys_by_row_dataEyy@Base 10.11.8
 _ZN11Ordered_key23cmp_key_with_search_keyEy@Base 10.11.8
 _ZN11Ordered_key31cmp_keys_by_row_data_and_rownumEPS_PyS1_@Base 10.11.8
 _ZN11Ordered_key4initEP9st_bitmap@Base 10.11.8
 _ZN11Ordered_key4initEi@Base 10.11.8
 _ZN11Ordered_key5printEP6String@Base 10.11.8
 _ZN11Ordered_key6lookupEv@Base 10.11.8
 _ZN11Ordered_key7cleanupEv@Base 10.11.8
 _ZN11Ordered_key9next_sameEv@Base 10.11.8
 _ZN11Ordered_key9sort_keysEv@Base 10.11.8
 _ZN11Ordered_keyC1EjP5TABLEP4ItemyyyPh@Base 10.11.8
 _ZN11Ordered_keyC2EjP5TABLEP4ItemyyyPh@Base 10.11.8
 _ZN11Ordered_keyD1Ev@Base 10.11.8
 _ZN11Ordered_keyD2Ev@Base 10.11.8
 _ZN11QUICK_RANGEC1Ev@Base 10.11.8
 _ZN11QUICK_RANGEC2Ev@Base 10.11.8
 _ZN11Query_arena10free_itemsEv@Base 10.11.8
 _ZN11Query_arena12cleanup_stmtEb@Base 10.11.8
 _ZN11Query_arena15set_query_arenaEPS_@Base 10.11.8
 _ZN11Query_arenaD0Ev@Base 10.11.8
 _ZN11Query_arenaD1Ev@Base 10.11.8
 _ZN11Query_arenaD2Ev@Base 10.11.8
 _ZN11Query_cache10free_cacheEv@Base 10.11.8
 _ZN11Query_cache10free_queryEP17Query_cache_block@Base 10.11.8
 _ZN11Query_cache10init_cacheEv@Base 10.11.8
 _ZN11Query_cache10invalidateEP3THDP10TABLE_LISTc@Base 10.11.8
 _ZN11Query_cache10invalidateEP3THDP21st_changed_table_list@Base 10.11.8
 _ZN11Query_cache10invalidateEP3THDP5TABLEc@Base 10.11.8
 _ZN11Query_cache10invalidateEP3THDPKc@Base 10.11.8
 _ZN11Query_cache10invalidateEP3THDPKcmc@Base 10.11.8
 _ZN11Query_cache10pack_cacheEv@Base 10.11.8
 _ZN11Query_cache11flush_cacheEv@Base 10.11.8
 _ZN11Query_cache11split_blockEP17Query_cache_blockm@Base 10.11.8
 _ZN11Query_cache11store_queryEP3THDP10TABLE_LIST@Base 10.11.8
 _ZN11Query_cache12insert_tableEP3THDmPKcP23Query_cache_block_tablemhhPFcS1_S3_jPyEyc@Base 10.11.8
 _ZN11Query_cache12is_cacheableEP3THDP3LEXP10TABLE_LISTPh@Base 10.11.8
 _ZN11Query_cache12join_resultsEm@Base 10.11.8
 _ZN11Query_cache12move_by_typeEPPhPP17Query_cache_blockPmS3_@Base 10.11.8
 _ZN11Query_cache12unlink_tableEP23Query_cache_block_table@Base 10.11.8
 _ZN11Query_cache13end_of_resultEP3THD@Base 10.11.8
 _ZN11Query_cache13make_disabledEv@Base 10.11.8
 _ZN11Query_cache14allocate_blockEmcm@Base 10.11.8
 _ZN11Query_cache14free_old_queryEv@Base 10.11.8
 _ZN11Query_cache14get_free_blockEmcm@Base 10.11.8
 _ZN11Query_cache16invalidate_tableEP3THDP10TABLE_LIST@Base 10.11.8
 _ZN11Query_cache16invalidate_tableEP3THDP5TABLE@Base 10.11.8
 _ZN11Query_cache16invalidate_tableEP3THDPhm@Base 10.11.8
 _ZN11Query_cache16join_free_blocksEP17Query_cache_blockS1_@Base 10.11.8
 _ZN11Query_cache16lock_and_suspendEv@Base 10.11.8
 _ZN11Query_cache16set_min_res_unitEm@Base 10.11.8
 _ZN11Query_cache16write_block_dataEmPhmN17Query_cache_block10block_typeEj@Base 10.11.8
 _ZN11Query_cache17free_memory_blockEP17Query_cache_block@Base 10.11.8
 _ZN11Query_cache17write_result_dataEPP17Query_cache_blockmPhS1_NS0_10block_typeE@Base 10.11.8
 _ZN11Query_cache18append_result_dataEPP17Query_cache_blockmPhS1_@Base 10.11.8
 _ZN11Query_cache19allocate_data_chainEPP17Query_cache_blockmS1_c@Base 10.11.8
 _ZN11Query_cache19disable_query_cacheEP3THD@Base 10.11.8
 _ZN11Query_cache19free_query_internalEP17Query_cache_block@Base 10.11.8
 _ZN11Query_cache19register_all_tablesEP3THDP17Query_cache_blockP10TABLE_LISTj@Base 10.11.8
 _ZN11Query_cache20filename_2_table_keyEPcPKcPj@Base 10.11.8
 _ZN11Query_cache21ask_handler_allowanceEP3THDP10TABLE_LIST@Base 10.11.8
 _ZN11Query_cache21send_result_to_clientEP3THDPcj@Base 10.11.8
 _ZN11Query_cache22append_next_free_blockEP17Query_cache_blockm@Base 10.11.8
 _ZN11Query_cache22move_to_query_list_endEP17Query_cache_block@Base 10.11.8
 _ZN11Query_cache23double_linked_list_joinEP17Query_cache_blockS1_@Base 10.11.8
 _ZN11Query_cache24process_and_count_tablesEP3THDP10TABLE_LISTPh@Base 10.11.8
 _ZN11Query_cache25invalidate_table_internalEPhm@Base 10.11.8
 _ZN11Query_cache25register_tables_from_listEP3THDP10TABLE_LISTjPP23Query_cache_block_table@Base 10.11.8
 _ZN11Query_cache26double_linked_list_excludeEP17Query_cache_blockPS1_@Base 10.11.8
 _ZN11Query_cache27invalidate_locked_for_writeEP3THDP10TABLE_LIST@Base 10.11.8
 _ZN11Query_cache27invalidate_query_block_listEP23Query_cache_block_table@Base 10.11.8
 _ZN11Query_cache28insert_into_free_memory_listEP17Query_cache_block@Base 10.11.8
 _ZN11Query_cache29exclude_from_free_memory_listEP17Query_cache_block@Base 10.11.8
 _ZN11Query_cache29invalidate_by_MyISAM_filenameEPKc@Base 10.11.8
 _ZN11Query_cache33double_linked_list_simple_includeEP17Query_cache_blockPS1_@Base 10.11.8
 _ZN11Query_cache35insert_into_free_memory_sorted_listEP17Query_cache_blockPS1_@Base 10.11.8
 _ZN11Query_cache4initEv@Base 10.11.8
 _ZN11Query_cache4lockEP3THD@Base 10.11.8
 _ZN11Query_cache4packEP3THDmj@Base 10.11.8
 _ZN11Query_cache5abortEP3THDP15Query_cache_tls@Base 10.11.8
 _ZN11Query_cache5flushEv@Base 10.11.8
 _ZN11Query_cache6insertEP3THDP15Query_cache_tlsPKcmj@Base 10.11.8
 _ZN11Query_cache6relinkEP17Query_cache_blockS1_S1_S1_S1_S1_@Base 10.11.8
 _ZN11Query_cache6resizeEm@Base 10.11.8
 _ZN11Query_cache6unlockEv@Base 10.11.8
 _ZN11Query_cache7destroyEv@Base 10.11.8
 _ZN11Query_cache8find_binEm@Base 10.11.8
 _ZN11Query_cache8try_lockEP3THDNS_19Cache_try_lock_modeE@Base 10.11.8
 _ZN11Query_cacheC1Emmmjj@Base 10.11.8
 _ZN11Query_cacheC2Emmmjj@Base 10.11.8
 _ZN11SQL_HANDLER5resetEv@Base 10.11.8
 _ZN11SQL_HANDLERD1Ev@Base 10.11.8
 _ZN11SQL_HANDLERD2Ev@Base 10.11.8
 _ZN11String_list10append_strEP11st_mem_rootPKc@Base 10.11.8
 _ZN11Sys_var_bit13global_updateEP3THDP7set_var@Base 10.11.8
 _ZN11Sys_var_bit14session_updateEP3THDP7set_var@Base 10.11.8
 _ZN11Sys_var_bit19global_save_defaultEP3THDP7set_var@Base 10.11.8
 _ZN11Sys_var_bit20session_save_defaultEP3THDP7set_var@Base 10.11.8
 _ZN11Sys_var_bitC1EPKcS1_ilm8CMD_LINEycP8PolyLockN7sys_var18binlog_status_enumEPFbPS5_P3THDP7set_varEPFbS7_S9_13enum_var_typeES1_@Base 10.11.8
 _ZN11Sys_var_bitC2EPKcS1_ilm8CMD_LINEycP8PolyLockN7sys_var18binlog_status_enumEPFbPS5_P3THDP7set_varEPFbS7_S9_13enum_var_typeES1_@Base 10.11.8
 _ZN11Sys_var_bitD0Ev@Base 10.11.8
 _ZN11Sys_var_bitD1Ev@Base 10.11.8
 _ZN11Sys_var_bitD2Ev@Base 10.11.8
 _ZN11Sys_var_set13check_maximumEP3THDP7set_varPKcx@Base 10.11.8
 _ZN11Sys_var_set13global_updateEP3THDP7set_var@Base 10.11.8
 _ZN11Sys_var_set14session_updateEP3THDP7set_var@Base 10.11.8
 _ZN11Sys_var_set19global_save_defaultEP3THDP7set_var@Base 10.11.8
 _ZN11Sys_var_set20session_save_defaultEP3THDP7set_var@Base 10.11.8
 _ZN11Sys_var_set8do_checkEP3THDP7set_var@Base 10.11.8
 _ZN11Sys_var_setC1EPKcS1_ilm8CMD_LINEPS1_yP8PolyLockN7sys_var18binlog_status_enumEPFbPS6_P3THDP7set_varEPFbS8_SA_13enum_var_typeES1_@Base 10.11.8
 _ZN11Sys_var_setC2EPKcS1_ilm8CMD_LINEPS1_yP8PolyLockN7sys_var18binlog_status_enumEPFbPS6_P3THDP7set_varEPFbS8_SA_13enum_var_typeES1_@Base 10.11.8
 _ZN11Sys_var_setD0Ev@Base 10.11.8
 _ZN11Sys_var_setD1Ev@Base 10.11.8
 _ZN11Sys_var_setD2Ev@Base 10.11.8
 _ZN11TABLE_SHARE14free_frm_imageEPKh@Base 10.11.8
 _ZN11TABLE_SHARE14read_frm_imageEPPKhPm@Base 10.11.8
 _ZN11TABLE_SHARE14usable_indexesEP3THD@Base 10.11.8
 _ZN11TABLE_SHARE14visit_subgraphEP14Wait_for_flushP26MDL_wait_for_graph_visitor@Base 10.11.8
 _ZN11TABLE_SHARE15write_frm_imageEPKhm@Base 10.11.8
 _ZN11TABLE_SHARE15write_par_imageEPKhm@Base 10.11.8
 _ZN11TABLE_SHARE17histograms_existsEv@Base 10.11.8
 _ZN11TABLE_SHARE18actual_n_key_partsEP3THD@Base 10.11.8
 _ZN11TABLE_SHARE19set_ignored_indexesEv@Base 10.11.8
 _ZN11TABLE_SHARE19set_overlapped_keysEv@Base 10.11.8
 _ZN11TABLE_SHARE20wait_for_old_versionEP3THDP8timespecj@Base 10.11.8
 _ZN11TABLE_SHARE23init_period_from_extra2EPNS_13period_info_tEPKhS3_@Base 10.11.8
 _ZN11TABLE_SHARE26init_from_binary_frm_imageEP3THDbPKhmS3_m@Base 10.11.8
 _ZN11TABLE_SHARE30init_from_sql_statement_stringEP3THDbPKcm@Base 10.11.8
 _ZN11TABLE_SHARE31update_engine_independent_statsEP19TABLE_STATISTICS_CB@Base 10.11.8
 _ZN11TABLE_SHARE7destroyEv@Base 10.11.8
 _ZN11TC_LOG_MMAP12delete_entryEm@Base 10.11.8
 _ZN11TC_LOG_MMAP13log_and_orderEP3THDybbb@Base 10.11.8
 _ZN11TC_LOG_MMAP16unlog_xa_prepareEP3THDb@Base 10.11.8
 _ZN11TC_LOG_MMAP19log_one_transactionEy@Base 10.11.8
 _ZN11TC_LOG_MMAP20get_active_from_poolEv@Base 10.11.8
 _ZN11TC_LOG_MMAP24commit_checkpoint_notifyEPv@Base 10.11.8
 _ZN11TC_LOG_MMAP4openEPKc@Base 10.11.8
 _ZN11TC_LOG_MMAP4syncEv@Base 10.11.8
 _ZN11TC_LOG_MMAP5closeEv@Base 10.11.8
 _ZN11TC_LOG_MMAP5unlogEmy@Base 10.11.8
 _ZN11TC_LOG_MMAP7recoverEv@Base 10.11.8
 _ZN11TC_LOG_MMAP8overflowEv@Base 10.11.8
 _ZN11TC_LOG_MMAPD0Ev@Base 10.11.8
 _ZN11TC_LOG_MMAPD1Ev@Base 10.11.8
 _ZN11TC_LOG_MMAPD2Ev@Base 10.11.8
 _ZN11TDC_element12flush_unusedEb@Base 10.11.8
 _ZN11TDC_element5flushEP3THDb@Base 10.11.8
 _ZN11Table_ident25resolve_table_rowtype_refEP3THDR19Row_definition_list@Base 10.11.8
 _ZN11Type_holder11set_typelibEPK10st_typelib@Base 10.11.8
 _ZN11Type_holder19set_type_maybe_nullEb@Base 10.11.8
 _ZN11Type_holderD0Ev@Base 10.11.8
 _ZN11Type_holderD1Ev@Base 10.11.8
 _ZN11Type_holderD2Ev@Base 10.11.8
 _ZN11Update_plan24save_explain_data_internEP3THDP11st_mem_rootP14Explain_updateb@Base 10.11.8
 _ZN11Update_plan24save_explain_update_dataEP3THDP11st_mem_root@Base 10.11.8
 _ZN11Update_planD0Ev@Base 10.11.8
 _ZN11Update_planD1Ev@Base 10.11.8
 _ZN11Update_planD2Ev@Base 10.11.8
 _ZN11Utf8_narrow19should_do_narrowingEPK3THDPK15charset_info_stS5_@Base 10.11.8
 _ZN11Utf8_narrow19should_do_narrowingEPK5FieldPK15charset_info_st@Base 10.11.8
 _ZN11Utf8_narrowC1EP5Fieldb@Base 10.11.8
 _ZN11Utf8_narrowC2EP5Fieldb@Base 10.11.8
 _ZN11Window_spec11print_orderEP6String15enum_query_type@Base 10.11.8
 _ZN11Window_spec15print_partitionEP6String15enum_query_type@Base 10.11.8
 _ZN11Window_spec18check_window_namesER18List_iterator_fastIS_E@Base 10.11.8
 _ZN11Window_spec4nameEv@Base 10.11.8
 _ZN11Window_spec5printEP6String15enum_query_type@Base 10.11.8
 _ZN11Window_specD0Ev@Base 10.11.8
 _ZN11Window_specD1Ev@Base 10.11.8
 _ZN11Window_specD2Ev@Base 10.11.8
 _ZN11With_clause13check_anchorsEv@Base 10.11.8
 _ZN11With_clause14find_table_defEP10TABLE_LISTP12With_elementP18st_select_lex_unit@Base 10.11.8
 _ZN11With_clause16add_with_elementEP12With_element@Base 10.11.8
 _ZN11With_clause18check_dependenciesEv@Base 10.11.8
 _ZN11With_clause18move_anchors_aheadEv@Base 10.11.8
 _ZN11With_clause29prepare_unreferenced_elementsEP3THD@Base 10.11.8
 _ZN11With_clause5printEP3THDP6String15enum_query_type@Base 10.11.8
 _ZN11in_datetime3setEjP4Item@Base 10.11.8
 _ZN11in_datetime9get_valueEP4Item@Base 10.11.8
 _ZN11in_datetimeD0Ev@Base 10.11.8
 _ZN11in_datetimeD1Ev@Base 10.11.8
 _ZN11in_datetimeD2Ev@Base 10.11.8
 _ZN11in_longlong11create_itemEP3THD@Base 10.11.8
 _ZN11in_longlong13value_to_itemEjP4Item@Base 10.11.8
 _ZN11in_longlong3setEjP4Item@Base 10.11.8
 _ZN11in_longlong9get_valueEP4Item@Base 10.11.8
 _ZN11in_longlongC1EP3THDj@Base 10.11.8
 _ZN11in_longlongC2EP3THDj@Base 10.11.8
 _ZN11in_longlongD0Ev@Base 10.11.8
 _ZN11in_longlongD1Ev@Base 10.11.8
 _ZN11in_longlongD2Ev@Base 10.11.8
 _ZN11in_temporal11create_itemEP3THD@Base 10.11.8
 _ZN11in_temporal13value_to_itemEjP4Item@Base 10.11.8
 _ZN11in_temporalD0Ev@Base 10.11.8
 _ZN11in_temporalD1Ev@Base 10.11.8
 _ZN11in_temporalD2Ev@Base 10.11.8
 _ZN11my_var_user3setEP3THDP4Item@Base 10.11.8
 _ZN11my_var_userD0Ev@Base 10.11.8
 _ZN11my_var_userD1Ev@Base 10.11.8
 _ZN11my_var_userD2Ev@Base 10.11.8
 _ZN11select_dump7prepareER4ListI4ItemEP18st_select_lex_unit@Base 10.11.8
 _ZN11select_dump9send_dataER4ListI4ItemE@Base 10.11.8
 _ZN11select_dumpD0Ev@Base 10.11.8
 _ZN11select_dumpD1Ev@Base 10.11.8
 _ZN11select_dumpD2Ev@Base 10.11.8
 _ZN11select_send16abort_result_setEv@Base 10.11.8
 _ZN11select_send18result_interceptorEv@Base 10.11.8
 _ZN11select_send24send_result_set_metadataER4ListI4ItemEj@Base 10.11.8
 _ZN11select_send7cleanupEv@Base 10.11.8
 _ZN11select_send8send_eofEv@Base 10.11.8
 _ZN11select_send9send_dataER4ListI4ItemE@Base 10.11.8
 _ZN11select_sendD0Ev@Base 10.11.8
 _ZN11select_sendD1Ev@Base 10.11.8
 _ZN11select_sendD2Ev@Base 10.11.8
 _ZN11select_unit12write_recordEv@Base 10.11.8
 _ZN11select_unit13change_selectEv@Base 10.11.8
 _ZN11select_unit13delete_recordEv@Base 10.11.8
 _ZN11select_unit14update_counterEP5Fieldx@Base 10.11.8
 _ZN11select_unit17postponed_prepareER4ListI4ItemE@Base 10.11.8
 _ZN11select_unit19create_result_tableEP3THDP4ListI4ItemEbyPK25st_mysql_const_lex_stringbbbj@Base 10.11.8
 _ZN11select_unit28force_enable_index_if_neededEv@Base 10.11.8
 _ZN11select_unit5flushEv@Base 10.11.8
 _ZN11select_unit7cleanupEv@Base 10.11.8
 _ZN11select_unit7prepareER4ListI4ItemEP18st_select_lex_unit@Base 10.11.8
 _ZN11select_unit8send_eofEv@Base 10.11.8
 _ZN11select_unit9send_dataER4ListI4ItemE@Base 10.11.8
 _ZN11select_unitD0Ev@Base 10.11.8
 _ZN11select_unitD1Ev@Base 10.11.8
 _ZN11select_unitD2Ev@Base 10.11.8
 _ZN11sp_expr_lex10sp_if_exprEP3THD@Base 10.11.8
 _ZN11sp_expr_lex21case_stmt_action_exprEv@Base 10.11.8
 _ZN11sp_expr_lex21case_stmt_action_whenEb@Base 10.11.8
 _ZN11sp_expr_lex23sp_repeat_loop_finalizeEP3THD@Base 10.11.8
 _ZN11sp_expr_lex26sp_continue_when_statementEP3THD@Base 10.11.8
 _ZN11sp_expr_lex26sp_continue_when_statementEP3THDPK25st_mysql_const_lex_string@Base 10.11.8
 _ZN11sp_expr_lexD0Ev@Base 10.11.8
 _ZN11sp_expr_lexD1Ev@Base 10.11.8
 _ZN11sp_expr_lexD2Ev@Base 10.11.8
 _ZN11sp_pcontext10add_cursorEPK25st_mysql_const_lex_stringPS_P13sp_lex_cursor@Base 10.11.8
 _ZN11sp_pcontext10find_labelEPK25st_mysql_const_lex_string@Base 10.11.8
 _ZN11sp_pcontext10push_labelEP3THDPK25st_mysql_const_lex_stringjN8sp_label9enum_typeEP4ListIS5_E@Base 10.11.8
 _ZN11sp_pcontext11add_handlerEP3THDN10sp_handler9enum_typeE@Base 10.11.8
 _ZN11sp_pcontext11pop_contextEv@Base 10.11.8
 _ZN11sp_pcontext12add_variableEP3THDPK25st_mysql_const_lex_string@Base 10.11.8
 _ZN11sp_pcontext12push_contextEP3THDNS_10enum_scopeE@Base 10.11.8
 _ZN11sp_pcontext13add_conditionEP3THDPK25st_mysql_const_lex_stringP18sp_condition_value@Base 10.11.8
 _ZN11sp_pcontext15find_goto_labelEPK25st_mysql_const_lex_stringb@Base 10.11.8
 _ZN11sp_pcontext17declare_conditionEP3THDPK25st_mysql_const_lex_stringP18sp_condition_value@Base 10.11.8
 _ZN11sp_pcontext29find_label_current_loop_startEv@Base 10.11.8
 _ZN11sp_pcontext4initEjji@Base 10.11.8
 _ZN11sp_pcontextC1EPS_NS_10enum_scopeE@Base 10.11.8
 _ZN11sp_pcontextC1Ev@Base 10.11.8
 _ZN11sp_pcontextC2EPS_NS_10enum_scopeE@Base 10.11.8
 _ZN11sp_pcontextC2Ev@Base 10.11.8
 _ZN11sp_pcontextD1Ev@Base 10.11.8
 _ZN11sp_pcontextD2Ev@Base 10.11.8
 _ZN11sp_rcontext10pop_cursorEP3THD@Base 10.11.8
 _ZN11sp_rcontext11pop_cursorsEP3THDm@Base 10.11.8
 _ZN11sp_rcontext11push_cursorEP9sp_cursor@Base 10.11.8
 _ZN11sp_rcontext12alloc_arraysEP3THD@Base 10.11.8
 _ZN11sp_rcontext12exit_handlerEP16Diagnostics_area@Base 10.11.8
 _ZN11sp_rcontext12pop_handlersEm@Base 10.11.8
 _ZN11sp_rcontext12push_handlerEP19sp_instr_hpush_jump@Base 10.11.8
 _ZN11sp_rcontext12set_variableEP3THDjPP4Item@Base 10.11.8
 _ZN11sp_rcontext13set_case_exprEP3THDiPP4Item@Base 10.11.8
 _ZN11sp_rcontext14init_var_itemsEP3THDR4ListI16Spvar_definitionE@Base 10.11.8
 _ZN11sp_rcontext14init_var_tableEP3THDR4ListI16Spvar_definitionE@Base 10.11.8
 _ZN11sp_rcontext16set_return_valueEP3THDPP4Item@Base 10.11.8
 _ZN11sp_rcontext16set_variable_rowEP3THDjR4ListI4ItemE@Base 10.11.8
 _ZN11sp_rcontext20handle_sql_conditionEP3THDPjPK8sp_instr@Base 10.11.8
 _ZN11sp_rcontext22set_variable_row_fieldEP3THDjjPP4Item@Base 10.11.8
 _ZN11sp_rcontext25virtual_tmp_table_for_rowEj@Base 10.11.8
 _ZN11sp_rcontext30set_variable_row_field_by_nameEP3THDjRK25st_mysql_const_lex_stringPP4Item@Base 10.11.8
 _ZN11sp_rcontext31find_row_field_by_name_or_errorEPjjRK25st_mysql_const_lex_string@Base 10.11.8
 _ZN11sp_rcontext6createEP3THDPK7sp_headPK11sp_pcontextP5FieldR19Row_definition_list@Base 10.11.8
 _ZN11sp_rcontextC1EPK7sp_headPK11sp_pcontextP5Fieldb@Base 10.11.8
 _ZN11sp_rcontextC2EPK7sp_headPK11sp_pcontextP5Fieldb@Base 10.11.8
 _ZN11sp_rcontextD1Ev@Base 10.11.8
 _ZN11sp_rcontextD2Ev@Base 10.11.8
 _ZN11sp_variable14find_row_fieldEPK25st_mysql_const_lex_stringS2_Pj@Base 10.11.8
 _ZN11sql_ex_info10write_dataEP16Log_event_writer@Base 10.11.8
 _ZN11sql_ex_info4initEPKhS1_b@Base 10.11.8
 _ZN11thread_infoD0Ev@Base 10.11.8
 _ZN11thread_infoD1Ev@Base 10.11.8
 _ZN11thread_infoD2Ev@Base 10.11.8
 _ZN11udf_handler10fix_fieldsEP3THDP16Item_func_or_sumjPP4Item@Base 10.11.8
 _ZN11udf_handler11val_decimalEPcP10my_decimal@Base 10.11.8
 _ZN11udf_handler13get_argumentsEv@Base 10.11.8
 _ZN11udf_handler7cleanupEv@Base 10.11.8
 _ZN11udf_handler7val_strEP6StringS1_@Base 10.11.8
 _ZN11udf_handlerD1Ev@Base 10.11.8
 _ZN11udf_handlerD2Ev@Base 10.11.8
 _ZN12Buffered_log5printEv@Base 10.11.8
 _ZN12Buffered_logC1E8loglevelPKc@Base 10.11.8
 _ZN12Buffered_logC2E8loglevelPKc@Base 10.11.8
 _ZN12Create_fieldC1Ev@Base 10.11.8
 _ZN12Create_fieldC2Ev@Base 10.11.8
 _ZN12Create_qfunc11create_funcEP3THDPK25st_mysql_const_lex_stringP4ListI4ItemE@Base 10.11.8
 _ZN12Explain_node24print_explain_json_cacheEP11Json_writerb@Base 10.11.8
 _ZN12Explain_node26print_explain_for_childrenEP13Explain_queryP18select_result_sinkhb@Base 10.11.8
 _ZN12Explain_node31print_explain_json_for_childrenEP13Explain_queryP11Json_writerb@Base 10.11.8
 _ZN12Field_double11sort_stringEPhj@Base 10.11.8
 _ZN12Field_double17val_int_from_realEb@Base 10.11.8
 _ZN12Field_double18init_for_tmp_tableEP5FieldP5TABLE@Base 10.11.8
 _ZN12Field_double4sendEP8Protocol@Base 10.11.8
 _ZN12Field_double5resetEv@Base 10.11.8
 _ZN12Field_double5storeEPKcmPK15charset_info_st@Base 10.11.8
 _ZN12Field_double5storeEd@Base 10.11.8
 _ZN12Field_double5storeExb@Base 10.11.8
 _ZN12Field_double7val_intEv@Base 10.11.8
 _ZN12Field_double7val_strEP6StringS1_@Base 10.11.8
 _ZN12Field_double8val_realEv@Base 10.11.8
 _ZN12Field_double8val_uintEv@Base 10.11.8
 _ZN12Field_doubleD0Ev@Base 10.11.8
 _ZN12Field_doubleD1Ev@Base 10.11.8
 _ZN12Field_doubleD2Ev@Base 10.11.8
 _ZN12Field_medium11sort_stringEPhj@Base 10.11.8
 _ZN12Field_medium4packEPhPKhj@Base 10.11.8
 _ZN12Field_medium4sendEP8Protocol@Base 10.11.8
 _ZN12Field_medium5resetEv@Base 10.11.8
 _ZN12Field_medium5storeEPKcmPK15charset_info_st@Base 10.11.8
 _ZN12Field_medium5storeEd@Base 10.11.8
 _ZN12Field_medium5storeExb@Base 10.11.8
 _ZN12Field_medium7val_intEv@Base 10.11.8
 _ZN12Field_medium7val_strEP6StringS1_@Base 10.11.8
 _ZN12Field_medium8val_realEv@Base 10.11.8
 _ZN12Field_mediumD0Ev@Base 10.11.8
 _ZN12Field_mediumD1Ev@Base 10.11.8
 _ZN12Field_mediumD2Ev@Base 10.11.8
 _ZN12Field_string11sort_stringEPhj@Base 10.11.8
 _ZN12Field_string11val_decimalEP10my_decimal@Base 10.11.8
 _ZN12Field_string14make_new_fieldEP11st_mem_rootP5TABLEb@Base 10.11.8
 _ZN12Field_string15print_key_valueEP6Stringj@Base 10.11.8
 _ZN12Field_string17packed_col_lengthEPKhj@Base 10.11.8
 _ZN12Field_string18Warn_filter_stringC1EPK3THDPKS_@Base 10.11.8
 _ZN12Field_string18Warn_filter_stringC2EPK3THDPKS_@Base 10.11.8
 _ZN12Field_string21max_packed_col_lengthEj@Base 10.11.8
 _ZN12Field_string4packEPhPKhj@Base 10.11.8
 _ZN12Field_string5resetEv@Base 10.11.8
 _ZN12Field_string5storeEPKcmPK15charset_info_st@Base 10.11.8
 _ZN12Field_string6unpackEPhPKhS2_j@Base 10.11.8
 _ZN12Field_string7val_intEv@Base 10.11.8
 _ZN12Field_string7val_strEP6StringS1_@Base 10.11.8
 _ZN12Field_string8val_realEv@Base 10.11.8
 _ZN12Field_stringD0Ev@Base 10.11.8
 _ZN12Field_stringD1Ev@Base 10.11.8
 _ZN12Field_stringD2Ev@Base 10.11.8
 _ZN12Frame_cursor12pre_next_rowEv@Base 10.11.8
 _ZN12Frame_cursor18pre_next_partitionEy@Base 10.11.8
 _ZN12Frame_cursor4initEP11READ_RECORD@Base 10.11.8
 _ZN12Item_cond_or15neg_transformerEP3THD@Base 10.11.8
 _ZN12Item_cond_or20copy_andor_structureEP3THD@Base 10.11.8
 _ZN12Item_cond_or7val_intEv@Base 10.11.8
 _ZN12Item_cond_or8get_copyEP3THD@Base 10.11.8
 _ZN12Item_cond_orD0Ev@Base 10.11.8
 _ZN12Item_cond_orD1Ev@Base 10.11.8
 _ZN12Item_cond_orD2Ev@Base 10.11.8
 _ZN12Item_decimal10clone_itemEP3THD@Base 10.11.8
 _ZN12Item_decimal11val_decimalEP10my_decimal@Base 10.11.8
 _ZN12Item_decimal13save_in_fieldEP5Fieldb@Base 10.11.8
 _ZN12Item_decimal17set_decimal_valueEP10my_decimal@Base 10.11.8
 _ZN12Item_decimal3negEP3THD@Base 10.11.8
 _ZN12Item_decimal5printEP6String15enum_query_type@Base 10.11.8
 _ZN12Item_decimal7val_intEv@Base 10.11.8
 _ZN12Item_decimal7val_strEP6String@Base 10.11.8
 _ZN12Item_decimal8get_copyEP3THD@Base 10.11.8
 _ZN12Item_decimal8val_realEv@Base 10.11.8
 _ZN12Item_decimalC1EP3THDPK10my_decimal@Base 10.11.8
 _ZN12Item_decimalC1EP3THDPKcPK10my_decimaljj@Base 10.11.8
 _ZN12Item_decimalC1EP3THDPKcmPK15charset_info_st@Base 10.11.8
 _ZN12Item_decimalC1EP3THDPKhii@Base 10.11.8
 _ZN12Item_decimalC1EP3THDdii@Base 10.11.8
 _ZN12Item_decimalC1EP3THDxb@Base 10.11.8
 _ZN12Item_decimalC2EP3THDPK10my_decimal@Base 10.11.8
 _ZN12Item_decimalC2EP3THDPKcPK10my_decimaljj@Base 10.11.8
 _ZN12Item_decimalC2EP3THDPKcmPK15charset_info_st@Base 10.11.8
 _ZN12Item_decimalC2EP3THDPKhii@Base 10.11.8
 _ZN12Item_decimalC2EP3THDdii@Base 10.11.8
 _ZN12Item_decimalC2EP3THDxb@Base 10.11.8
 _ZN12Item_decimalD0Ev@Base 10.11.8
 _ZN12Item_decimalD1Ev@Base 10.11.8
 _ZN12Item_decimalD2Ev@Base 10.11.8
 _ZN12Item_extract15set_time_lengthEj@Base 10.11.8
 _ZN12Item_extract18fix_length_and_decEP3THD@Base 10.11.8
 _ZN12Item_extract25check_vcol_func_processorEPv@Base 10.11.8
 _ZN12Item_extract30check_partition_func_processorEPv@Base 10.11.8
 _ZN12Item_extract31check_valid_arguments_processorEPv@Base 10.11.8
 _ZN12Item_extract5printEP6String15enum_query_type@Base 10.11.8
 _ZN12Item_extract7val_intEv@Base 10.11.8
 _ZN12Item_extract8get_copyEP3THD@Base 10.11.8
 _ZN12Item_extractD0Ev@Base 10.11.8
 _ZN12Item_extractD1Ev@Base 10.11.8
 _ZN12Item_extractD2Ev@Base 10.11.8
 _ZN12Item_func_eq12negated_itemEP3THD@Base 10.11.8
 _ZN12Item_func_eq14add_key_fieldsEP4JOINPP9KEY_FIELDPjyPP14SARGABLE_PARAM@Base 10.11.8
 _ZN12Item_func_eq14check_equalityEP3THDP10COND_EQUALP4ListI4ItemE@Base 10.11.8
 _ZN12Item_func_eq17build_equal_itemsEP3THDP10COND_EQUALbPS3_@Base 10.11.8
 _ZN12Item_func_eq24exists2in_reserved_itemsEv@Base 10.11.8
 _ZN12Item_func_eq7val_intEv@Base 10.11.8
 _ZN12Item_func_eq8get_copyEP3THD@Base 10.11.8
 _ZN12Item_func_eqD0Ev@Base 10.11.8
 _ZN12Item_func_eqD1Ev@Base 10.11.8
 _ZN12Item_func_eqD2Ev@Base 10.11.8
 _ZN12Item_func_ge12negated_itemEP3THD@Base 10.11.8
 _ZN12Item_func_ge7val_intEv@Base 10.11.8
 _ZN12Item_func_ge8get_copyEP3THD@Base 10.11.8
 _ZN12Item_func_geD0Ev@Base 10.11.8
 _ZN12Item_func_geD1Ev@Base 10.11.8
 _ZN12Item_func_geD2Ev@Base 10.11.8
 _ZN12Item_func_gt12negated_itemEP3THD@Base 10.11.8
 _ZN12Item_func_gt7val_intEv@Base 10.11.8
 _ZN12Item_func_gt8get_copyEP3THD@Base 10.11.8
 _ZN12Item_func_gtD0Ev@Base 10.11.8
 _ZN12Item_func_gtD1Ev@Base 10.11.8
 _ZN12Item_func_gtD2Ev@Base 10.11.8
 _ZN12Item_func_if10fix_fieldsEP3THDPP4Item@Base 10.11.8
 _ZN12Item_func_if17fix_after_pulloutEP13st_select_lexPP4Itemb@Base 10.11.8
 _ZN12Item_func_if18fix_length_and_decEP3THD@Base 10.11.8
 _ZN12Item_func_if20eval_not_null_tablesEPv@Base 10.11.8
 _ZN12Item_func_if8get_copyEP3THD@Base 10.11.8
 _ZN12Item_func_ifD0Ev@Base 10.11.8
 _ZN12Item_func_ifD1Ev@Base 10.11.8
 _ZN12Item_func_ifD2Ev@Base 10.11.8
 _ZN12Item_func_in10fix_fieldsEP3THDPP4Item@Base 10.11.8
 _ZN12Item_func_in11build_cloneEP3THD@Base 10.11.8
 _ZN12Item_func_in11get_mm_treeEP15RANGE_OPT_PARAMPP4Item@Base 10.11.8
 _ZN12Item_func_in13fix_in_vectorEv@Base 10.11.8
 _ZN12Item_func_in14add_key_fieldsEP4JOINPP9KEY_FIELDPjyPP14SARGABLE_PARAM@Base 10.11.8
 _ZN12Item_func_in16get_func_mm_treeEP15RANGE_OPT_PARAMP5FieldP4Item@Base 10.11.8
 _ZN12Item_func_in17fix_after_pulloutEP13st_select_lexPP4Itemb@Base 10.11.8
 _ZN12Item_func_in18fix_length_and_decEP3THD@Base 10.11.8
 _ZN12Item_func_in18list_contains_nullEv@Base 10.11.8
 _ZN12Item_func_in20count_sargable_condsEPv@Base 10.11.8
 _ZN12Item_func_in20eval_not_null_tablesEPv@Base 10.11.8
 _ZN12Item_func_in20find_not_null_fieldsEy@Base 10.11.8
 _ZN12Item_func_in20get_func_row_mm_treeEP15RANGE_OPT_PARAMP8Item_row@Base 10.11.8
 _ZN12Item_func_in22propagate_equal_fieldsEP3THDRKN12Value_source7ContextEP10COND_EQUAL@Base 10.11.8
 _ZN12Item_func_in23max_length_of_left_exprEv@Base 10.11.8
 _ZN12Item_func_in25create_value_list_for_tvcEP3THDP4ListIS2_I4ItemEE@Base 10.11.8
 _ZN12Item_func_in26mark_as_condition_AND_partEP10TABLE_LIST@Base 10.11.8
 _ZN12Item_func_in28prepare_predicant_and_valuesEP3THDPj@Base 10.11.8
 _ZN12Item_func_in30to_be_transformed_into_in_subqEP3THD@Base 10.11.8
 _ZN12Item_func_in31value_list_convert_const_to_intEP3THD@Base 10.11.8
 _ZN12Item_func_in35in_predicate_to_in_subs_transformerEP3THDPh@Base 10.11.8
 _ZN12Item_func_in36in_predicate_to_equality_transformerEP3THDPh@Base 10.11.8
 _ZN12Item_func_in38fix_for_row_comparison_using_bisectionEP3THD@Base 10.11.8
 _ZN12Item_func_in38fix_for_row_comparison_using_cmp_itemsEP3THD@Base 10.11.8
 _ZN12Item_func_in41fix_for_scalar_comparison_using_cmp_itemsEP3THDj@Base 10.11.8
 _ZN12Item_func_in5printEP6String15enum_query_type@Base 10.11.8
 _ZN12Item_func_in7cleanupEv@Base 10.11.8
 _ZN12Item_func_in7val_intEv@Base 10.11.8
 _ZN12Item_func_in8get_copyEP3THD@Base 10.11.8
 _ZN12Item_func_inC1EP3THDR4ListI4ItemE@Base 10.11.8
 _ZN12Item_func_inC2EP3THDR4ListI4ItemE@Base 10.11.8
 _ZN12Item_func_inD0Ev@Base 10.11.8
 _ZN12Item_func_inD1Ev@Base 10.11.8
 _ZN12Item_func_inD2Ev@Base 10.11.8
 _ZN12Item_func_le12negated_itemEP3THD@Base 10.11.8
 _ZN12Item_func_le7val_intEv@Base 10.11.8
 _ZN12Item_func_le8get_copyEP3THD@Base 10.11.8
 _ZN12Item_func_leD0Ev@Base 10.11.8
 _ZN12Item_func_leD1Ev@Base 10.11.8
 _ZN12Item_func_leD2Ev@Base 10.11.8
 _ZN12Item_func_ln8get_copyEP3THD@Base 10.11.8
 _ZN12Item_func_ln8val_realEv@Base 10.11.8
 _ZN12Item_func_lnD0Ev@Base 10.11.8
 _ZN12Item_func_lnD1Ev@Base 10.11.8
 _ZN12Item_func_lnD2Ev@Base 10.11.8
 _ZN12Item_func_lt12negated_itemEP3THD@Base 10.11.8
 _ZN12Item_func_lt7val_intEv@Base 10.11.8
 _ZN12Item_func_lt8get_copyEP3THD@Base 10.11.8
 _ZN12Item_func_ltD0Ev@Base 10.11.8
 _ZN12Item_func_ltD1Ev@Base 10.11.8
 _ZN12Item_func_ltD2Ev@Base 10.11.8
 _ZN12Item_func_ne12negated_itemEP3THD@Base 10.11.8
 _ZN12Item_func_ne14add_key_fieldsEP4JOINPP9KEY_FIELDPjyPP14SARGABLE_PARAM@Base 10.11.8
 _ZN12Item_func_ne16get_func_mm_treeEP15RANGE_OPT_PARAMP5FieldP4Item@Base 10.11.8
 _ZN12Item_func_ne7val_intEv@Base 10.11.8
 _ZN12Item_func_ne8get_copyEP3THD@Base 10.11.8
 _ZN12Item_func_neD0Ev@Base 10.11.8
 _ZN12Item_func_neD1Ev@Base 10.11.8
 _ZN12Item_func_neD2Ev@Base 10.11.8
 _ZN12Item_func_sp10fix_fieldsEP3THDPP4Item@Base 10.11.8
 _ZN12Item_func_sp10val_nativeEP3THDP6Native@Base 10.11.8
 _ZN12Item_func_sp11val_decimalEP10my_decimal@Base 10.11.8
 _ZN12Item_func_sp12is_expensiveEv@Base 10.11.8
 _ZN12Item_func_sp15make_send_fieldEP3THDP10Send_field@Base 10.11.8
 _ZN12Item_func_sp17update_null_valueEv@Base 10.11.8
 _ZN12Item_func_sp18fix_length_and_decEP3THD@Base 10.11.8
 _ZN12Item_func_sp18update_used_tablesEv@Base 10.11.8
 _ZN12Item_func_sp19create_tmp_field_exEP11st_mem_rootP5TABLEP13Tmp_field_srcPK15Tmp_field_param@Base 10.11.8
 _ZN12Item_func_sp20eval_not_null_tablesEPv@Base 10.11.8
 _ZN12Item_func_sp20find_not_null_fieldsEy@Base 10.11.8
 _ZN12Item_func_sp22is_expensive_processorEPv@Base 10.11.8
 _ZN12Item_func_sp24change_context_processorEPv@Base 10.11.8
 _ZN12Item_func_sp25check_vcol_func_processorEPv@Base 10.11.8
 _ZN12Item_func_sp27excl_dep_on_grouping_fieldsEP13st_select_lex@Base 10.11.8
 _ZN12Item_func_sp30create_field_for_create_selectEP11st_mem_rootP5TABLE@Base 10.11.8
 _ZN12Item_func_sp40limit_index_condition_pushdown_processorEPv@Base 10.11.8
 _ZN12Item_func_sp7cleanupEv@Base 10.11.8
 _ZN12Item_func_sp7executeEv@Base 10.11.8
 _ZN12Item_func_sp7val_intEv@Base 10.11.8
 _ZN12Item_func_sp7val_strEP6String@Base 10.11.8
 _ZN12Item_func_sp8get_copyEP3THD@Base 10.11.8
 _ZN12Item_func_sp8get_dateEP3THDP13st_mysql_time11date_mode_t@Base 10.11.8
 _ZN12Item_func_sp8val_realEv@Base 10.11.8
 _ZN12Item_func_spC1EP3THDP23Name_resolution_contextP7sp_namePK10Sp_handler@Base 10.11.8
 _ZN12Item_func_spC1EP3THDP23Name_resolution_contextP7sp_namePK10Sp_handlerR4ListI4ItemE@Base 10.11.8
 _ZN12Item_func_spC2EP3THDP23Name_resolution_contextP7sp_namePK10Sp_handler@Base 10.11.8
 _ZN12Item_func_spC2EP3THDP23Name_resolution_contextP7sp_namePK10Sp_handlerR4ListI4ItemE@Base 10.11.8
 _ZN12Item_func_spD0Ev@Base 10.11.8
 _ZN12Item_func_spD1Ev@Base 10.11.8
 _ZN12Item_func_spD2Ev@Base 10.11.8
 _ZN12Item_splocal10check_colsEj@Base 10.11.8
 _ZN12Item_splocal10fix_fieldsEP3THDPP4Item@Base 10.11.8
 _ZN12Item_splocal13element_indexEj@Base 10.11.8
 _ZN12Item_splocal14append_for_logEP3THDP6String@Base 10.11.8
 _ZN12Item_splocal14this_item_addrEP3THDPP4Item@Base 10.11.8
 _ZN12Item_splocal16get_item_splocalEv@Base 10.11.8
 _ZN12Item_splocal20append_value_for_logEP3THDP6String@Base 10.11.8
 _ZN12Item_splocal30create_field_for_create_selectEP11st_mem_rootP5TABLE@Base 10.11.8
 _ZN12Item_splocal30get_rewritable_query_parameterEv@Base 10.11.8
 _ZN12Item_splocal30get_settable_routine_parameterEv@Base 10.11.8
 _ZN12Item_splocal4addrEj@Base 10.11.8
 _ZN12Item_splocal5printEP6String15enum_query_type@Base 10.11.8
 _ZN12Item_splocal8get_copyEP3THD@Base 10.11.8
 _ZN12Item_splocal9set_valueEP3THDP11sp_rcontextPP4Item@Base 10.11.8
 _ZN12Item_splocal9this_itemEv@Base 10.11.8
 _ZN12Item_splocalC1EP3THDPK19Sp_rcontext_handlerPK25st_mysql_const_lex_stringjPK12Type_handlerjj@Base 10.11.8
 _ZN12Item_splocalC2EP3THDPK19Sp_rcontext_handlerPK25st_mysql_const_lex_stringjPK12Type_handlerjj@Base 10.11.8
 _ZN12Item_splocalD0Ev@Base 10.11.8
 _ZN12Item_splocalD1Ev@Base 10.11.8
 _ZN12Item_splocalD2Ev@Base 10.11.8
 _ZN12Item_sum_and12copy_or_sameEP3THD@Base 10.11.8
 _ZN12Item_sum_and22set_bits_from_countersEv@Base 10.11.8
 _ZN12Item_sum_and3addEv@Base 10.11.8
 _ZN12Item_sum_and8get_copyEP3THD@Base 10.11.8
 _ZN12Item_sum_andD0Ev@Base 10.11.8
 _ZN12Item_sum_andD1Ev@Base 10.11.8
 _ZN12Item_sum_andD2Ev@Base 10.11.8
 _ZN12Item_sum_avg11reset_fieldEv@Base 10.11.8
 _ZN12Item_sum_avg11result_itemEP3THDP5Field@Base 10.11.8
 _ZN12Item_sum_avg11val_decimalEP10my_decimal@Base 10.11.8
 _ZN12Item_sum_avg12copy_or_sameEP3THD@Base 10.11.8
 _ZN12Item_sum_avg12update_fieldEv@Base 10.11.8
 _ZN12Item_sum_avg16create_tmp_fieldEP11st_mem_rootbP5TABLE@Base 10.11.8
 _ZN12Item_sum_avg17no_rows_in_resultEv@Base 10.11.8
 _ZN12Item_sum_avg18fix_length_and_decEP3THD@Base 10.11.8
 _ZN12Item_sum_avg25fix_length_and_dec_doubleEv@Base 10.11.8
 _ZN12Item_sum_avg26fix_length_and_dec_decimalEv@Base 10.11.8
 _ZN12Item_sum_avg3addEv@Base 10.11.8
 _ZN12Item_sum_avg5clearEv@Base 10.11.8
 _ZN12Item_sum_avg6removeEv@Base 10.11.8
 _ZN12Item_sum_avg7cleanupEv@Base 10.11.8
 _ZN12Item_sum_avg7val_intEv@Base 10.11.8
 _ZN12Item_sum_avg7val_strEP6String@Base 10.11.8
 _ZN12Item_sum_avg8get_copyEP3THD@Base 10.11.8
 _ZN12Item_sum_avg8val_realEv@Base 10.11.8
 _ZN12Item_sum_avgD0Ev@Base 10.11.8
 _ZN12Item_sum_avgD1Ev@Base 10.11.8
 _ZN12Item_sum_avgD2Ev@Base 10.11.8
 _ZN12Item_sum_bit11reset_fieldEv@Base 10.11.8
 _ZN12Item_sum_bit12update_fieldEv@Base 10.11.8
 _ZN12Item_sum_bit13add_as_windowEy@Base 10.11.8
 _ZN12Item_sum_bit15clear_as_windowEv@Base 10.11.8
 _ZN12Item_sum_bit16remove_as_windowEy@Base 10.11.8
 _ZN12Item_sum_bit17setup_window_funcEP3THDP11Window_spec@Base 10.11.8
 _ZN12Item_sum_bit18fix_length_and_decEP3THD@Base 10.11.8
 _ZN12Item_sum_bit5clearEv@Base 10.11.8
 _ZN12Item_sum_bit6removeEv@Base 10.11.8
 _ZN12Item_sum_bit7cleanupEv@Base 10.11.8
 _ZN12Item_sum_bit7val_intEv@Base 10.11.8
 _ZN12Item_sum_int11val_decimalEP10my_decimal@Base 10.11.8
 _ZN12Item_sum_int18fix_length_and_decEP3THD@Base 10.11.8
 _ZN12Item_sum_int7val_strEP6String@Base 10.11.8
 _ZN12Item_sum_int8get_dateEP3THDP13st_mysql_time11date_mode_t@Base 10.11.8
 _ZN12Item_sum_int8val_realEv@Base 10.11.8
 _ZN12Item_sum_lag8get_copyEP3THD@Base 10.11.8
 _ZN12Item_sum_lagD0Ev@Base 10.11.8
 _ZN12Item_sum_lagD1Ev@Base 10.11.8
 _ZN12Item_sum_lagD2Ev@Base 10.11.8
 _ZN12Item_sum_max12copy_or_sameEP3THD@Base 10.11.8
 _ZN12Item_sum_max3addEv@Base 10.11.8
 _ZN12Item_sum_max8get_copyEP3THD@Base 10.11.8
 _ZN12Item_sum_maxD0Ev@Base 10.11.8
 _ZN12Item_sum_maxD1Ev@Base 10.11.8
 _ZN12Item_sum_maxD2Ev@Base 10.11.8
 _ZN12Item_sum_min12copy_or_sameEP3THD@Base 10.11.8
 _ZN12Item_sum_min3addEv@Base 10.11.8
 _ZN12Item_sum_min8get_copyEP3THD@Base 10.11.8
 _ZN12Item_sum_minD0Ev@Base 10.11.8
 _ZN12Item_sum_minD1Ev@Base 10.11.8
 _ZN12Item_sum_minD2Ev@Base 10.11.8
 _ZN12Item_sum_num10fix_fieldsEP3THDPP4Item@Base 10.11.8
 _ZN12Item_sum_std11result_itemEP3THDP5Field@Base 10.11.8
 _ZN12Item_sum_std12copy_or_sameEP3THD@Base 10.11.8
 _ZN12Item_sum_std8get_copyEP3THD@Base 10.11.8
 _ZN12Item_sum_std8val_realEv@Base 10.11.8
 _ZN12Item_sum_stdD0Ev@Base 10.11.8
 _ZN12Item_sum_stdD1Ev@Base 10.11.8
 _ZN12Item_sum_stdD2Ev@Base 10.11.8
 _ZN12Item_sum_sum10add_helperEb@Base 10.11.8
 _ZN12Item_sum_sum10direct_addEP10my_decimal@Base 10.11.8
 _ZN12Item_sum_sum10direct_addEdb@Base 10.11.8
 _ZN12Item_sum_sum11reset_fieldEv@Base 10.11.8
 _ZN12Item_sum_sum11val_decimalEP10my_decimal@Base 10.11.8
 _ZN12Item_sum_sum12copy_or_sameEP3THD@Base 10.11.8
 _ZN12Item_sum_sum12update_fieldEv@Base 10.11.8
 _ZN12Item_sum_sum17no_rows_in_resultEv@Base 10.11.8
 _ZN12Item_sum_sum18fix_length_and_decEP3THD@Base 10.11.8
 _ZN12Item_sum_sum25fix_length_and_dec_doubleEv@Base 10.11.8
 _ZN12Item_sum_sum26fix_length_and_dec_decimalEv@Base 10.11.8
 _ZN12Item_sum_sum3addEv@Base 10.11.8
 _ZN12Item_sum_sum5clearEv@Base 10.11.8
 _ZN12Item_sum_sum6removeEv@Base 10.11.8
 _ZN12Item_sum_sum7cleanupEv@Base 10.11.8
 _ZN12Item_sum_sum7val_intEv@Base 10.11.8
 _ZN12Item_sum_sum7val_strEP6String@Base 10.11.8
 _ZN12Item_sum_sum8get_copyEP3THD@Base 10.11.8
 _ZN12Item_sum_sum8get_dateEP3THDP13st_mysql_time11date_mode_t@Base 10.11.8
 _ZN12Item_sum_sum8val_realEv@Base 10.11.8
 _ZN12Item_sum_sumC1EP3THDP4Itemb@Base 10.11.8
 _ZN12Item_sum_sumC1EP3THDPS_@Base 10.11.8
 _ZN12Item_sum_sumC2EP3THDP4Itemb@Base 10.11.8
 _ZN12Item_sum_sumC2EP3THDPS_@Base 10.11.8
 _ZN12Item_sum_sumD0Ev@Base 10.11.8
 _ZN12Item_sum_sumD1Ev@Base 10.11.8
 _ZN12Item_sum_sumD2Ev@Base 10.11.8
 _ZN12Item_sum_xor12copy_or_sameEP3THD@Base 10.11.8
 _ZN12Item_sum_xor22set_bits_from_countersEv@Base 10.11.8
 _ZN12Item_sum_xor3addEv@Base 10.11.8
 _ZN12Item_sum_xor8get_copyEP3THD@Base 10.11.8
 _ZN12Item_sum_xorD0Ev@Base 10.11.8
 _ZN12Item_sum_xorD1Ev@Base 10.11.8
 _ZN12Item_sum_xorD2Ev@Base 10.11.8
 _ZN12Item_udf_sum10fix_fieldsEP3THDPP4Item@Base 10.11.8
 _ZN12Item_udf_sum11reset_fieldEv@Base 10.11.8
 _ZN12Item_udf_sum12update_fieldEv@Base 10.11.8
 _ZN12Item_udf_sum3addEv@Base 10.11.8
 _ZN12Item_udf_sum5clearEv@Base 10.11.8
 _ZN12Item_udf_sum5printEP6String15enum_query_type@Base 10.11.8
 _ZN12Item_udf_sum6removeEv@Base 10.11.8
 _ZN12Item_udf_sum7cleanupEv@Base 10.11.8
 _ZN12Item_udf_sum8get_dateEP3THDP13st_mysql_time11date_mode_t@Base 10.11.8
 _ZN12SJ_TMP_TABLE20sj_weedout_check_rowEP3THD@Base 10.11.8
 _ZN12SJ_TMP_TABLE22sj_weedout_delete_rowsEv@Base 10.11.8
 _ZN12SJ_TMP_TABLE27create_sj_weedout_tmp_tableEP3THD@Base 10.11.8
 _ZN12Schema_maxdbD0Ev@Base 10.11.8
 _ZN12Schema_maxdbD1Ev@Base 10.11.8
 _ZN12Schema_maxdbD2Ev@Base 10.11.8
 _ZN12Sql_cmd_call7executeEP3THD@Base 10.11.8
 _ZN12Sql_cmd_callD0Ev@Base 10.11.8
 _ZN12Sql_cmd_callD1Ev@Base 10.11.8
 _ZN12Sql_cmd_callD2Ev@Base 10.11.8
 _ZN12Sys_var_enum13check_maximumEP3THDP7set_varPKcx@Base 10.11.8
 _ZN12Sys_var_enum13global_updateEP3THDP7set_var@Base 10.11.8
 _ZN12Sys_var_enum14session_updateEP3THDP7set_var@Base 10.11.8
 _ZN12Sys_var_enum19global_save_defaultEP3THDP7set_var@Base 10.11.8
 _ZN12Sys_var_enum20session_save_defaultEP3THDP7set_var@Base 10.11.8
 _ZN12Sys_var_enumC1EPKcS1_ilm8CMD_LINEPS1_jP8PolyLockN7sys_var18binlog_status_enumEPFbPS6_P3THDP7set_varEPFbS8_SA_13enum_var_typeES1_@Base 10.11.8
 _ZN12Sys_var_enumC2EPKcS1_ilm8CMD_LINEPS1_jP8PolyLockN7sys_var18binlog_status_enumEPFbPS6_P3THDP7set_varEPFbS8_SA_13enum_var_typeES1_@Base 10.11.8
 _ZN12Sys_var_enumD0Ev@Base 10.11.8
 _ZN12Sys_var_enumD1Ev@Base 10.11.8
 _ZN12Sys_var_enumD2Ev@Base 10.11.8
 _ZN12Sys_var_have13global_updateEP3THDP7set_var@Base 10.11.8
 _ZN12Sys_var_have14session_updateEP3THDP7set_var@Base 10.11.8
 _ZN12Sys_var_have19global_save_defaultEP3THDP7set_var@Base 10.11.8
 _ZN12Sys_var_have20session_save_defaultEP3THDP7set_var@Base 10.11.8
 _ZN12Sys_var_have8do_checkEP3THDP7set_var@Base 10.11.8
 _ZN12Sys_var_haveC1EPKcS1_ilm8CMD_LINEP8PolyLockN7sys_var18binlog_status_enumEPFbPS5_P3THDP7set_varEPFbS7_S9_13enum_var_typeES1_@Base 10.11.8
 _ZN12Sys_var_haveC2EPKcS1_ilm8CMD_LINEP8PolyLockN7sys_var18binlog_status_enumEPFbPS5_P3THDP7set_varEPFbS7_S9_13enum_var_typeES1_@Base 10.11.8
 _ZN12Sys_var_haveD0Ev@Base 10.11.8
 _ZN12Sys_var_haveD1Ev@Base 10.11.8
 _ZN12Sys_var_haveD2Ev@Base 10.11.8
 _ZN12TC_LOG_DUMMY13log_and_orderEP3THDybbb@Base 10.11.8
 _ZN12TC_LOG_DUMMY16unlog_xa_prepareEP3THDb@Base 10.11.8
 _ZN12TC_LOG_DUMMY24commit_checkpoint_notifyEPv@Base 10.11.8
 _ZN12TC_LOG_DUMMY4openEPKc@Base 10.11.8
 _ZN12TC_LOG_DUMMY5closeEv@Base 10.11.8
 _ZN12TC_LOG_DUMMY5unlogEmy@Base 10.11.8
 _ZN12TC_LOG_DUMMYD0Ev@Base 10.11.8
 _ZN12TC_LOG_DUMMYD1Ev@Base 10.11.8
 _ZN12TC_LOG_DUMMYD2Ev@Base 10.11.8
 _ZN12Thread_cacheD1Ev@Base 10.11.8
 _ZN12Thread_cacheD2Ev@Base 10.11.8
 _ZN12Time_zone_dbC1EP17st_time_zone_infoPK6String@Base 10.11.8
 _ZN12Time_zone_dbC2EP17st_time_zone_infoPK6String@Base 10.11.8
 _ZN12Time_zone_dbD0Ev@Base 10.11.8
 _ZN12Time_zone_dbD1Ev@Base 10.11.8
 _ZN12Time_zone_dbD2Ev@Base 10.11.8
 _ZN12Type_handler15handler_by_nameEP3THDRK25st_mysql_const_lex_string@Base 10.11.8
 _ZN12Type_handler15version_mysql56Ev@Base 10.11.8
 _ZN12Type_handler17blob_type_handlerEPK4Item@Base 10.11.8
 _ZN12Type_handler17blob_type_handlerEj@Base 10.11.8
 _ZN12Type_handler17version_mariadb53Ev@Base 10.11.8
 _ZN12Type_handler19string_type_handlerEj@Base 10.11.8
 _ZN12Type_handler22varstring_type_handlerEPK4Item@Base 10.11.8
 _ZN12Type_handler24get_handler_by_real_typeE16enum_field_types@Base 10.11.8
 _ZN12Type_handler24handler_by_name_or_errorEP3THDRK25st_mysql_const_lex_string@Base 10.11.8
 _ZN12Type_handler25get_handler_by_field_typeE16enum_field_types@Base 10.11.8
 _ZN12Type_handler25odbc_literal_type_handlerEPK25st_mysql_const_lex_string@Base 10.11.8
 _ZN12Type_handler27bit_and_int_mixture_handlerEj@Base 10.11.8
 _ZN12Type_handler29type_handler_long_or_longlongEjb@Base 10.11.8
 _ZN12Type_handler30handler_by_log_event_data_typeEP3THDRK19Log_event_data_type@Base 10.11.8
 _ZN12Type_handler31type_collection_for_aggregationEPKS_S1_@Base 10.11.8
 _ZN12Type_handler32aggregate_for_result_traditionalEPKS_S1_@Base 10.11.8
 _ZN12Type_handler32partition_field_type_not_allowedERK25st_mysql_const_lex_string@Base 10.11.8
 _ZN12Type_handler33partition_field_check_result_typeEP4Item11Item_result@Base 10.11.8
 _ZN12Value_source11Warn_filterC1EPK3THD@Base 10.11.8
 _ZN12Value_source11Warn_filterC2EPK3THD@Base 10.11.8
 _ZN12Value_source28Converter_double_to_longlong12push_warningEP3THDdb@Base 10.11.8
 _ZN12Value_source28Converter_double_to_longlongC1Edb@Base 10.11.8
 _ZN12Value_source28Converter_double_to_longlongC2Edb@Base 10.11.8
 _ZN12Warning_info11free_memoryEv@Base 10.11.8
 _ZN12Warning_info12push_warningEP3THDPK13Sql_condition@Base 10.11.8
 _ZN12Warning_info12push_warningEP3THDPK22Sql_condition_identityPKcm@Base 10.11.8
 _ZN12Warning_info13reserve_spaceEP3THDj@Base 10.11.8
 _ZN12Warning_info19append_warning_infoEP3THDPKS_@Base 10.11.8
 _ZN12Warning_info28remove_marked_sql_conditionsEv@Base 10.11.8
 _ZN12Warning_info31mark_sql_conditions_for_removalEv@Base 10.11.8
 _ZN12Warning_info4initEv@Base 10.11.8
 _ZN12Warning_info5clearEy@Base 10.11.8
 _ZN12Warning_infoC1Eybb@Base 10.11.8
 _ZN12Warning_infoC2Eybb@Base 10.11.8
 _ZN12Warning_infoD1Ev@Base 10.11.8
 _ZN12Warning_infoD2Ev@Base 10.11.8
 _ZN12Window_frame18check_frame_boundsEv@Base 10.11.8
 _ZN12Window_frame5printEP6String15enum_query_type@Base 10.11.8
 _ZN12With_element14set_cycle_listEP4ListI13Lex_ident_sysE@Base 10.11.8
 _ZN12With_element17clone_parsed_specEP3LEXP10TABLE_LIST@Base 10.11.8
 _ZN12With_element17set_unparsed_specEP3THDPKcS3_x@Base 10.11.8
 _ZN12With_element18move_anchors_aheadEv@Base 10.11.8
 _ZN12With_element20prepare_unreferencedEP3THD@Base 10.11.8
 _ZN12With_element22instantiate_tmp_tablesEv@Base 10.11.8
 _ZN12With_element26check_dependencies_in_specEv@Base 10.11.8
 _ZN12With_element26check_dependencies_in_unitEP18st_select_lex_unitP17st_unit_ctxt_elembPy@Base 10.11.8
 _ZN12With_element28check_dependencies_in_selectEP13st_select_lexP17st_unit_ctxt_elembPy@Base 10.11.8
 _ZN12With_element28check_unrestricted_recursiveEP13st_select_lexRyS2_@Base 10.11.8
 _ZN12With_element31find_first_sq_rec_ref_in_selectEP13st_select_lex@Base 10.11.8
 _ZN12With_element31process_columns_of_derived_unitEP3THDP18st_select_lex_unit@Base 10.11.8
 _ZN12With_element33check_dependencies_in_with_clauseEP11With_clauseP17st_unit_ctxt_elembPy@Base 10.11.8
 _ZN12With_element5printEP3THDP6String15enum_query_type@Base 10.11.8
 _ZN12With_element9is_anchorEP13st_select_lex@Base 10.11.8
 _ZN12cmp_item_int11store_valueEP4Item@Base 10.11.8
 _ZN12cmp_item_int12cmp_not_nullEPK5Value@Base 10.11.8
 _ZN12cmp_item_int3cmpEP4Item@Base 10.11.8
 _ZN12cmp_item_int7compareEP8cmp_item@Base 10.11.8
 _ZN12cmp_item_int9make_sameEP3THD@Base 10.11.8
 _ZN12cmp_item_intD0Ev@Base 10.11.8
 _ZN12cmp_item_intD1Ev@Base 10.11.8
 _ZN12cmp_item_intD2Ev@Base 10.11.8
 _ZN12cmp_item_row11store_valueEP4Item@Base 10.11.8
 _ZN12cmp_item_row12cmp_not_nullEPK5Value@Base 10.11.8
 _ZN12cmp_item_row17alloc_comparatorsEP3THDj@Base 10.11.8
 _ZN12cmp_item_row19prepare_comparatorsEP3THDRK25st_mysql_const_lex_stringPK9Item_argsj@Base 10.11.8
 _ZN12cmp_item_row23store_value_by_templateEP3THDP8cmp_itemP4Item@Base 10.11.8
 _ZN12cmp_item_row37aggregate_row_elements_for_comparisonEP3THDP30Type_handler_hybrid_field_typeP9Item_argsRK25st_mysql_const_lex_stringjj@Base 10.11.8
 _ZN12cmp_item_row3cmpEP4Item@Base 10.11.8
 _ZN12cmp_item_row7compareEP8cmp_item@Base 10.11.8
 _ZN12cmp_item_row9make_sameEP3THD@Base 10.11.8
 _ZN12cmp_item_rowD0Ev@Base 10.11.8
 _ZN12cmp_item_rowD1Ev@Base 10.11.8
 _ZN12cmp_item_rowD2Ev@Base 10.11.8
 _ZN12gtid_waiting12wait_for_posEP3THDP6Stringx@Base 10.11.8
 _ZN12gtid_waiting13wait_for_gtidEP3THDP8rpl_gtidP8timespec@Base 10.11.8
 _ZN12gtid_waiting17process_wait_hashEyPNS_12hash_elementE@Base 10.11.8
 _ZN12gtid_waiting18promote_new_waiterEPNS_12hash_elementE@Base 10.11.8
 _ZN12gtid_waiting22register_in_wait_queueEP3THDP8rpl_gtidPNS_12hash_elementEPNS_13queue_elementE@Base 10.11.8
 _ZN12gtid_waiting22remove_from_wait_queueEPNS_12hash_elementEPNS_13queue_elementE@Base 10.11.8
 _ZN12gtid_waiting4initEv@Base 10.11.8
 _ZN12gtid_waiting7destroyEv@Base 10.11.8
 _ZN12gtid_waiting9get_entryEj@Base 10.11.8
 _ZN12in_timestamp11create_itemEP3THD@Base 10.11.8
 _ZN12in_timestamp13value_to_itemEjP4Item@Base 10.11.8
 _ZN12in_timestamp3setEjP4Item@Base 10.11.8
 _ZN12in_timestamp9get_valueEP4Item@Base 10.11.8
 _ZN12in_timestampC1EP3THDj@Base 10.11.8
 _ZN12in_timestampC2EP3THDj@Base 10.11.8
 _ZN12in_timestampD0Ev@Base 10.11.8
 _ZN12in_timestampD1Ev@Base 10.11.8
 _ZN12in_timestampD2Ev@Base 10.11.8
 _ZN12multi_delete10do_deletesEv@Base 10.11.8
 _ZN12multi_delete16abort_result_setEv@Base 10.11.8
 _ZN12multi_delete16do_table_deletesEP5TABLEP9SORT_INFOb@Base 10.11.8
 _ZN12multi_delete17initialize_tablesEP4JOIN@Base 10.11.8
 _ZN12multi_delete20prepare_to_read_rowsEv@Base 10.11.8
 _ZN12multi_delete7prepareER4ListI4ItemEP18st_select_lex_unit@Base 10.11.8
 _ZN12multi_delete8send_eofEv@Base 10.11.8
 _ZN12multi_delete9send_dataER4ListI4ItemE@Base 10.11.8
 _ZN12multi_deleteC1EP3THDP10TABLE_LISTj@Base 10.11.8
 _ZN12multi_deleteC2EP3THDP10TABLE_LISTj@Base 10.11.8
 _ZN12multi_deleteD0Ev@Base 10.11.8
 _ZN12multi_deleteD1Ev@Base 10.11.8
 _ZN12multi_deleteD2Ev@Base 10.11.8
 _ZN12multi_update10do_updatesEv@Base 10.11.8
 _ZN12multi_update16abort_result_setEv@Base 10.11.8
 _ZN12multi_update17initialize_tablesEP4JOIN@Base 10.11.8
 _ZN12multi_update18update_used_tablesEv@Base 10.11.8
 _ZN12multi_update20prepare_to_read_rowsEv@Base 10.11.8
 _ZN12multi_update4initEP3THD@Base 10.11.8
 _ZN12multi_update7prepareER4ListI4ItemEP18st_select_lex_unit@Base 10.11.8
 _ZN12multi_update8prepare2EP4JOIN@Base 10.11.8
 _ZN12multi_update8send_eofEv@Base 10.11.8
 _ZN12multi_update9send_dataER4ListI4ItemE@Base 10.11.8
 _ZN12multi_updateC1EP3THDP10TABLE_LISTP4ListIS2_EPS4_I4ItemES9_15enum_duplicatesb@Base 10.11.8
 _ZN12multi_updateC2EP3THDP10TABLE_LISTP4ListIS2_EPS4_I4ItemES9_15enum_duplicatesb@Base 10.11.8
 _ZN12multi_updateD0Ev@Base 10.11.8
 _ZN12multi_updateD1Ev@Base 10.11.8
 _ZN12multi_updateD2Ev@Base 10.11.8
 _ZN12set_var_base11light_checkEP3THD@Base 10.11.8
 _ZN12set_var_base9is_systemEv@Base 10.11.8
 _ZN12set_var_role5checkEP3THD@Base 10.11.8
 _ZN12set_var_role6updateEP3THD@Base 10.11.8
 _ZN12set_var_roleD0Ev@Base 10.11.8
 _ZN12set_var_roleD1Ev@Base 10.11.8
 _ZN12set_var_roleD2Ev@Base 10.11.8
 _ZN12set_var_user11light_checkEP3THD@Base 10.11.8
 _ZN12set_var_user5checkEP3THD@Base 10.11.8
 _ZN12set_var_user6updateEP3THD@Base 10.11.8
 _ZN12set_var_userD0Ev@Base 10.11.8
 _ZN12set_var_userD1Ev@Base 10.11.8
 _ZN12set_var_userD2Ev@Base 10.11.8
 _ZN12sp_instr_set12get_psi_infoEv@Base 10.11.8
 _ZN12sp_instr_set5printEP6String@Base 10.11.8
 _ZN12sp_instr_set7executeEP3THDPj@Base 10.11.8
 _ZN12sp_instr_set8psi_infoE@Base 10.11.8
 _ZN12sp_instr_set9exec_coreEP3THDPj@Base 10.11.8
 _ZN12sp_instr_setD0Ev@Base 10.11.8
 _ZN12sp_instr_setD1Ev@Base 10.11.8
 _ZN12sp_instr_setD2Ev@Base 10.11.8
 _ZN12sp_lex_localC1EP3THDPK3LEX@Base 10.11.8
 _ZN12sp_lex_localC2EP3THDPK3LEX@Base 10.11.8
 _ZN12sp_lex_localD0Ev@Base 10.11.8
 _ZN12sp_lex_localD1Ev@Base 10.11.8
 _ZN12sp_lex_localD2Ev@Base 10.11.8
 _ZN12sql_exchangeC1EPKcb13enum_filetype@Base 10.11.8
 _ZN12sql_exchangeC2EPKcb13enum_filetype@Base 10.11.8
 _ZN12st_lex_localD0Ev@Base 10.11.8
 _ZN12st_lex_localD1Ev@Base 10.11.8
 _ZN12st_lex_localD2Ev@Base 10.11.8
 _ZN12st_table_ref19is_access_triggeredEv@Base 10.11.8
 _ZN12st_table_ref27tmp_table_index_lookup_initEP3THDP6st_keyR13Item_iteratorbj@Base 10.11.8
 _ZN13Binary_string10real_allocEm@Base 10.11.8
 _ZN13Binary_string11realloc_rawEm@Base 10.11.8
 _ZN13Binary_string12copy_or_moveEPKcm@Base 10.11.8
 _ZN13Binary_string13qs_append_hexEPKcj@Base 10.11.8
 _ZN13Binary_string15append_longlongEx@Base 10.11.8
 _ZN13Binary_string16append_ulonglongEy@Base 10.11.8
 _ZN13Binary_string19copy_printable_hhhhEPK15charset_info_stS2_PKcm@Base 10.11.8
 _ZN13Binary_string20qs_append_hex_uint32Ej@Base 10.11.8
 _ZN13Binary_string4copyEPKcm@Base 10.11.8
 _ZN13Binary_string4copyERKS_@Base 10.11.8
 _ZN13Binary_string4copyEv@Base 10.11.8
 _ZN13Binary_string4fillEmc@Base 10.11.8
 _ZN13Binary_string5c_ptrEv@Base 10.11.8
 _ZN13Binary_string6appendEP11st_io_cachej@Base 10.11.8
 _ZN13Binary_string6shrinkEm@Base 10.11.8
 _ZN13Binary_string7replaceEjjPKcj@Base 10.11.8
 _ZN13Binary_string7reserveEmm@Base 10.11.8
 _ZN13Binary_string7set_hexEPKcj@Base 10.11.8
 _ZN13Binary_string7set_hexEy@Base 10.11.8
 _ZN13Binary_string8set_fcvtEdj@Base 10.11.8
 _ZN13Binary_string9qs_appendEPKcm@Base 10.11.8
 _ZN13Binary_string9qs_appendEPKd@Base 10.11.8
 _ZN13Binary_string9qs_appendEd@Base 10.11.8
 _ZN13Binary_string9qs_appendEi@Base 10.11.8
 _ZN13Binary_string9qs_appendEy@Base 10.11.8
 _ZN13Buffered_logs4initEv@Base 10.11.8
 _ZN13Buffered_logs5printEv@Base 10.11.8
 _ZN13Buffered_logs6bufferE8loglevelPKc@Base 10.11.8
 _ZN13Buffered_logs7cleanupEv@Base 10.11.8
 _ZN13Create_func_x11s_singletonE@Base 10.11.8
 _ZN13Create_func_x12create_1_argEP3THDP4Item@Base 10.11.8
 _ZN13Create_func_xD0Ev@Base 10.11.8
 _ZN13Create_func_xD1Ev@Base 10.11.8
 _ZN13Create_func_xD2Ev@Base 10.11.8
 _ZN13Create_func_y11s_singletonE@Base 10.11.8
 _ZN13Create_func_y12create_1_argEP3THDP4Item@Base 10.11.8
 _ZN13Create_func_yD0Ev@Base 10.11.8
 _ZN13Create_func_yD1Ev@Base 10.11.8
 _ZN13Create_func_yD2Ev@Base 10.11.8
 _ZN13Ed_connection14add_result_setEP13Ed_result_set@Base 10.11.8
 _ZN13Ed_connection14execute_directEP8Protocol19st_mysql_lex_string@Base 10.11.8
 _ZN13Ed_connection14execute_directEP8ProtocolP15Server_runnable@Base 10.11.8
 _ZN13Ed_connection15free_old_resultEv@Base 10.11.8
 _ZN13Ed_connection16store_result_setEv@Base 10.11.8
 _ZN13Ed_connectionC1EP3THD@Base 10.11.8
 _ZN13Ed_connectionC2EP3THD@Base 10.11.8
 _ZN13Ed_result_setC1EP4ListI6Ed_rowEmP11st_mem_root@Base 10.11.8
 _ZN13Ed_result_setC2EP4ListI6Ed_rowEmP11st_mem_root@Base 10.11.8
 _ZN13Ed_result_setdlEPvm@Base 10.11.8
 _ZN13ErrConvDQNameD0Ev@Base 10.11.8
 _ZN13ErrConvDQNameD1Ev@Base 10.11.8
 _ZN13ErrConvDQNameD2Ev@Base 10.11.8
 _ZN13Explain_query10get_selectEj@Base 10.11.8
 _ZN13Explain_query12send_explainEP3THDb@Base 10.11.8
 _ZN13Explain_query13print_explainEP18select_result_sinkhb@Base 10.11.8
 _ZN13Explain_query15add_insert_planEP14Explain_insert@Base 10.11.8
 _ZN13Explain_query16add_upd_del_planEP14Explain_update@Base 10.11.8
 _ZN13Explain_query16query_plan_readyEv@Base 10.11.8
 _ZN13Explain_query17print_explain_strEP3THDP6Stringb@Base 10.11.8
 _ZN13Explain_query18print_explain_jsonEP18select_result_sinkby@Base 10.11.8
 _ZN13Explain_query23print_query_blocks_jsonEP11Json_writerb@Base 10.11.8
 _ZN13Explain_query24notify_tables_are_closedEv@Base 10.11.8
 _ZN13Explain_query27send_explain_json_to_outputEP11Json_writerP18select_result_sink@Base 10.11.8
 _ZN13Explain_query29print_query_optimization_jsonEP11Json_writer@Base 10.11.8
 _ZN13Explain_query8add_nodeEP12Explain_node@Base 10.11.8
 _ZN13Explain_query8get_nodeEj@Base 10.11.8
 _ZN13Explain_query9get_unionEj@Base 10.11.8
 _ZN13Explain_queryC1EP3THDP11st_mem_root@Base 10.11.8
 _ZN13Explain_queryC2EP3THDP11st_mem_root@Base 10.11.8
 _ZN13Explain_queryD1Ev@Base 10.11.8
 _ZN13Explain_queryD2Ev@Base 10.11.8
 _ZN13Explain_union13get_select_idEv@Base 10.11.8
 _ZN13Explain_union13print_explainEP13Explain_queryP18select_result_sinkhb@Base 10.11.8
 _ZN13Explain_union18print_explain_jsonEP13Explain_queryP11Json_writerb@Base 10.11.8
 _ZN13Explain_union21make_union_table_nameEPc@Base 10.11.8
 _ZN13Explain_union8get_typeEv@Base 10.11.8
 _ZN13Explain_unionD0Ev@Base 10.11.8
 _ZN13Explain_unionD1Ev@Base 10.11.8
 _ZN13Explain_unionD2Ev@Base 10.11.8
 _ZN13Field_decimal11sort_stringEPhj@Base 10.11.8
 _ZN13Field_decimal14make_new_fieldEP11st_mem_rootP5TABLEb@Base 10.11.8
 _ZN13Field_decimal4packEPhPKhj@Base 10.11.8
 _ZN13Field_decimal5resetEv@Base 10.11.8
 _ZN13Field_decimal5storeEPKcmPK15charset_info_st@Base 10.11.8
 _ZN13Field_decimal5storeEd@Base 10.11.8
 _ZN13Field_decimal5storeExb@Base 10.11.8
 _ZN13Field_decimal7val_intEv@Base 10.11.8
 _ZN13Field_decimal7val_strEP6StringS1_@Base 10.11.8
 _ZN13Field_decimal8overflowEb@Base 10.11.8
 _ZN13Field_decimal8val_realEv@Base 10.11.8
 _ZN13Field_decimalD0Ev@Base 10.11.8
 _ZN13Field_decimalD1Ev@Base 10.11.8
 _ZN13Field_decimalD2Ev@Base 10.11.8
 _ZN13Field_longstr13store_decimalEPK10my_decimal@Base 10.11.8
 _ZN13Field_longstr15make_send_fieldEP10Send_field@Base 10.11.8
 _ZN13Field_longstr16pack_sort_stringEPhPK15SORT_FIELD_ATTR@Base 10.11.8
 _ZN13Field_longstr23check_string_copy_errorEPK13String_copierPKcPK15charset_info_st@Base 10.11.8
 _ZN13Field_longstr24report_if_important_dataEPKcS1_b@Base 10.11.8
 _ZN13Field_longstr25make_packed_sort_key_partEPhPK15SORT_FIELD_ATTR@Base 10.11.8
 _ZN13Field_longstr4sendEP8Protocol@Base 10.11.8
 _ZN13Field_longstr8compressEPcjPKcjjPjPK15charset_info_stm@Base 10.11.8
 _ZN13Field_newdate10store_TIMEEPK13st_mysql_time@Base 10.11.8
 _ZN13Field_newdate11sort_stringEPhj@Base 10.11.8
 _ZN13Field_newdate19val_datetime_packedEP3THD@Base 10.11.8
 _ZN13Field_newdate20get_equal_const_itemEP3THDRKN12Value_source7ContextEP4Item@Base 10.11.8
 _ZN13Field_newdate4sendEP8Protocol@Base 10.11.8
 _ZN13Field_newdate5resetEv@Base 10.11.8
 _ZN13Field_newdate7val_intEv@Base 10.11.8
 _ZN13Field_newdate7val_strEP6StringS1_@Base 10.11.8
 _ZN13Field_newdate8get_dateEP13st_mysql_time11date_mode_t@Base 10.11.8
 _ZN13Field_newdate8val_realEv@Base 10.11.8
 _ZN13Field_newdateD0Ev@Base 10.11.8
 _ZN13Field_newdateD1Ev@Base 10.11.8
 _ZN13Field_newdateD2Ev@Base 10.11.8
 _ZN13Item_cond_and11get_mm_treeEP15RANGE_OPT_PARAMPP4Item@Base 10.11.8
 _ZN13Item_cond_and14add_key_fieldsEP4JOINPP9KEY_FIELDPjyPP14SARGABLE_PARAM@Base 10.11.8
 _ZN13Item_cond_and15neg_transformerEP3THD@Base 10.11.8
 _ZN13Item_cond_and17build_equal_itemsEP3THDP10COND_EQUALbPS3_@Base 10.11.8
 _ZN13Item_cond_and20copy_andor_structureEP3THD@Base 10.11.8
 _ZN13Item_cond_and24exists2in_reserved_itemsEv@Base 10.11.8
 _ZN13Item_cond_and26mark_as_condition_AND_partEP10TABLE_LIST@Base 10.11.8
 _ZN13Item_cond_and7val_intEv@Base 10.11.8
 _ZN13Item_cond_and8get_copyEP3THD@Base 10.11.8
 _ZN13Item_cond_andD0Ev@Base 10.11.8
 _ZN13Item_cond_andD1Ev@Base 10.11.8
 _ZN13Item_cond_andD2Ev@Base 10.11.8
 _ZN13Item_datefunc11val_decimalEP10my_decimal@Base 10.11.8
 _ZN13Item_datefunc18fix_length_and_decEP3THD@Base 10.11.8
 _ZN13Item_datefunc7val_intEv@Base 10.11.8
 _ZN13Item_datefunc7val_strEP6String@Base 10.11.8
 _ZN13Item_datefunc8val_realEv@Base 10.11.8
 _ZN13Item_datetime13save_in_fieldEP5Fieldb@Base 10.11.8
 _ZN13Item_datetime3setEx25enum_mysql_timestamp_type@Base 10.11.8
 _ZN13Item_datetime7val_intEv@Base 10.11.8
 _ZN13Item_datetime8get_dateEP3THDP13st_mysql_time11date_mode_t@Base 10.11.8
 _ZN13Item_datetime8val_realEv@Base 10.11.8
 _ZN13Item_datetimeD0Ev@Base 10.11.8
 _ZN13Item_datetimeD1Ev@Base 10.11.8
 _ZN13Item_datetimeD2Ev@Base 10.11.8
 _ZN13Item_dec_func18fix_length_and_decEP3THD@Base 10.11.8
 _ZN13Item_func_abs10decimal_opEP10my_decimal@Base 10.11.8
 _ZN13Item_func_abs18fix_length_and_decEP3THD@Base 10.11.8
 _ZN13Item_func_abs22fix_length_and_dec_intEv@Base 10.11.8
 _ZN13Item_func_abs25fix_length_and_dec_doubleEv@Base 10.11.8
 _ZN13Item_func_abs26fix_length_and_dec_decimalEv@Base 10.11.8
 _ZN13Item_func_abs27fix_length_and_dec_sint_ge0Ev@Base 10.11.8
 _ZN13Item_func_abs6int_opEv@Base 10.11.8
 _ZN13Item_func_abs7real_opEv@Base 10.11.8
 _ZN13Item_func_abs8get_copyEP3THD@Base 10.11.8
 _ZN13Item_func_absD0Ev@Base 10.11.8
 _ZN13Item_func_absD1Ev@Base 10.11.8
 _ZN13Item_func_absD2Ev@Base 10.11.8
 _ZN13Item_func_chr18fix_length_and_decEP3THD@Base 10.11.8
 _ZN13Item_func_chr7val_strEP6String@Base 10.11.8
 _ZN13Item_func_chr8get_copyEP3THD@Base 10.11.8
 _ZN13Item_func_chrD0Ev@Base 10.11.8
 _ZN13Item_func_chrD1Ev@Base 10.11.8
 _ZN13Item_func_chrD2Ev@Base 10.11.8
 _ZN13Item_func_cos8get_copyEP3THD@Base 10.11.8
 _ZN13Item_func_cos8val_realEv@Base 10.11.8
 _ZN13Item_func_cosD0Ev@Base 10.11.8
 _ZN13Item_func_cosD1Ev@Base 10.11.8
 _ZN13Item_func_cosD2Ev@Base 10.11.8
 _ZN13Item_func_cot8get_copyEP3THD@Base 10.11.8
 _ZN13Item_func_cot8val_realEv@Base 10.11.8
 _ZN13Item_func_cotD0Ev@Base 10.11.8
 _ZN13Item_func_cotD1Ev@Base 10.11.8
 _ZN13Item_func_cotD2Ev@Base 10.11.8
 _ZN13Item_func_div10decimal_opEP10my_decimal@Base 10.11.8
 _ZN13Item_func_div16result_precisionEv@Base 10.11.8
 _ZN13Item_func_div18fix_length_and_decEP3THD@Base 10.11.8
 _ZN13Item_func_div22fix_length_and_dec_intEv@Base 10.11.8
 _ZN13Item_func_div25fix_length_and_dec_doubleEv@Base 10.11.8
 _ZN13Item_func_div6int_opEv@Base 10.11.8
 _ZN13Item_func_div7real_opEv@Base 10.11.8
 _ZN13Item_func_div8get_copyEP3THD@Base 10.11.8
 _ZN13Item_func_divD0Ev@Base 10.11.8
 _ZN13Item_func_divD1Ev@Base 10.11.8
 _ZN13Item_func_divD2Ev@Base 10.11.8
 _ZN13Item_func_elt18fix_length_and_decEP3THD@Base 10.11.8
 _ZN13Item_func_elt7val_intEv@Base 10.11.8
 _ZN13Item_func_elt7val_strEP6String@Base 10.11.8
 _ZN13Item_func_elt8get_copyEP3THD@Base 10.11.8
 _ZN13Item_func_elt8val_realEv@Base 10.11.8
 _ZN13Item_func_eltD0Ev@Base 10.11.8
 _ZN13Item_func_eltD1Ev@Base 10.11.8
 _ZN13Item_func_eltD2Ev@Base 10.11.8
 _ZN13Item_func_exp8get_copyEP3THD@Base 10.11.8
 _ZN13Item_func_exp8val_realEv@Base 10.11.8
 _ZN13Item_func_expD0Ev@Base 10.11.8
 _ZN13Item_func_expD1Ev@Base 10.11.8
 _ZN13Item_func_expD2Ev@Base 10.11.8
 _ZN13Item_func_hex13val_str_asciiEP6String@Base 10.11.8
 _ZN13Item_func_hex18fix_length_and_decEP3THD@Base 10.11.8
 _ZN13Item_func_hex26val_str_ascii_from_val_intEP6String@Base 10.11.8
 _ZN13Item_func_hex26val_str_ascii_from_val_strEP6String@Base 10.11.8
 _ZN13Item_func_hex27val_str_ascii_from_val_realEP6String@Base 10.11.8
 _ZN13Item_func_hex8get_copyEP3THD@Base 10.11.8
 _ZN13Item_func_hexD0Ev@Base 10.11.8
 _ZN13Item_func_hexD1Ev@Base 10.11.8
 _ZN13Item_func_hexD2Ev@Base 10.11.8
 _ZN13Item_func_log8get_copyEP3THD@Base 10.11.8
 _ZN13Item_func_log8val_realEv@Base 10.11.8
 _ZN13Item_func_logD0Ev@Base 10.11.8
 _ZN13Item_func_logD1Ev@Base 10.11.8
 _ZN13Item_func_logD2Ev@Base 10.11.8
 _ZN13Item_func_max8get_copyEP3THD@Base 10.11.8
 _ZN13Item_func_maxD0Ev@Base 10.11.8
 _ZN13Item_func_maxD1Ev@Base 10.11.8
 _ZN13Item_func_maxD2Ev@Base 10.11.8
 _ZN13Item_func_md513val_str_asciiEP6String@Base 10.11.8
 _ZN13Item_func_md518fix_length_and_decEP3THD@Base 10.11.8
 _ZN13Item_func_md58get_copyEP3THD@Base 10.11.8
 _ZN13Item_func_md5D0Ev@Base 10.11.8
 _ZN13Item_func_md5D1Ev@Base 10.11.8
 _ZN13Item_func_md5D2Ev@Base 10.11.8
 _ZN13Item_func_min8get_copyEP3THD@Base 10.11.8
 _ZN13Item_func_minD0Ev@Base 10.11.8
 _ZN13Item_func_minD1Ev@Base 10.11.8
 _ZN13Item_func_minD2Ev@Base 10.11.8
 _ZN13Item_func_mod10decimal_opEP10my_decimal@Base 10.11.8
 _ZN13Item_func_mod16result_precisionEv@Base 10.11.8
 _ZN13Item_func_mod18fix_length_and_decEP3THD@Base 10.11.8
 _ZN13Item_func_mod25check_vcol_func_processorEPv@Base 10.11.8
 _ZN13Item_func_mod30check_partition_func_processorEPv@Base 10.11.8
 _ZN13Item_func_mod6int_opEv@Base 10.11.8
 _ZN13Item_func_mod7real_opEv@Base 10.11.8
 _ZN13Item_func_mod8get_copyEP3THD@Base 10.11.8
 _ZN13Item_func_modD0Ev@Base 10.11.8
 _ZN13Item_func_modD1Ev@Base 10.11.8
 _ZN13Item_func_modD2Ev@Base 10.11.8
 _ZN13Item_func_mul10decimal_opEP10my_decimal@Base 10.11.8
 _ZN13Item_func_mul16result_precisionEv@Base 10.11.8
 _ZN13Item_func_mul18fix_length_and_decEP3THD@Base 10.11.8
 _ZN13Item_func_mul25check_vcol_func_processorEPv@Base 10.11.8
 _ZN13Item_func_mul30check_partition_func_processorEPv@Base 10.11.8
 _ZN13Item_func_mul6int_opEv@Base 10.11.8
 _ZN13Item_func_mul7real_opEv@Base 10.11.8
 _ZN13Item_func_mul8get_copyEP3THD@Base 10.11.8
 _ZN13Item_func_mulD0Ev@Base 10.11.8
 _ZN13Item_func_mulD1Ev@Base 10.11.8
 _ZN13Item_func_mulD2Ev@Base 10.11.8
 _ZN13Item_func_neg10decimal_opEP10my_decimal@Base 10.11.8
 _ZN13Item_func_neg18fix_length_and_decEP3THD@Base 10.11.8
 _ZN13Item_func_neg22fix_length_and_dec_intEv@Base 10.11.8
 _ZN13Item_func_neg25fix_length_and_dec_doubleEv@Base 10.11.8
 _ZN13Item_func_neg26fix_length_and_dec_decimalEv@Base 10.11.8
 _ZN13Item_func_neg27need_parentheses_in_defaultEv@Base 10.11.8
 _ZN13Item_func_neg5printEP6String15enum_query_type@Base 10.11.8
 _ZN13Item_func_neg6int_opEv@Base 10.11.8
 _ZN13Item_func_neg7real_opEv@Base 10.11.8
 _ZN13Item_func_neg8get_copyEP3THD@Base 10.11.8
 _ZN13Item_func_negD0Ev@Base 10.11.8
 _ZN13Item_func_negD1Ev@Base 10.11.8
 _ZN13Item_func_negD2Ev@Base 10.11.8
 _ZN13Item_func_not10fix_fieldsEP3THDPP4Item@Base 10.11.8
 _ZN13Item_func_not15neg_transformerEP3THD@Base 10.11.8
 _ZN13Item_func_not20find_not_null_fieldsEy@Base 10.11.8
 _ZN13Item_func_not5printEP6String15enum_query_type@Base 10.11.8
 _ZN13Item_func_not7val_intEv@Base 10.11.8
 _ZN13Item_func_not8get_copyEP3THD@Base 10.11.8
 _ZN13Item_func_notD0Ev@Base 10.11.8
 _ZN13Item_func_notD1Ev@Base 10.11.8
 _ZN13Item_func_notD2Ev@Base 10.11.8
 _ZN13Item_func_now10fix_fieldsEP3THDPP4Item@Base 10.11.8
 _ZN13Item_func_now18fix_length_and_decEP3THD@Base 10.11.8
 _ZN13Item_func_now25check_vcol_func_processorEPv@Base 10.11.8
 _ZN13Item_func_now5printEP6String15enum_query_type@Base 10.11.8
 _ZN13Item_func_now8get_dateEP3THDP13st_mysql_time11date_mode_t@Base 10.11.8
 _ZN13Item_func_ord18fix_length_and_decEP3THD@Base 10.11.8
 _ZN13Item_func_ord7val_intEv@Base 10.11.8
 _ZN13Item_func_ord8get_copyEP3THD@Base 10.11.8
 _ZN13Item_func_ordD0Ev@Base 10.11.8
 _ZN13Item_func_ordD1Ev@Base 10.11.8
 _ZN13Item_func_ordD2Ev@Base 10.11.8
 _ZN13Item_func_pad18fix_length_and_decEP3THD@Base 10.11.8
 _ZN13Item_func_pow8get_copyEP3THD@Base 10.11.8
 _ZN13Item_func_pow8val_realEv@Base 10.11.8
 _ZN13Item_func_powD0Ev@Base 10.11.8
 _ZN13Item_func_powD1Ev@Base 10.11.8
 _ZN13Item_func_powD2Ev@Base 10.11.8
 _ZN13Item_func_sha13val_str_asciiEP6String@Base 10.11.8
 _ZN13Item_func_sha18fix_length_and_decEP3THD@Base 10.11.8
 _ZN13Item_func_sha8get_copyEP3THD@Base 10.11.8
 _ZN13Item_func_shaD0Ev@Base 10.11.8
 _ZN13Item_func_shaD1Ev@Base 10.11.8
 _ZN13Item_func_shaD2Ev@Base 10.11.8
 _ZN13Item_func_sin8get_copyEP3THD@Base 10.11.8
 _ZN13Item_func_sin8val_realEv@Base 10.11.8
 _ZN13Item_func_sinD0Ev@Base 10.11.8
 _ZN13Item_func_sinD1Ev@Base 10.11.8
 _ZN13Item_func_sinD2Ev@Base 10.11.8
 _ZN13Item_func_tan8get_copyEP3THD@Base 10.11.8
 _ZN13Item_func_tan8val_realEv@Base 10.11.8
 _ZN13Item_func_tanD0Ev@Base 10.11.8
 _ZN13Item_func_tanD1Ev@Base 10.11.8
 _ZN13Item_func_tanD2Ev@Base 10.11.8
 _ZN13Item_func_xor15neg_transformerEP3THD@Base 10.11.8
 _ZN13Item_func_xor20find_not_null_fieldsEy@Base 10.11.8
 _ZN13Item_func_xor22propagate_equal_fieldsEP3THDRKN12Value_source7ContextEP10COND_EQUAL@Base 10.11.8
 _ZN13Item_func_xor5printEP6String15enum_query_type@Base 10.11.8
 _ZN13Item_func_xor7val_intEv@Base 10.11.8
 _ZN13Item_func_xor8get_copyEP3THD@Base 10.11.8
 _ZN13Item_func_xorD0Ev@Base 10.11.8
 _ZN13Item_func_xorD1Ev@Base 10.11.8
 _ZN13Item_func_xorD2Ev@Base 10.11.8
 _ZN13Item_int_func18fix_length_and_decEP3THD@Base 10.11.8
 _ZN13Item_int_func7val_strEP6String@Base 10.11.8
 _ZN13Item_int_func8val_realEv@Base 10.11.8
 _ZN13Item_int_funcC1EP3THDP4Item@Base 10.11.8
 _ZN13Item_int_funcC1EP3THDP4ItemS3_@Base 10.11.8
 _ZN13Item_int_funcC2EP3THDP4Item@Base 10.11.8
 _ZN13Item_int_funcC2EP3THDP4ItemS3_@Base 10.11.8
 _ZN13Item_proc_int11val_decimalEP10my_decimal@Base 10.11.8
 _ZN13Item_proc_int3setEPKcjPK15charset_info_st@Base 10.11.8
 _ZN13Item_proc_int3setEd@Base 10.11.8
 _ZN13Item_proc_int3setEx@Base 10.11.8
 _ZN13Item_proc_int7val_intEv@Base 10.11.8
 _ZN13Item_proc_int7val_strEP6String@Base 10.11.8
 _ZN13Item_proc_int8val_realEv@Base 10.11.8
 _ZN13Item_proc_intD0Ev@Base 10.11.8
 _ZN13Item_proc_intD1Ev@Base 10.11.8
 _ZN13Item_proc_intD2Ev@Base 10.11.8
 _ZN13Item_str_conv7val_strEP6String@Base 10.11.8
 _ZN13Item_str_func10fix_fieldsEP3THDPP4Item@Base 10.11.8
 _ZN13Item_str_func11val_decimalEP10my_decimal@Base 10.11.8
 _ZN13Item_str_func21left_right_max_lengthEv@Base 10.11.8
 _ZN13Item_str_func7val_intEv@Base 10.11.8
 _ZN13Item_str_func8val_realEv@Base 10.11.8
 _ZN13Item_str_funcC1EP3THDP4ItemS3_@Base 10.11.8
 _ZN13Item_str_funcC2EP3THDP4ItemS3_@Base 10.11.8
 _ZN13Item_sum_lead8get_copyEP3THD@Base 10.11.8
 _ZN13Item_sum_leadD0Ev@Base 10.11.8
 _ZN13Item_sum_leadD1Ev@Base 10.11.8
 _ZN13Item_sum_leadD2Ev@Base 10.11.8
 _ZN13Item_sum_rank11reset_fieldEv@Base 10.11.8
 _ZN13Item_sum_rank12update_fieldEv@Base 10.11.8
 _ZN13Item_sum_rank17setup_window_funcEP3THDP11Window_spec@Base 10.11.8
 _ZN13Item_sum_rank3addEv@Base 10.11.8
 _ZN13Item_sum_rank5clearEv@Base 10.11.8
 _ZN13Item_sum_rank7cleanupEv@Base 10.11.8
 _ZN13Item_sum_rank7val_intEv@Base 10.11.8
 _ZN13Item_sum_rank8get_copyEP3THD@Base 10.11.8
 _ZN13Item_sum_rankD0Ev@Base 10.11.8
 _ZN13Item_sum_rankD1Ev@Base 10.11.8
 _ZN13Item_sum_rankD2Ev@Base 10.11.8
 _ZN13Item_timefunc10val_nativeEP3THDP6Native@Base 10.11.8
 _ZN13Item_timefunc11val_decimalEP10my_decimal@Base 10.11.8
 _ZN13Item_timefunc7val_intEv@Base 10.11.8
 _ZN13Item_timefunc7val_strEP6String@Base 10.11.8
 _ZN13Item_timefunc8val_realEv@Base 10.11.8
 _ZN13Item_udf_func10fix_fieldsEP3THDPP4Item@Base 10.11.8
 _ZN13Item_udf_func12is_expensiveEv@Base 10.11.8
 _ZN13Item_udf_func18update_used_tablesEv@Base 10.11.8
 _ZN13Item_udf_func20eval_not_null_tablesEPv@Base 10.11.8
 _ZN13Item_udf_func20find_not_null_fieldsEy@Base 10.11.8
 _ZN13Item_udf_func22fix_num_length_and_decEv@Base 10.11.8
 _ZN13Item_udf_func22is_expensive_processorEPv@Base 10.11.8
 _ZN13Item_udf_func25check_vcol_func_processorEPv@Base 10.11.8
 _ZN13Item_udf_func27excl_dep_on_grouping_fieldsEP13st_select_lex@Base 10.11.8
 _ZN13Item_udf_func5printEP6String15enum_query_type@Base 10.11.8
 _ZN13Item_udf_func7cleanupEv@Base 10.11.8
 _ZN13Item_udf_func8get_dateEP3THDP13st_mysql_time11date_mode_t@Base 10.11.8
 _ZN13JOIN_TAB_SCAN15aux_buffer_incrEm@Base 10.11.8
 _ZN13JOIN_TAB_SCAN4nextEv@Base 10.11.8
 _ZN13JOIN_TAB_SCAN4openEv@Base 10.11.8
 _ZN13JOIN_TAB_SCAN5closeEv@Base 10.11.8
 _ZN13JOIN_TAB_SCAND0Ev@Base 10.11.8
 _ZN13JOIN_TAB_SCAND1Ev@Base 10.11.8
 _ZN13JOIN_TAB_SCAND2Ev@Base 10.11.8
 _ZN13Key_part_spec26init_multiple_key_for_blobEPK7handler@Base 10.11.8
 _ZN13MYSQL_BIN_LOG10reset_logsEP3THDbP8rpl_gtidjm@Base 10.11.8
 _ZN13MYSQL_BIN_LOG11write_cacheEP3THDP11st_io_cache@Base 10.11.8
 _ZN13MYSQL_BIN_LOG11write_eventEP9Log_eventP17binlog_cache_dataP11st_io_cache@Base 10.11.8
 _ZN13MYSQL_BIN_LOG12append_stateEP6String@Base 10.11.8
 _ZN13MYSQL_BIN_LOG12find_log_posEP11st_log_infoPKcb@Base 10.11.8
 _ZN13MYSQL_BIN_LOG12next_file_idEv@Base 10.11.8
 _ZN13MYSQL_BIN_LOG12set_max_sizeEm@Base 10.11.8
 _ZN13MYSQL_BIN_LOG13find_next_logEP11st_log_infob@Base 10.11.8
 _ZN13MYSQL_BIN_LOG13log_and_orderEP3THDybbb@Base 10.11.8
 _ZN13MYSQL_BIN_LOG13make_log_nameEPcPKc@Base 10.11.8
 _ZN13MYSQL_BIN_LOG13mark_xid_doneEmb@Base 10.11.8
 _ZN13MYSQL_BIN_LOG13new_file_implEv@Base 10.11.8
 _ZN13MYSQL_BIN_LOG14append_no_lockEP9Log_event@Base 10.11.8
 _ZN13MYSQL_BIN_LOG14flush_and_syncEPb@Base 10.11.8
 _ZN13MYSQL_BIN_LOG14is_empty_stateEv@Base 10.11.8
 _ZN13MYSQL_BIN_LOG14write_incidentEP3THD@Base 10.11.8
 _ZN13MYSQL_BIN_LOG15get_current_logEP11st_log_info@Base 10.11.8
 _ZN13MYSQL_BIN_LOG15is_xidlist_idleEv@Base 10.11.8
 _ZN13MYSQL_BIN_LOG15open_index_fileEPKcS1_b@Base 10.11.8
 _ZN13MYSQL_BIN_LOG15set_write_errorEP3THDb@Base 10.11.8
 _ZN13MYSQL_BIN_LOG16append_state_posEP6String@Base 10.11.8
 _ZN13MYSQL_BIN_LOG16mark_xids_activeEmj@Base 10.11.8
 _ZN13MYSQL_BIN_LOG16rotate_and_purgeEbP16st_dynamic_array@Base 10.11.8
 _ZN13MYSQL_BIN_LOG16unlog_xa_prepareEP3THDb@Base 10.11.8
 _ZN13MYSQL_BIN_LOG16write_gtid_eventEP3THDbbybb@Base 10.11.8
 _ZN13MYSQL_BIN_LOG17check_cache_errorEP3THDP17binlog_cache_data@Base 10.11.8
 _ZN13MYSQL_BIN_LOG17check_write_errorEP3THD@Base 10.11.8
 _ZN13MYSQL_BIN_LOG17generate_new_nameEPcPKcm@Base 10.11.8
 _ZN13MYSQL_BIN_LOG17is_query_in_unionEP3THDx@Base 10.11.8
 _ZN13MYSQL_BIN_LOG17stop_union_eventsEP3THD@Base 10.11.8
 _ZN13MYSQL_BIN_LOG18do_binlog_recoveryEPKcb@Base 10.11.8
 _ZN13MYSQL_BIN_LOG18start_union_eventsEP3THDx@Base 10.11.8
 _ZN13MYSQL_BIN_LOG18write_event_bufferEPhj@Base 10.11.8
 _ZN13MYSQL_BIN_LOG19raw_get_current_logEP11st_log_info@Base 10.11.8
 _ZN13MYSQL_BIN_LOG19write_state_to_fileEv@Base 10.11.8
 _ZN13MYSQL_BIN_LOG20checkpoint_and_purgeEm@Base 10.11.8
 _ZN13MYSQL_BIN_LOG20find_in_binlog_stateEjjP8rpl_gtid@Base 10.11.8
 _ZN13MYSQL_BIN_LOG20init_pthread_objectsEv@Base 10.11.8
 _ZN13MYSQL_BIN_LOG20read_state_from_fileEv@Base 10.11.8
 _ZN13MYSQL_BIN_LOG20set_status_variablesEP3THD@Base 10.11.8
 _ZN13MYSQL_BIN_LOG20xid_count_per_binlogD0Ev@Base 10.11.8
 _ZN13MYSQL_BIN_LOG20xid_count_per_binlogD1Ev@Base 10.11.8
 _ZN13MYSQL_BIN_LOG20xid_count_per_binlogD2Ev@Base 10.11.8
 _ZN13MYSQL_BIN_LOG21do_checkpoint_requestEm@Base 10.11.8
 _ZN13MYSQL_BIN_LOG22is_xidlist_idle_nolockEv@Base 10.11.8
 _ZN13MYSQL_BIN_LOG22queue_for_group_commitEPNS_18group_commit_entryE@Base 10.11.8
 _ZN13MYSQL_BIN_LOG22stop_background_threadEv@Base 10.11.8
 _ZN13MYSQL_BIN_LOG23trx_group_commit_leaderEPNS_18group_commit_entryE@Base 10.11.8
 _ZN13MYSQL_BIN_LOG24commit_checkpoint_notifyEPv@Base 10.11.8
 _ZN13MYSQL_BIN_LOG24new_file_without_lockingEv@Base 10.11.8
 _ZN13MYSQL_BIN_LOG25get_most_recent_gtid_listEPP8rpl_gtidPj@Base 10.11.8
 _ZN13MYSQL_BIN_LOG25remove_pending_rows_eventEP3THDb@Base 10.11.8
 _ZN13MYSQL_BIN_LOG25wait_for_update_relay_logEP3THD@Base 10.11.8
 _ZN13MYSQL_BIN_LOG25write_transaction_or_stmtEPNS_18group_commit_entryEy@Base 10.11.8
 _ZN13MYSQL_BIN_LOG26check_strict_gtid_sequenceEjjyb@Base 10.11.8
 _ZN13MYSQL_BIN_LOG27truncate_and_remove_binlogsEPKcyP8rpl_gtid@Base 10.11.8
 _ZN13MYSQL_BIN_LOG27wait_for_sufficient_commitsEv@Base 10.11.8
 _ZN13MYSQL_BIN_LOG27write_transaction_to_binlogEP3THDP17binlog_cache_mngrP9Log_eventbbbb@Base 10.11.8
 _ZN13MYSQL_BIN_LOG29bump_seq_no_counter_if_neededEjy@Base 10.11.8
 _ZN13MYSQL_BIN_LOG29clear_inuse_flag_when_closingEi@Base 10.11.8
 _ZN13MYSQL_BIN_LOG29lookup_domain_in_binlog_stateEjP8rpl_gtid@Base 10.11.8
 _ZN13MYSQL_BIN_LOG29write_incident_already_lockedEP3THD@Base 10.11.8
 _ZN13MYSQL_BIN_LOG30wait_for_last_checkpoint_eventEv@Base 10.11.8
 _ZN13MYSQL_BIN_LOG30wait_for_update_binlog_end_posEP3THDP8timespec@Base 10.11.8
 _ZN13MYSQL_BIN_LOG32flush_and_set_pending_rows_eventEP3THDP14Rows_log_eventb@Base 10.11.8
 _ZN13MYSQL_BIN_LOG34write_transaction_to_binlog_eventsEPNS_18group_commit_entryE@Base 10.11.8
 _ZN13MYSQL_BIN_LOG37binlog_trigger_immediate_group_commitEv@Base 10.11.8
 _ZN13MYSQL_BIN_LOG44write_binlog_checkpoint_event_already_lockedEPKcj@Base 10.11.8
 _ZN13MYSQL_BIN_LOG4initEm@Base 10.11.8
 _ZN13MYSQL_BIN_LOG4openEPKc@Base 10.11.8
 _ZN13MYSQL_BIN_LOG4openEPKcS1_m10cache_typembb@Base 10.11.8
 _ZN13MYSQL_BIN_LOG5closeEj@Base 10.11.8
 _ZN13MYSQL_BIN_LOG5closeEv@Base 10.11.8
 _ZN13MYSQL_BIN_LOG5purgeEv@Base 10.11.8
 _ZN13MYSQL_BIN_LOG5unlogEmy@Base 10.11.8
 _ZN13MYSQL_BIN_LOG5writeEP9Log_eventPc@Base 10.11.8
 _ZN13MYSQL_BIN_LOG6appendEP9Log_event@Base 10.11.8
 _ZN13MYSQL_BIN_LOG6rotateEbPb@Base 10.11.8
 _ZN13MYSQL_BIN_LOG7cleanupEv@Base 10.11.8
 _ZN13MYSQL_BIN_LOG7recoverEP11st_log_infoPKcP11st_io_cacheP28Format_description_log_eventb@Base 10.11.8
 _ZN13MYSQL_BIN_LOG8new_fileEv@Base 10.11.8
 _ZN13MYSQL_BIN_LOG9is_activeEPKc@Base 10.11.8
 _ZN13MYSQL_BIN_LOGC1EPj@Base 10.11.8
 _ZN13MYSQL_BIN_LOGC2EPj@Base 10.11.8
 _ZN13MYSQL_BIN_LOGD0Ev@Base 10.11.8
 _ZN13MYSQL_BIN_LOGD1Ev@Base 10.11.8
 _ZN13MYSQL_BIN_LOGD2Ev@Base 10.11.8
 _ZN13Protocol_text10store_dateEP13st_mysql_time@Base 10.11.8
 _ZN13Protocol_text10store_longEx@Base 10.11.8
 _ZN13Protocol_text10store_nullEv@Base 10.11.8
 _ZN13Protocol_text10store_timeEP13st_mysql_timei@Base 10.11.8
 _ZN13Protocol_text10store_tinyEx@Base 10.11.8
 _ZN13Protocol_text11store_floatEfj@Base 10.11.8
 _ZN13Protocol_text11store_shortEx@Base 10.11.8
 _ZN13Protocol_text12store_doubleEdj@Base 10.11.8
 _ZN13Protocol_text13store_decimalEPK10my_decimal@Base 10.11.8
 _ZN13Protocol_text14store_datetimeEP13st_mysql_timei@Base 10.11.8
 _ZN13Protocol_text14store_longlongExb@Base 10.11.8
 _ZN13Protocol_text15remove_last_rowEv@Base 10.11.8
 _ZN13Protocol_text18prepare_for_resendEv@Base 10.11.8
 _ZN13Protocol_text19send_out_parametersEP4ListI10Item_paramE@Base 10.11.8
 _ZN13Protocol_text19store_item_metadataEP3THDP4Itemj@Base 10.11.8
 _ZN13Protocol_text20store_field_metadataEPK3THDRK10Send_fieldPK15charset_info_stj@Base 10.11.8
 _ZN13Protocol_text24store_numeric_string_auxEPKcm@Base 10.11.8
 _ZN13Protocol_text26store_numeric_zerofill_strEPKcm20protocol_send_type_t@Base 10.11.8
 _ZN13Protocol_text36store_field_metadata_for_list_fieldsEPK3THDP5FieldPK10TABLE_LISTj@Base 10.11.8
 _ZN13Protocol_text4typeEv@Base 10.11.8
 _ZN13Protocol_text5storeEP5Field@Base 10.11.8
 _ZN13Protocol_text9store_strEPKcmPK15charset_info_stS4_@Base 10.11.8
 _ZN13Protocol_textD0Ev@Base 10.11.8
 _ZN13Protocol_textD1Ev@Base 10.11.8
 _ZN13Protocol_textD2Ev@Base 10.11.8
 _ZN13QUERY_PROFILE10new_statusEPKcS1_S1_j@Base 10.11.8
 _ZN13QUERY_PROFILE16set_query_sourceEPcm@Base 10.11.8
 _ZN13QUERY_PROFILEC1EP9PROFILINGPKc@Base 10.11.8
 _ZN13QUERY_PROFILEC2EP9PROFILINGPKc@Base 10.11.8
 _ZN13QUERY_PROFILED1Ev@Base 10.11.8
 _ZN13QUERY_PROFILED2Ev@Base 10.11.8
 _ZN13Schema_oracleD0Ev@Base 10.11.8
 _ZN13Schema_oracleD1Ev@Base 10.11.8
 _ZN13Schema_oracleD2Ev@Base 10.11.8
 _ZN13SplM_opt_info9find_planEP5TABLEjj@Base 10.11.8
 _ZN13Sql_condition15assign_defaultsEP3THDPK15Sql_state_errno@Base 10.11.8
 _ZN13Sql_condition19copy_opt_attributesEPKS_@Base 10.11.8
 _ZN13Sql_condition24set_builtin_message_textEPKc@Base 10.11.8
 _ZN13Sql_conditionD1Ev@Base 10.11.8
 _ZN13Sql_conditionD2Ev@Base 10.11.8
 _ZN13Statement_map23close_transient_cursorsEv@Base 10.11.8
 _ZN13Statement_map5eraseEP9Statement@Base 10.11.8
 _ZN13Statement_map5resetEv@Base 10.11.8
 _ZN13Statement_map6insertEP3THDP9Statement@Base 10.11.8
 _ZN13Statement_mapC1Ev@Base 10.11.8
 _ZN13Statement_mapC2Ev@Base 10.11.8
 _ZN13Statement_mapD1Ev@Base 10.11.8
 _ZN13Statement_mapD2Ev@Base 10.11.8
 _ZN13String_copier16well_formed_copyEPK15charset_info_stPcmS2_PKcmm@Base 10.11.8
 _ZN13TRP_ROR_UNION10make_quickEP5PARAMbP11st_mem_root@Base 10.11.8
 _ZN13TRP_ROR_UNIOND0Ev@Base 10.11.8
 _ZN13TRP_ROR_UNIOND1Ev@Base 10.11.8
 _ZN13TRP_ROR_UNIOND2Ev@Base 10.11.8
 _ZN13Time_zone_utcD0Ev@Base 10.11.8
 _ZN13Time_zone_utcD1Ev@Base 10.11.8
 _ZN13Time_zone_utcD2Ev@Base 10.11.8
 _ZN13Vers_type_trxD0Ev@Base 10.11.8
 _ZN13Vers_type_trxD1Ev@Base 10.11.8
 _ZN13Vers_type_trxD2Ev@Base 10.11.8
 _ZN13Xid_log_event13get_data_sizeEv@Base 10.11.8
 _ZN13Xid_log_event13get_type_codeEv@Base 10.11.8
 _ZN13Xid_log_event5writeEv@Base 10.11.8
 _ZN13Xid_log_eventC1EPKhPK28Format_description_log_event@Base 10.11.8
 _ZN13Xid_log_eventC2EPKhPK28Format_description_log_event@Base 10.11.8
 _ZN13Xid_log_eventD0Ev@Base 10.11.8
 _ZN13Xid_log_eventD1Ev@Base 10.11.8
 _ZN13Xid_log_eventD2Ev@Base 10.11.8
 _ZN13cmp_item_real11store_valueEP4Item@Base 10.11.8
 _ZN13cmp_item_real12cmp_not_nullEPK5Value@Base 10.11.8
 _ZN13cmp_item_real3cmpEP4Item@Base 10.11.8
 _ZN13cmp_item_real7compareEP8cmp_item@Base 10.11.8
 _ZN13cmp_item_real9make_sameEP3THD@Base 10.11.8
 _ZN13cmp_item_realD0Ev@Base 10.11.8
 _ZN13cmp_item_realD1Ev@Base 10.11.8
 _ZN13cmp_item_realD2Ev@Base 10.11.8
 _ZN13cmp_item_time11store_valueEP4Item@Base 10.11.8
 _ZN13cmp_item_time12cmp_not_nullEPK5Value@Base 10.11.8
 _ZN13cmp_item_time3cmpEP4Item@Base 10.11.8
 _ZN13cmp_item_time9make_sameEP3THD@Base 10.11.8
 _ZN13cmp_item_timeD0Ev@Base 10.11.8
 _ZN13cmp_item_timeD1Ev@Base 10.11.8
 _ZN13cmp_item_timeD2Ev@Base 10.11.8
 _ZN13field_decimal11get_max_argEP6String@Base 10.11.8
 _ZN13field_decimal11get_min_argEP6String@Base 10.11.8
 _ZN13field_decimal12collect_enumEv@Base 10.11.8
 _ZN13field_decimal12get_opt_typeEP6Stringy@Base 10.11.8
 _ZN13field_decimal3addEv@Base 10.11.8
 _ZN13field_decimal3avgEP6Stringy@Base 10.11.8
 _ZN13field_decimal3stdEP6Stringy@Base 10.11.8
 _ZN13field_decimalD0Ev@Base 10.11.8
 _ZN13field_decimalD1Ev@Base 10.11.8
 _ZN13field_decimalD2Ev@Base 10.11.8
 _ZN13ha_json_table10store_lockEP3THDPP16st_thr_lock_data13thr_lock_type@Base 10.11.8
 _ZN13ha_json_table17get_error_messageEiP6String@Base 10.11.8
 _ZN13ha_json_table18fill_column_valuesEP3THDPhS2_@Base 10.11.8
 _ZN13ha_json_table4infoEj@Base 10.11.8
 _ZN13ha_json_table4openEPKcij@Base 10.11.8
 _ZN13ha_json_table5cloneEPKcP11st_mem_root@Base 10.11.8
 _ZN13ha_json_table5closeEv@Base 10.11.8
 _ZN13ha_json_table5extraE17ha_extra_function@Base 10.11.8
 _ZN13ha_json_table6createEPKcP5TABLEP14HA_CREATE_INFO@Base 10.11.8
 _ZN13ha_json_table7recordsEv@Base 10.11.8
 _ZN13ha_json_table7rnd_posEPhS0_@Base 10.11.8
 _ZN13ha_json_table8positionEPKh@Base 10.11.8
 _ZN13ha_json_table8rnd_initEb@Base 10.11.8
 _ZN13ha_json_table8rnd_nextEPh@Base 10.11.8
 _ZN13ha_json_tableD0Ev@Base 10.11.8
 _ZN13ha_json_tableD1Ev@Base 10.11.8
 _ZN13ha_json_tableD2Ev@Base 10.11.8
 _ZN13i_string_pairD0Ev@Base 10.11.8
 _ZN13i_string_pairD1Ev@Base 10.11.8
 _ZN13i_string_pairD2Ev@Base 10.11.8
 _ZN13select_create12store_valuesER4ListI4ItemE@Base 10.11.8
 _ZN13select_create16abort_result_setEv@Base 10.11.8
 _ZN13select_create17can_rollback_dataEv@Base 10.11.8
 _ZN13select_create23create_table_from_itemsEP3THDP4ListI4ItemEPP13st_mysql_lock@Base 10.11.8
 _ZN13select_create7prepareER4ListI4ItemEP18st_select_lex_unit@Base 10.11.8
 _ZN13select_create8postlockEP3THDPP5TABLE@Base 10.11.8
 _ZN13select_create8prepare2EP4JOIN@Base 10.11.8
 _ZN13select_create8send_eofEv@Base 10.11.8
 _ZN13select_createD0Ev@Base 10.11.8
 _ZN13select_createD1Ev@Base 10.11.8
 _ZN13select_createD2Ev@Base 10.11.8
 _ZN13select_export7prepareER4ListI4ItemEP18st_select_lex_unit@Base 10.11.8
 _ZN13select_export9send_dataER4ListI4ItemE@Base 10.11.8
 _ZN13select_exportD0Ev@Base 10.11.8
 _ZN13select_exportD1Ev@Base 10.11.8
 _ZN13select_exportD2Ev@Base 10.11.8
 _ZN13select_insert11prepare_eofEv@Base 10.11.8
 _ZN13select_insert12store_valuesER4ListI4ItemE@Base 10.11.8
 _ZN13select_insert14send_ok_packetEv@Base 10.11.8
 _ZN13select_insert16abort_result_setEv@Base 10.11.8
 _ZN13select_insert17can_rollback_dataEv@Base 10.11.8
 _ZN13select_insert7cleanupEv@Base 10.11.8
 _ZN13select_insert7prepareER4ListI4ItemEP18st_select_lex_unit@Base 10.11.8
 _ZN13select_insert8prepare2EP4JOIN@Base 10.11.8
 _ZN13select_insert8send_eofEv@Base 10.11.8
 _ZN13select_insert9send_dataER4ListI4ItemE@Base 10.11.8
 _ZN13select_insertC1EP3THDP10TABLE_LISTP5TABLEP4ListI4ItemES9_S9_15enum_duplicatesbP13select_result@Base 10.11.8
 _ZN13select_insertC2EP3THDP10TABLE_LISTP5TABLEP4ListI4ItemES9_S9_15enum_duplicatesbP13select_result@Base 10.11.8
 _ZN13select_insertD0Ev@Base 10.11.8
 _ZN13select_insertD1Ev@Base 10.11.8
 _ZN13select_insertD2Ev@Base 10.11.8
 _ZN13select_result13begin_datasetEv@Base 10.11.8
 _ZN13select_result13change_resultEPS_@Base 10.11.8
 _ZN13select_result16abort_result_setEv@Base 10.11.8
 _ZN13select_result17initialize_tablesEP4JOIN@Base 10.11.8
 _ZN13select_result18update_used_tablesEv@Base 10.11.8
 _ZN13select_result20prepare_to_read_rowsEv@Base 10.11.8
 _ZN13select_result7cleanupEv@Base 10.11.8
 _ZN13select_result7prepareER4ListI4ItemEP18st_select_lex_unit@Base 10.11.8
 _ZN13select_result8prepare2EP4JOIN@Base 10.11.8
 _ZN13sp_instr_cpop12get_psi_infoEv@Base 10.11.8
 _ZN13sp_instr_cpop5printEP6String@Base 10.11.8
 _ZN13sp_instr_cpop7executeEP3THDPj@Base 10.11.8
 _ZN13sp_instr_cpop8psi_infoE@Base 10.11.8
 _ZN13sp_instr_cpopD0Ev@Base 10.11.8
 _ZN13sp_instr_cpopD1Ev@Base 10.11.8
 _ZN13sp_instr_cpopD2Ev@Base 10.11.8
 _ZN13sp_instr_hpop12get_psi_infoEv@Base 10.11.8
 _ZN13sp_instr_hpop5printEP6String@Base 10.11.8
 _ZN13sp_instr_hpop7executeEP3THDPj@Base 10.11.8
 _ZN13sp_instr_hpop8psi_infoE@Base 10.11.8
 _ZN13sp_instr_hpopD0Ev@Base 10.11.8
 _ZN13sp_instr_hpopD1Ev@Base 10.11.8
 _ZN13sp_instr_hpopD2Ev@Base 10.11.8
 _ZN13sp_instr_jump12get_psi_infoEv@Base 10.11.8
 _ZN13sp_instr_jump15set_destinationEjj@Base 10.11.8
 _ZN13sp_instr_jump17opt_shortcut_jumpEP7sp_headP8sp_instr@Base 10.11.8
 _ZN13sp_instr_jump5printEP6String@Base 10.11.8
 _ZN13sp_instr_jump7executeEP3THDPj@Base 10.11.8
 _ZN13sp_instr_jump8opt_markEP7sp_headP4ListI8sp_instrE@Base 10.11.8
 _ZN13sp_instr_jump8opt_moveEjP4ListI8sp_instrE@Base 10.11.8
 _ZN13sp_instr_jump8psi_infoE@Base 10.11.8
 _ZN13sp_instr_jump9backpatchEjP11sp_pcontext@Base 10.11.8
 _ZN13sp_instr_jumpD0Ev@Base 10.11.8
 _ZN13sp_instr_jumpD1Ev@Base 10.11.8
 _ZN13sp_instr_jumpD2Ev@Base 10.11.8
 _ZN13sp_instr_stmt12get_psi_infoEv@Base 10.11.8
 _ZN13sp_instr_stmt5printEP6String@Base 10.11.8
 _ZN13sp_instr_stmt7executeEP3THDPj@Base 10.11.8
 _ZN13sp_instr_stmt8psi_infoE@Base 10.11.8
 _ZN13sp_instr_stmt9exec_coreEP3THDPj@Base 10.11.8
 _ZN13sp_instr_stmtD0Ev@Base 10.11.8
 _ZN13sp_instr_stmtD1Ev@Base 10.11.8
 _ZN13sp_instr_stmtD2Ev@Base 10.11.8
 _ZN13sp_lex_cursor11query_arenaEv@Base 10.11.8
 _ZN13sp_lex_cursor12cleanup_stmtEb@Base 10.11.8
 _ZN13sp_lex_cursorD0Ev@Base 10.11.8
 _ZN13sp_lex_cursorD1Ev@Base 10.11.8
 _ZN13sp_lex_cursorD2Ev@Base 10.11.8
 _ZN13sp_lex_keeper23reset_lex_and_exec_coreEP3THDPjbP8sp_instr@Base 10.11.8
 _ZN13sp_lex_keeper30cursor_reset_lex_and_exec_coreEP3THDPjbP8sp_instr@Base 10.11.8
 _ZN13sp_lex_keeperD0Ev@Base 10.11.8
 _ZN13sp_lex_keeperD1Ev@Base 10.11.8
 _ZN13sp_lex_keeperD2Ev@Base 10.11.8
 _ZN13st_join_table10sort_tableEv@Base 10.11.8
 _ZN13st_join_table12preread_initEv@Base 10.11.8
 _ZN13st_join_table13fix_splittingEP14SplM_plan_infoyb@Base 10.11.8
 _ZN13st_join_table15partial_cleanupEv@Base 10.11.8
 _ZN13st_join_table16make_scan_filterEv@Base 10.11.8
 _ZN13st_join_table16pfs_batch_updateEP4JOIN@Base 10.11.8
 _ZN13st_join_table17get_examined_rowsEv@Base 10.11.8
 _ZN13st_join_table17remove_duplicatesEv@Base 10.11.8
 _ZN13st_join_table17save_explain_dataEP20Explain_table_accessybPS_@Base 10.11.8
 _ZN13st_join_table21choose_best_splittingEjyPK8POSITIONPy@Base 10.11.8
 _ZN13st_join_table21hash_join_is_possibleEv@Base 10.11.8
 _ZN13st_join_table22calc_used_field_lengthEb@Base 10.11.8
 _ZN13st_join_table25add_keyuses_for_splittingEv@Base 10.11.8
 _ZN13st_join_table31remove_redundant_bnl_scan_condsEv@Base 10.11.8
 _ZN13st_join_table34build_range_rowid_filter_if_neededEv@Base 10.11.8
 _ZN13st_join_table41keyuse_is_valid_for_access_in_chosen_planEP4JOINP8keyuse_t@Base 10.11.8
 _ZN13st_join_table7cleanupEv@Base 10.11.8
 _ZN13st_join_table9scan_timeEv@Base 10.11.8
 _ZN13st_select_lex10get_offsetEv@Base 10.11.8
 _ZN13st_select_lex10init_queryEv@Base 10.11.8
 _ZN13st_select_lex10test_limitEv@Base 10.11.8
 _ZN13st_select_lex11init_selectEv@Base 10.11.8
 _ZN13st_select_lex11print_limitEP3THDP6String15enum_query_type@Base 10.11.8
 _ZN13st_select_lex11print_orderEP6StringP8st_order15enum_query_type@Base 10.11.8
 _ZN13st_select_lex12outer_selectEv@Base 10.11.8
 _ZN13st_select_lex12remap_tablesEP10TABLE_LISTyjPS_@Base 10.11.8
 _ZN13st_select_lex13get_item_listEv@Base 10.11.8
 _ZN13st_select_lex13register_unitEP18st_select_lex_unitP23Name_resolution_context@Base 10.11.8
 _ZN13st_select_lex14add_index_hintEP3THDPKcm@Base 10.11.8
 _ZN13st_select_lex14add_statisticsEP18st_select_lex_unit@Base 10.11.8
 _ZN13st_select_lex14add_window_defEP3THDP25st_mysql_const_lex_stringS3_10SQL_I_ListI8st_orderES6_P12Window_frame@Base 10.11.8
 _ZN13st_select_lex14get_table_listEv@Base 10.11.8
 _ZN13st_select_lex14handle_derivedEP3LEXj@Base 10.11.8
 _ZN13st_select_lex14merge_subqueryEP3THDP10TABLE_LISTPS_jy@Base 10.11.8
 _ZN13st_select_lex14nest_last_joinEP3THD@Base 10.11.8
 _ZN13st_select_lex14set_nest_levelEi@Base 10.11.8
 _ZN13st_select_lex15add_window_funcEP16Item_window_func@Base 10.11.8
 _ZN13st_select_lex15add_window_specEP3THDP25st_mysql_const_lex_string10SQL_I_ListI8st_orderES6_P12Window_frame@Base 10.11.8
 _ZN13st_select_lex15end_nested_joinEP3THD@Base 10.11.8
 _ZN13st_select_lex15get_in_sum_exprEv@Base 10.11.8
 _ZN13st_select_lex15inc_in_sum_exprEv@Base 10.11.8
 _ZN13st_select_lex15print_item_listEP3THDP6String15enum_query_type@Base 10.11.8
 _ZN13st_select_lex15setup_ref_arrayEP3THDj@Base 10.11.8
 _ZN13st_select_lex15vers_push_fieldEP3THDP10TABLE_LIST25st_mysql_const_lex_string@Base 10.11.8
 _ZN13st_select_lex16add_item_to_listEP3THDP4Item@Base 10.11.8
 _ZN13st_select_lex16add_joined_tableEP10TABLE_LIST@Base 10.11.8
 _ZN13st_select_lex16check_parametersEPS_@Base 10.11.8
 _ZN13st_select_lex16init_nested_joinEP3THD@Base 10.11.8
 _ZN13st_select_lex16is_query_topmostEP3THD@Base 10.11.8
 _ZN13st_select_lex16print_set_clauseEP3THDP6String15enum_query_type@Base 10.11.8
 _ZN13st_select_lex16save_leaf_tablesEP3THD@Base 10.11.8
 _ZN13st_select_lex16set_explain_typeEb@Base 10.11.8
 _ZN13st_select_lex16vers_setup_condsEP3THDP10TABLE_LIST@Base 10.11.8
 _ZN13st_select_lex17add_group_to_listEP3THDP4Itemb@Base 10.11.8
 _ZN13st_select_lex17add_order_to_listEP3THDP4Itemb@Base 10.11.8
 _ZN13st_select_lex17add_table_to_listEP3THDP11Table_identP25st_mysql_const_lex_stringm13thr_lock_type13enum_mdl_typeP4ListI10Index_hintEPS8_I6StringEP19st_mysql_lex_string@Base 10.11.8
 _ZN13st_select_lex17alloc_index_hintsEP3THD@Base 10.11.8
 _ZN13st_select_lex17cleanup_all_joinsEb@Base 10.11.8
 _ZN13st_select_lex17mark_as_dependentEP3THDPS_P10Item_ident@Base 10.11.8
 _ZN13st_select_lex18add_ftfunc_to_listEP3THDP15Item_func_match@Base 10.11.8
 _ZN13st_select_lex18add_gorder_to_listEP3THDP4Itemb@Base 10.11.8
 _ZN13st_select_lex18convert_right_joinEv@Base 10.11.8
 _ZN13st_select_lex18get_free_table_mapEPyPj@Base 10.11.8
 _ZN13st_select_lex18is_merged_child_ofEPS_@Base 10.11.8
 _ZN13st_select_lex18mark_const_derivedEb@Base 10.11.8
 _ZN13st_select_lex18period_setup_condsEP3THDP10TABLE_LIST@Base 10.11.8
 _ZN13st_select_lex18replace_leaf_tableEP10TABLE_LISTR4ListIS0_E@Base 10.11.8
 _ZN13st_select_lex18set_unique_excludeEv@Base 10.11.8
 _ZN13st_select_lex18update_used_tablesEv@Base 10.11.8
 _ZN13st_select_lex19set_index_hint_typeE15index_hint_typeh@Base 10.11.8
 _ZN13st_select_lex19set_lock_for_tablesE13thr_lock_typebb@Base 10.11.8
 _ZN13st_select_lex20append_table_to_listEM10TABLE_LISTPS0_S1_@Base 10.11.8
 _ZN13st_select_lex20attach_selects_chainEPS_P23Name_resolution_context@Base 10.11.8
 _ZN13st_select_lex20save_item_list_namesEP3THD@Base 10.11.8
 _ZN13st_select_lex21save_prep_leaf_tablesEP3THD@Base 10.11.8
 _ZN13st_select_lex22add_cross_joined_tableEP10TABLE_LISTS1_b@Base 10.11.8
 _ZN13st_select_lex23collect_grouping_fieldsEP3THD@Base 10.11.8
 _ZN13st_select_lex23fix_prepare_informationEP3THDPP4ItemS4_@Base 10.11.8
 _ZN13st_select_lex23prepare_add_window_specEP3THD@Base 10.11.8
 _ZN13st_select_lex23restore_item_list_namesEv@Base 10.11.8
 _ZN13st_select_lex23update_correlated_cacheEv@Base 10.11.8
 _ZN13st_select_lex24increase_derived_recordsEy@Base 10.11.8
 _ZN13st_select_lex24make_unique_derived_nameEP3THDP25st_mysql_const_lex_string@Base 10.11.8
 _ZN13st_select_lex25mark_as_belong_to_derivedEP10TABLE_LIST@Base 10.11.8
 _ZN13st_select_lex28check_unrestricted_recursiveEb@Base 10.11.8
 _ZN13st_select_lex29print_on_duplicate_key_clauseEP3THDP6String15enum_query_type@Base 10.11.8
 _ZN13st_select_lex30build_cond_for_grouping_fieldsEP3THDP4Itemb@Base 10.11.8
 _ZN13st_select_lex30find_table_def_in_with_clausesEP10TABLE_LISTP18st_select_lex_unit@Base 10.11.8
 _ZN13st_select_lex31optimize_unflattened_subqueriesEb@Base 10.11.8
 _ZN13st_select_lex31pushdown_cond_into_where_clauseEP3THDP4ItemPS3_MS2_FS3_S1_PhES5_@Base 10.11.8
 _ZN13st_select_lex31pushdown_from_having_into_whereEP3THDP4Item@Base 10.11.8
 _ZN13st_select_lex32collect_fields_equal_to_groupingEP3THD@Base 10.11.8
 _ZN13st_select_lex33get_cardinality_of_ref_ptrs_sliceEj@Base 10.11.8
 _ZN13st_select_lex35collect_grouping_fields_for_derivedEP3THDP8st_order@Base 10.11.8
 _ZN13st_select_lex39build_pushable_cond_for_having_pushdownEP3THDP4Item@Base 10.11.8
 _ZN13st_select_lex40find_common_window_func_partition_fieldsEP3THD@Base 10.11.8
 _ZN13st_select_lex41check_cond_extraction_for_grouping_fieldsEP3THDP4Item@Base 10.11.8
 _ZN13st_select_lex42check_subqueries_with_recursive_referencesEv@Base 10.11.8
 _ZN13st_select_lex5printEP3THDP6String15enum_query_type@Base 10.11.8
 _ZN13st_select_lex7cleanupEv@Base 10.11.8
 _ZN13st_select_lex9get_limitEv@Base 10.11.8
 _ZN13st_select_lex9lex_startEP3LEX@Base 10.11.8
 _ZN14Arg_comparator11compare_rowEv@Base 10.11.8
 _ZN14Arg_comparator12compare_realEv@Base 10.11.8
 _ZN14Arg_comparator12compare_timeEv@Base 10.11.8
 _ZN14Arg_comparator12set_cmp_funcEP3THDP16Item_func_or_sumPK12Type_handlerPP4ItemS9_@Base 10.11.8
 _ZN14Arg_comparator13compare_e_intEv@Base 10.11.8
 _ZN14Arg_comparator13compare_e_rowEv@Base 10.11.8
 _ZN14Arg_comparator14compare_e_realEv@Base 10.11.8
 _ZN14Arg_comparator14compare_e_timeEv@Base 10.11.8
 _ZN14Arg_comparator14compare_nativeEv@Base 10.11.8
 _ZN14Arg_comparator14compare_stringEv@Base 10.11.8
 _ZN14Arg_comparator15compare_decimalEv@Base 10.11.8
 _ZN14Arg_comparator16compare_datetimeEv@Base 10.11.8
 _ZN14Arg_comparator16compare_e_nativeEv@Base 10.11.8
 _ZN14Arg_comparator16compare_e_stringEv@Base 10.11.8
 _ZN14Arg_comparator16compare_json_strEv@Base 10.11.8
 _ZN14Arg_comparator16compare_str_jsonEv@Base 10.11.8
 _ZN14Arg_comparator16set_cmp_func_intEP3THD@Base 10.11.8
 _ZN14Arg_comparator16set_cmp_func_rowEP3THD@Base 10.11.8
 _ZN14Arg_comparator17compare_e_decimalEv@Base 10.11.8
 _ZN14Arg_comparator17set_cmp_func_realEP3THD@Base 10.11.8
 _ZN14Arg_comparator17set_cmp_func_timeEP3THD@Base 10.11.8
 _ZN14Arg_comparator18compare_e_datetimeEv@Base 10.11.8
 _ZN14Arg_comparator18compare_e_json_strEv@Base 10.11.8
 _ZN14Arg_comparator18compare_e_str_jsonEv@Base 10.11.8
 _ZN14Arg_comparator18compare_int_signedEv@Base 10.11.8
 _ZN14Arg_comparator18compare_real_fixedEv@Base 10.11.8
 _ZN14Arg_comparator19set_cmp_func_nativeEP3THD@Base 10.11.8
 _ZN14Arg_comparator19set_cmp_func_stringEP3THD@Base 10.11.8
 _ZN14Arg_comparator20compare_e_real_fixedEv@Base 10.11.8
 _ZN14Arg_comparator20compare_int_unsignedEv@Base 10.11.8
 _ZN14Arg_comparator20set_cmp_func_decimalEP3THD@Base 10.11.8
 _ZN14Arg_comparator21set_cmp_func_datetimeEP3THD@Base 10.11.8
 _ZN14Arg_comparator22compare_json_str_basicEP4ItemS1_@Base 10.11.8
 _ZN14Arg_comparator24cache_converted_constantEP3THDPP4ItemS4_PK12Type_handler@Base 10.11.8
 _ZN14Arg_comparator24compare_e_json_str_basicEP4ItemS1_@Base 10.11.8
 _ZN14Arg_comparator27compare_int_signed_unsignedEv@Base 10.11.8
 _ZN14Arg_comparator27compare_int_unsigned_signedEv@Base 10.11.8
 _ZN14Arg_comparator27min_max_update_field_nativeEP3THDP5FieldP4Itemi@Base 10.11.8
 _ZN14Arg_comparator29compare_e_int_diff_signednessEv@Base 10.11.8
 _ZN14Arg_comparator30set_cmp_func_for_row_argumentsEP3THD@Base 10.11.8
 _ZN14Create_func_ln11s_singletonE@Base 10.11.8
 _ZN14Create_func_ln12create_1_argEP3THDP4Item@Base 10.11.8
 _ZN14Create_func_lnD0Ev@Base 10.11.8
 _ZN14Create_func_lnD1Ev@Base 10.11.8
 _ZN14Create_func_lnD2Ev@Base 10.11.8
 _ZN14Create_func_pi11s_singletonE@Base 10.11.8
 _ZN14Create_func_pi14create_builderEP3THD@Base 10.11.8
 _ZN14Create_func_piD0Ev@Base 10.11.8
 _ZN14Create_func_piD1Ev@Base 10.11.8
 _ZN14Create_func_piD2Ev@Base 10.11.8
 _ZN14Create_sp_func11s_singletonE@Base 10.11.8
 _ZN14Create_sp_func14create_with_dbEP3THDPK25st_mysql_const_lex_stringS4_bP4ListI4ItemE@Base 10.11.8
 _ZN14Create_sp_funcD0Ev@Base 10.11.8
 _ZN14Create_sp_funcD1Ev@Base 10.11.8
 _ZN14Create_sp_funcD2Ev@Base 10.11.8
 _ZN14Dep_module_key13iterator_sizeE@Base 10.11.8
 _ZN14Dep_module_key22get_next_unbound_valueEP20Dep_analysis_contextPc@Base 10.11.8
 _ZN14Dep_module_key24init_unbound_values_iterEPc@Base 10.11.8
 _ZN14Dep_module_keyD0Ev@Base 10.11.8
 _ZN14Dep_module_keyD1Ev@Base 10.11.8
 _ZN14Dep_module_keyD2Ev@Base 10.11.8
 _ZN14Explain_delete13get_select_idEv@Base 10.11.8
 _ZN14Explain_delete13print_explainEP13Explain_queryP18select_result_sinkhb@Base 10.11.8
 _ZN14Explain_delete18print_explain_jsonEP13Explain_queryP11Json_writerb@Base 10.11.8
 _ZN14Explain_delete8get_typeEv@Base 10.11.8
 _ZN14Explain_deleteD0Ev@Base 10.11.8
 _ZN14Explain_deleteD1Ev@Base 10.11.8
 _ZN14Explain_deleteD2Ev@Base 10.11.8
 _ZN14Explain_insert13get_select_idEv@Base 10.11.8
 _ZN14Explain_insert13print_explainEP13Explain_queryP18select_result_sinkhb@Base 10.11.8
 _ZN14Explain_insert18print_explain_jsonEP13Explain_queryP11Json_writerb@Base 10.11.8
 _ZN14Explain_insert8get_typeEv@Base 10.11.8
 _ZN14Explain_insertD0Ev@Base 10.11.8
 _ZN14Explain_insertD1Ev@Base 10.11.8
 _ZN14Explain_insertD2Ev@Base 10.11.8
 _ZN14Explain_select11add_linkageEP11Json_writer@Base 10.11.8
 _ZN14Explain_select13print_explainEP13Explain_queryP18select_result_sinkhb@Base 10.11.8
 _ZN14Explain_select18print_explain_jsonEP13Explain_queryP11Json_writerb@Base 10.11.8
 _ZN14Explain_select8get_typeEv@Base 10.11.8
 _ZN14Explain_selectD0Ev@Base 10.11.8
 _ZN14Explain_selectD1Ev@Base 10.11.8
 _ZN14Explain_selectD2Ev@Base 10.11.8
 _ZN14Explain_update13get_select_idEv@Base 10.11.8
 _ZN14Explain_update13print_explainEP13Explain_queryP18select_result_sinkhb@Base 10.11.8
 _ZN14Explain_update18print_explain_jsonEP13Explain_queryP11Json_writerb@Base 10.11.8
 _ZN14Explain_update8get_typeEv@Base 10.11.8
 _ZN14Explain_updateD0Ev@Base 10.11.8
 _ZN14Explain_updateD1Ev@Base 10.11.8
 _ZN14Explain_updateD2Ev@Base 10.11.8
 _ZN14Field_datetime13store_decimalEPK10my_decimal@Base 10.11.8
 _ZN14Field_datetime14store_time_decEPK13st_mysql_timej@Base 10.11.8
 _ZN14Field_datetime20get_equal_const_itemEP3THDRKN12Value_source7ContextEP4Item@Base 10.11.8
 _ZN14Field_datetime23store_TIME_with_warningEPK8DatetimePK7ErrConvi@Base 10.11.8
 _ZN14Field_datetime5storeEPKcmPK15charset_info_st@Base 10.11.8
 _ZN14Field_datetime5storeEd@Base 10.11.8
 _ZN14Field_datetime5storeExb@Base 10.11.8
 _ZN14Field_datetime8set_timeEv@Base 10.11.8
 _ZN14Field_longlong11sort_stringEPhj@Base 10.11.8
 _ZN14Field_longlong4packEPhPKhj@Base 10.11.8
 _ZN14Field_longlong4sendEP8Protocol@Base 10.11.8
 _ZN14Field_longlong5resetEv@Base 10.11.8
 _ZN14Field_longlong5storeEPKcmPK15charset_info_st@Base 10.11.8
 _ZN14Field_longlong5storeEd@Base 10.11.8
 _ZN14Field_longlong5storeExb@Base 10.11.8
 _ZN14Field_longlong6is_maxEv@Base 10.11.8
 _ZN14Field_longlong6unpackEPhPKhS2_j@Base 10.11.8
 _ZN14Field_longlong7set_maxEv@Base 10.11.8
 _ZN14Field_longlong7val_intEv@Base 10.11.8
 _ZN14Field_longlong7val_strEP6StringS1_@Base 10.11.8
 _ZN14Field_longlong8val_realEv@Base 10.11.8
 _ZN14Field_longlongD0Ev@Base 10.11.8
 _ZN14Field_longlongD1Ev@Base 10.11.8
 _ZN14Field_longlongD2Ev@Base 10.11.8
 _ZN14Field_temporal11get_mm_leafEP15RANGE_OPT_PARAMP8KEY_PARTPK14Item_bool_func20scalar_comparison_opP4Item@Base 10.11.8
 _ZN14Field_temporal11val_decimalEP10my_decimal@Base 10.11.8
 _ZN14Field_temporal12set_warningsEN21Sql_state_errno_level18enum_warning_levelEPK7ErrConviPKc@Base 10.11.8
 _ZN14Field_temporal13save_in_fieldEP5Field@Base 10.11.8
 _ZN14Field_temporal15pos_in_intervalEP5FieldS1_@Base 10.11.8
 _ZN14Field_temporal16store_hex_hybridEPKcm@Base 10.11.8
 _ZN14Field_temporal20type_version_mysql56Ev@Base 10.11.8
 _ZN14Field_temporal29get_equal_const_item_datetimeEP3THDRKN12Value_source7ContextEP4Item@Base 10.11.8
 _ZN14Field_temporal8val_boolEv@Base 10.11.8
 _ZN14Gcalc_dyn_list10format_blkEPv@Base 10.11.8
 _ZN14Gcalc_dyn_list13alloc_new_blkEv@Base 10.11.8
 _ZN14Gcalc_dyn_list5resetEv@Base 10.11.8
 _ZN14Gcalc_dyn_list7cleanupEv@Base 10.11.8
 _ZN14Gcalc_dyn_listC1ERKS_@Base 10.11.8
 _ZN14Gcalc_dyn_listC1Emm@Base 10.11.8
 _ZN14Gcalc_dyn_listC2ERKS_@Base 10.11.8
 _ZN14Gcalc_dyn_listC2Emm@Base 10.11.8
 _ZN14Gcalc_dyn_listD1Ev@Base 10.11.8
 _ZN14Gcalc_dyn_listD2Ev@Base 10.11.8
 _ZN14Gcalc_function12alloc_statesEv@Base 10.11.8
 _ZN14Gcalc_function13add_new_shapeEjNS_10shape_typeE@Base 10.11.8
 _ZN14Gcalc_function13add_operationEjj@Base 10.11.8
 _ZN14Gcalc_function14check_functionER19Gcalc_scan_iterator@Base 10.11.8
 _ZN14Gcalc_function14clear_b_statesEv@Base 10.11.8
 _ZN14Gcalc_function14clear_i_statesEv@Base 10.11.8
 _ZN14Gcalc_function14count_internalEPKcjPS1_@Base 10.11.8
 _ZN14Gcalc_function15single_shape_opENS_10shape_typeEPj@Base 10.11.8
 _ZN14Gcalc_function17add_not_operationENS_7op_typeEj@Base 10.11.8
 _ZN14Gcalc_function17repeat_expressionEj@Base 10.11.8
 _ZN14Gcalc_function17reserve_op_bufferEj@Base 10.11.8
 _ZN14Gcalc_function18add_operands_to_opEjj@Base 10.11.8
 _ZN14Gcalc_function20reserve_shape_bufferEj@Base 10.11.8
 _ZN14Gcalc_function5resetEv@Base 10.11.8
 _ZN14Gcalc_functionD1Ev@Base 10.11.8
 _ZN14Gcalc_functionD2Ev@Base 10.11.8
 _ZN14Gtid_log_event13get_data_sizeEv@Base 10.11.8
 _ZN14Gtid_log_event13get_type_codeEv@Base 10.11.8
 _ZN14Gtid_log_event13logged_statusEv@Base 10.11.8
 _ZN14Gtid_log_event21make_compatible_eventEP6StringPbm24enum_binlog_checksum_alg@Base 10.11.8
 _ZN14Gtid_log_event4peekEPKhm24enum_binlog_checksum_algPjS3_PyPhPK28Format_description_log_event@Base 10.11.8
 _ZN14Gtid_log_event5writeEv@Base 10.11.8
 _ZN14Gtid_log_eventC1EP3THDyjbtbybb@Base 10.11.8
 _ZN14Gtid_log_eventC1EPKhjPK28Format_description_log_event@Base 10.11.8
 _ZN14Gtid_log_eventC2EP3THDyjbtbybb@Base 10.11.8
 _ZN14Gtid_log_eventC2EPKhjPK28Format_description_log_event@Base 10.11.8
 _ZN14Gtid_log_eventD0Ev@Base 10.11.8
 _ZN14Gtid_log_eventD1Ev@Base 10.11.8
 _ZN14Gtid_log_eventD2Ev@Base 10.11.8
 _ZN14HA_CREATE_INFO36resolve_to_charset_collation_contextEP3THDRK48Lex_extended_charset_extended_collation_attrs_stS4_RK25Charset_collation_context@Base 10.11.8
 _ZN14HA_CREATE_INFO4initEv@Base 10.11.8
 _ZN14Item_aes_crypt10create_keyEP6StringPh@Base 10.11.8
 _ZN14Item_aes_crypt7val_strEP6String@Base 10.11.8
 _ZN14Item_avg_field7is_nullEv@Base 10.11.8
 _ZN14Item_bool_func11get_mm_leafEP15RANGE_OPT_PARAMP5FieldP8KEY_PARTN9Item_func8FunctypeEP4Item@Base 10.11.8
 _ZN14Item_bool_func12get_mm_partsEP15RANGE_OPT_PARAMP5FieldN9Item_func8FunctypeEP4Item@Base 10.11.8
 _ZN14Item_bool_func14get_ne_mm_treeEP15RANGE_OPT_PARAMP5FieldP4ItemS5_@Base 10.11.8
 _ZN14Item_bool_func21get_full_func_mm_treeEP15RANGE_OPT_PARAMP10Item_fieldP4Item@Base 10.11.8
 _ZN14Item_bool_func27need_parentheses_in_defaultEv@Base 10.11.8
 _ZN14Item_bool_func31raise_note_if_key_become_unusedEP3THDRK9Item_args@Base 10.11.8
 _ZN14Item_cache_int11cache_valueEv@Base 10.11.8
 _ZN14Item_cache_int11val_decimalEP10my_decimal@Base 10.11.8
 _ZN14Item_cache_int13save_in_fieldEP5Fieldb@Base 10.11.8
 _ZN14Item_cache_int27convert_to_basic_const_itemEP3THD@Base 10.11.8
 _ZN14Item_cache_int7val_intEv@Base 10.11.8
 _ZN14Item_cache_int7val_strEP6String@Base 10.11.8
 _ZN14Item_cache_int8get_copyEP3THD@Base 10.11.8
 _ZN14Item_cache_int8get_dateEP3THDP13st_mysql_time11date_mode_t@Base 10.11.8
 _ZN14Item_cache_int8val_realEv@Base 10.11.8
 _ZN14Item_cache_intD0Ev@Base 10.11.8
 _ZN14Item_cache_intD1Ev@Base 10.11.8
 _ZN14Item_cache_intD2Ev@Base 10.11.8
 _ZN14Item_cache_row10check_colsEj@Base 10.11.8
 _ZN14Item_cache_row10keep_arrayEv@Base 10.11.8
 _ZN14Item_cache_row11bring_valueEv@Base 10.11.8
 _ZN14Item_cache_row11cache_valueEv@Base 10.11.8
 _ZN14Item_cache_row11null_insideEv@Base 10.11.8
 _ZN14Item_cache_row11val_decimalEP10my_decimal@Base 10.11.8
 _ZN14Item_cache_row13element_indexEj@Base 10.11.8
 _ZN14Item_cache_row15make_send_fieldEP3THDP10Send_field@Base 10.11.8
 _ZN14Item_cache_row19illegal_method_callEPKc@Base 10.11.8
 _ZN14Item_cache_row4addrEj@Base 10.11.8
 _ZN14Item_cache_row5setupEP3THDP4Item@Base 10.11.8
 _ZN14Item_cache_row5storeEP4Item@Base 10.11.8
 _ZN14Item_cache_row7cleanupEv@Base 10.11.8
 _ZN14Item_cache_row7val_intEv@Base 10.11.8
 _ZN14Item_cache_row7val_strEP6String@Base 10.11.8
 _ZN14Item_cache_row8allocateEP3THDj@Base 10.11.8
 _ZN14Item_cache_row8get_copyEP3THD@Base 10.11.8
 _ZN14Item_cache_row8get_dateEP3THDP13st_mysql_time11date_mode_t@Base 10.11.8
 _ZN14Item_cache_row8set_nullEv@Base 10.11.8
 _ZN14Item_cache_row8val_realEv@Base 10.11.8
 _ZN14Item_cache_rowD0Ev@Base 10.11.8
 _ZN14Item_cache_rowD1Ev@Base 10.11.8
 _ZN14Item_cache_rowD2Ev@Base 10.11.8
 _ZN14Item_cache_str11cache_valueEv@Base 10.11.8
 _ZN14Item_cache_str11val_decimalEP10my_decimal@Base 10.11.8
 _ZN14Item_cache_str13save_in_fieldEP5Fieldb@Base 10.11.8
 _ZN14Item_cache_str27convert_to_basic_const_itemEP3THD@Base 10.11.8
 _ZN14Item_cache_str7val_intEv@Base 10.11.8
 _ZN14Item_cache_str7val_strEP6String@Base 10.11.8
 _ZN14Item_cache_str8get_copyEP3THD@Base 10.11.8
 _ZN14Item_cache_str8get_dateEP3THDP13st_mysql_time11date_mode_t@Base 10.11.8
 _ZN14Item_cache_str8val_realEv@Base 10.11.8
 _ZN14Item_cache_strD0Ev@Base 10.11.8
 _ZN14Item_cache_strD1Ev@Base 10.11.8
 _ZN14Item_cache_strD2Ev@Base 10.11.8
 _ZN14Item_case_expr10fix_fieldsEP3THDPP4Item@Base 10.11.8
 _ZN14Item_case_expr14this_item_addrEP3THDPP4Item@Base 10.11.8
 _ZN14Item_case_expr5printEP6String15enum_query_type@Base 10.11.8
 _ZN14Item_case_expr8get_copyEP3THD@Base 10.11.8
 _ZN14Item_case_expr9this_itemEv@Base 10.11.8
 _ZN14Item_case_exprC1EP3THDj@Base 10.11.8
 _ZN14Item_case_exprC2EP3THDj@Base 10.11.8
 _ZN14Item_case_exprD0Ev@Base 10.11.8
 _ZN14Item_case_exprD1Ev@Base 10.11.8
 _ZN14Item_case_exprD2Ev@Base 10.11.8
 _ZN14Item_field_row10check_colsEj@Base 10.11.8
 _ZN14Item_field_row13element_indexEj@Base 10.11.8
 _ZN14Item_field_row16row_create_itemsEP3THDP4ListI16Spvar_definitionE@Base 10.11.8
 _ZN14Item_field_row4addrEj@Base 10.11.8
 _ZN14Item_field_row8get_copyEP3THD@Base 10.11.8
 _ZN14Item_field_rowD0Ev@Base 10.11.8
 _ZN14Item_field_rowD1Ev@Base 10.11.8
 _ZN14Item_field_rowD2Ev@Base 10.11.8
 _ZN14Item_func_acos8get_copyEP3THD@Base 10.11.8
 _ZN14Item_func_acos8val_realEv@Base 10.11.8
 _ZN14Item_func_acosD0Ev@Base 10.11.8
 _ZN14Item_func_acosD1Ev@Base 10.11.8
 _ZN14Item_func_acosD2Ev@Base 10.11.8
 _ZN14Item_func_area18fix_length_and_decEP3THD@Base 10.11.8
 _ZN14Item_func_area8get_copyEP3THD@Base 10.11.8
 _ZN14Item_func_area8val_realEv@Base 10.11.8
 _ZN14Item_func_areaD0Ev@Base 10.11.8
 _ZN14Item_func_areaD1Ev@Base 10.11.8
 _ZN14Item_func_areaD2Ev@Base 10.11.8
 _ZN14Item_func_asin8get_copyEP3THD@Base 10.11.8
 _ZN14Item_func_asin8val_realEv@Base 10.11.8
 _ZN14Item_func_asinD0Ev@Base 10.11.8
 _ZN14Item_func_asinD1Ev@Base 10.11.8
 _ZN14Item_func_asinD2Ev@Base 10.11.8
 _ZN14Item_func_atan8get_copyEP3THD@Base 10.11.8
 _ZN14Item_func_atan8val_realEv@Base 10.11.8
 _ZN14Item_func_atanD0Ev@Base 10.11.8
 _ZN14Item_func_atanD1Ev@Base 10.11.8
 _ZN14Item_func_atanD2Ev@Base 10.11.8
 _ZN14Item_func_case10decimal_opEP10my_decimal@Base 10.11.8
 _ZN14Item_func_case10fix_fieldsEP3THDPP4Item@Base 10.11.8
 _ZN14Item_func_case12reorder_argsEj@Base 10.11.8
 _ZN14Item_func_case27need_parentheses_in_defaultEv@Base 10.11.8
 _ZN14Item_func_case33aggregate_then_and_else_argumentsEP3THDj@Base 10.11.8
 _ZN14Item_func_case6int_opEv@Base 10.11.8
 _ZN14Item_func_case6str_opEP6String@Base 10.11.8
 _ZN14Item_func_case7date_opEP3THDP13st_mysql_time11date_mode_t@Base 10.11.8
 _ZN14Item_func_case7real_opEv@Base 10.11.8
 _ZN14Item_func_case7time_opEP3THDP13st_mysql_time@Base 10.11.8
 _ZN14Item_func_case9native_opEP3THDP6Native@Base 10.11.8
 _ZN14Item_func_caseD0Ev@Base 10.11.8
 _ZN14Item_func_caseD1Ev@Base 10.11.8
 _ZN14Item_func_caseD2Ev@Base 10.11.8
 _ZN14Item_func_char11append_charEP6Stringi@Base 10.11.8
 _ZN14Item_func_char18fix_length_and_decEP3THD@Base 10.11.8
 _ZN14Item_func_char5printEP6String15enum_query_type@Base 10.11.8
 _ZN14Item_func_char7val_strEP6String@Base 10.11.8
 _ZN14Item_func_char8get_copyEP3THD@Base 10.11.8
 _ZN14Item_func_charD0Ev@Base 10.11.8
 _ZN14Item_func_charD1Ev@Base 10.11.8
 _ZN14Item_func_charD2Ev@Base 10.11.8
 _ZN14Item_func_conv18fix_length_and_decEP3THD@Base 10.11.8
 _ZN14Item_func_conv7val_strEP6String@Base 10.11.8
 _ZN14Item_func_conv8get_copyEP3THD@Base 10.11.8
 _ZN14Item_func_convD0Ev@Base 10.11.8
 _ZN14Item_func_convD1Ev@Base 10.11.8
 _ZN14Item_func_convD2Ev@Base 10.11.8
 _ZN14Item_func_hash18fix_length_and_decEP3THD@Base 10.11.8
 _ZN14Item_func_hash7val_intEv@Base 10.11.8
 _ZN14Item_func_hash8get_copyEP3THD@Base 10.11.8
 _ZN14Item_func_hashD0Ev@Base 10.11.8
 _ZN14Item_func_hashD1Ev@Base 10.11.8
 _ZN14Item_func_hashD2Ev@Base 10.11.8
 _ZN14Item_func_hour18fix_length_and_decEP3THD@Base 10.11.8
 _ZN14Item_func_hour25check_vcol_func_processorEPv@Base 10.11.8
 _ZN14Item_func_hour30check_partition_func_processorEPv@Base 10.11.8
 _ZN14Item_func_hour31check_valid_arguments_processorEPv@Base 10.11.8
 _ZN14Item_func_hour7val_intEv@Base 10.11.8
 _ZN14Item_func_hour8get_copyEP3THD@Base 10.11.8
 _ZN14Item_func_hourD0Ev@Base 10.11.8
 _ZN14Item_func_hourD1Ev@Base 10.11.8
 _ZN14Item_func_hourD2Ev@Base 10.11.8
 _ZN14Item_func_left13hash_not_nullEP6Hasher@Base 10.11.8
 _ZN14Item_func_left18fix_length_and_decEP3THD@Base 10.11.8
 _ZN14Item_func_left7val_strEP6String@Base 10.11.8
 _ZN14Item_func_left8get_copyEP3THD@Base 10.11.8
 _ZN14Item_func_leftD0Ev@Base 10.11.8
 _ZN14Item_func_leftD1Ev@Base 10.11.8
 _ZN14Item_func_leftD2Ev@Base 10.11.8
 _ZN14Item_func_like10fix_fieldsEP3THDPP4Item@Base 10.11.8
 _ZN14Item_func_like11get_mm_leafEP15RANGE_OPT_PARAMP5FieldP8KEY_PARTN9Item_func8FunctypeEP4Item@Base 10.11.8
 _ZN14Item_func_like11get_mm_treeEP15RANGE_OPT_PARAMPP4Item@Base 10.11.8
 _ZN14Item_func_like14add_key_fieldsEP4JOINPP9KEY_FIELDPjyPP14SARGABLE_PARAM@Base 10.11.8
 _ZN14Item_func_like15neg_transformerEP3THD@Base 10.11.8
 _ZN14Item_func_like16get_func_mm_treeEP15RANGE_OPT_PARAMP5FieldP4Item@Base 10.11.8
 _ZN14Item_func_like18fix_length_and_decEP3THD@Base 10.11.8
 _ZN14Item_func_like22propagate_equal_fieldsEP3THDRKN12Value_source7ContextEP10COND_EQUAL@Base 10.11.8
 _ZN14Item_func_like24turboBM_compute_suffixesEPi@Base 10.11.8
 _ZN14Item_func_like34turboBM_compute_good_suffix_shiftsEPi@Base 10.11.8
 _ZN14Item_func_like36turboBM_compute_bad_character_shiftsEv@Base 10.11.8
 _ZN14Item_func_like40find_selective_predicates_list_processorEPv@Base 10.11.8
 _ZN14Item_func_like4walkEM4ItemFbPvEbS1_@Base 10.11.8
 _ZN14Item_func_like5printEP6String15enum_query_type@Base 10.11.8
 _ZN14Item_func_like7cleanupEv@Base 10.11.8
 _ZN14Item_func_like7val_intEv@Base 10.11.8
 _ZN14Item_func_like8get_copyEP3THD@Base 10.11.8
 _ZN14Item_func_likeC1EP3THDP4ItemS3_S3_b@Base 10.11.8
 _ZN14Item_func_likeC2EP3THDP4ItemS3_S3_b@Base 10.11.8
 _ZN14Item_func_likeD0Ev@Base 10.11.8
 _ZN14Item_func_likeD1Ev@Base 10.11.8
 _ZN14Item_func_likeD2Ev@Base 10.11.8
 _ZN14Item_func_lock12is_expensiveEv@Base 10.11.8
 _ZN14Item_func_lock25check_vcol_func_processorEPv@Base 10.11.8
 _ZN14Item_func_log28get_copyEP3THD@Base 10.11.8
 _ZN14Item_func_log28val_realEv@Base 10.11.8
 _ZN14Item_func_log2D0Ev@Base 10.11.8
 _ZN14Item_func_log2D1Ev@Base 10.11.8
 _ZN14Item_func_log2D2Ev@Base 10.11.8
 _ZN14Item_func_lpad5printEP6String15enum_query_type@Base 10.11.8
 _ZN14Item_func_lpad7val_strEP6String@Base 10.11.8
 _ZN14Item_func_lpad8get_copyEP3THD@Base 10.11.8
 _ZN14Item_func_lpadD0Ev@Base 10.11.8
 _ZN14Item_func_lpadD1Ev@Base 10.11.8
 _ZN14Item_func_lpadD2Ev@Base 10.11.8
 _ZN14Item_func_num125check_vcol_func_processorEPv@Base 10.11.8
 _ZN14Item_func_num130check_partition_func_processorEPv@Base 10.11.8
 _ZN14Item_func_nvl218fix_length_and_decEP3THD@Base 10.11.8
 _ZN14Item_func_nvl28get_copyEP3THD@Base 10.11.8
 _ZN14Item_func_nvl2D0Ev@Base 10.11.8
 _ZN14Item_func_nvl2D1Ev@Base 10.11.8
 _ZN14Item_func_nvl2D2Ev@Base 10.11.8
 _ZN14Item_func_plus10decimal_opEP10my_decimal@Base 10.11.8
 _ZN14Item_func_plus18fix_length_and_decEP3THD@Base 10.11.8
 _ZN14Item_func_plus6int_opEv@Base 10.11.8
 _ZN14Item_func_plus7real_opEv@Base 10.11.8
 _ZN14Item_func_plus8get_copyEP3THD@Base 10.11.8
 _ZN14Item_func_plusD0Ev@Base 10.11.8
 _ZN14Item_func_plusD1Ev@Base 10.11.8
 _ZN14Item_func_plusD2Ev@Base 10.11.8
 _ZN14Item_func_rand10fix_fieldsEP3THDPP4Item@Base 10.11.8
 _ZN14Item_func_rand11seed_randomEP4Item@Base 10.11.8
 _ZN14Item_func_rand18update_used_tablesEv@Base 10.11.8
 _ZN14Item_func_rand25check_vcol_func_processorEPv@Base 10.11.8
 _ZN14Item_func_rand7cleanupEv@Base 10.11.8
 _ZN14Item_func_rand8get_copyEP3THD@Base 10.11.8
 _ZN14Item_func_rand8val_realEv@Base 10.11.8
 _ZN14Item_func_randD0Ev@Base 10.11.8
 _ZN14Item_func_randD1Ev@Base 10.11.8
 _ZN14Item_func_randD2Ev@Base 10.11.8
 _ZN14Item_func_rpad5printEP6String15enum_query_type@Base 10.11.8
 _ZN14Item_func_rpad7val_strEP6String@Base 10.11.8
 _ZN14Item_func_rpad8get_copyEP3THD@Base 10.11.8
 _ZN14Item_func_rpadD0Ev@Base 10.11.8
 _ZN14Item_func_rpadD1Ev@Base 10.11.8
 _ZN14Item_func_rpadD2Ev@Base 10.11.8
 _ZN14Item_func_sha213val_str_asciiEP6String@Base 10.11.8
 _ZN14Item_func_sha218fix_length_and_decEP3THD@Base 10.11.8
 _ZN14Item_func_sha28get_copyEP3THD@Base 10.11.8
 _ZN14Item_func_sha2D0Ev@Base 10.11.8
 _ZN14Item_func_sha2D1Ev@Base 10.11.8
 _ZN14Item_func_sha2D2Ev@Base 10.11.8
 _ZN14Item_func_sign18fix_length_and_decEP3THD@Base 10.11.8
 _ZN14Item_func_sign7val_intEv@Base 10.11.8
 _ZN14Item_func_sign8get_copyEP3THD@Base 10.11.8
 _ZN14Item_func_signD0Ev@Base 10.11.8
 _ZN14Item_func_signD1Ev@Base 10.11.8
 _ZN14Item_func_signD2Ev@Base 10.11.8
 _ZN14Item_func_sqrt8get_copyEP3THD@Base 10.11.8
 _ZN14Item_func_sqrt8val_realEv@Base 10.11.8
 _ZN14Item_func_sqrtD0Ev@Base 10.11.8
 _ZN14Item_func_sqrtD1Ev@Base 10.11.8
 _ZN14Item_func_sqrtD2Ev@Base 10.11.8
 _ZN14Item_func_srid18fix_length_and_decEP3THD@Base 10.11.8
 _ZN14Item_func_srid7val_intEv@Base 10.11.8
 _ZN14Item_func_srid8get_copyEP3THD@Base 10.11.8
 _ZN14Item_func_sridD0Ev@Base 10.11.8
 _ZN14Item_func_sridD1Ev@Base 10.11.8
 _ZN14Item_func_sridD2Ev@Base 10.11.8
 _ZN14Item_func_trim18fix_length_and_decEP3THD@Base 10.11.8
 _ZN14Item_func_trim5printEP6String15enum_query_type@Base 10.11.8
 _ZN14Item_func_trim7val_strEP6String@Base 10.11.8
 _ZN14Item_func_trim8get_copyEP3THD@Base 10.11.8
 _ZN14Item_func_trimD0Ev@Base 10.11.8
 _ZN14Item_func_trimD1Ev@Base 10.11.8
 _ZN14Item_func_trimD2Ev@Base 10.11.8
 _ZN14Item_func_user10fix_fieldsEP3THDPP4Item@Base 10.11.8
 _ZN14Item_func_user13save_in_fieldEP5Fieldb@Base 10.11.8
 _ZN14Item_func_user18fix_length_and_decEP3THD@Base 10.11.8
 _ZN14Item_func_user4initEPKcS1_@Base 10.11.8
 _ZN14Item_func_user7val_strEP6String@Base 10.11.8
 _ZN14Item_func_user8get_copyEP3THD@Base 10.11.8
 _ZN14Item_func_userC1EP3THD@Base 10.11.8
 _ZN14Item_func_userC2EP3THD@Base 10.11.8
 _ZN14Item_func_userD0Ev@Base 10.11.8
 _ZN14Item_func_userD1Ev@Base 10.11.8
 _ZN14Item_func_userD2Ev@Base 10.11.8
 _ZN14Item_func_week18fix_length_and_decEP3THD@Base 10.11.8
 _ZN14Item_func_week25check_vcol_func_processorEPv@Base 10.11.8
 _ZN14Item_func_week31check_valid_arguments_processorEPv@Base 10.11.8
 _ZN14Item_func_week7val_intEv@Base 10.11.8
 _ZN14Item_func_week8get_copyEP3THD@Base 10.11.8
 _ZN14Item_func_weekD0Ev@Base 10.11.8
 _ZN14Item_func_weekD1Ev@Base 10.11.8
 _ZN14Item_func_weekD2Ev@Base 10.11.8
 _ZN14Item_func_year16val_int_endpointEbPb@Base 10.11.8
 _ZN14Item_func_year18fix_length_and_decEP3THD@Base 10.11.8
 _ZN14Item_func_year25check_vcol_func_processorEPv@Base 10.11.8
 _ZN14Item_func_year30check_partition_func_processorEPv@Base 10.11.8
 _ZN14Item_func_year31check_valid_arguments_processorEPv@Base 10.11.8
 _ZN14Item_func_year7val_intEv@Base 10.11.8
 _ZN14Item_func_year8get_copyEP3THD@Base 10.11.8
 _ZN14Item_func_yearD0Ev@Base 10.11.8
 _ZN14Item_func_yearD1Ev@Base 10.11.8
 _ZN14Item_func_yearD2Ev@Base 10.11.8
 _ZN14Item_load_file18fix_length_and_decEP3THD@Base 10.11.8
 _ZN14Item_load_file25check_vcol_func_processorEPv@Base 10.11.8
 _ZN14Item_load_file7val_strEP6String@Base 10.11.8
 _ZN14Item_load_file8get_copyEP3THD@Base 10.11.8
 _ZN14Item_load_fileD0Ev@Base 10.11.8
 _ZN14Item_load_fileD1Ev@Base 10.11.8
 _ZN14Item_load_fileD2Ev@Base 10.11.8
 _ZN14Item_long_func18fix_length_and_decEP3THD@Base 10.11.8
 _ZN14Item_outer_ref10fix_fieldsEP3THDPP4Item@Base 10.11.8
 _ZN14Item_outer_ref17fix_after_pulloutEP13st_select_lexPP4Itemb@Base 10.11.8
 _ZN14Item_outer_ref20save_in_result_fieldEb@Base 10.11.8
 _ZN14Item_outer_ref26check_inner_refs_processorEPv@Base 10.11.8
 _ZN14Item_outer_ref8ref_typeEv@Base 10.11.8
 _ZN14Item_outer_refD0Ev@Base 10.11.8
 _ZN14Item_outer_refD1Ev@Base 10.11.8
 _ZN14Item_outer_refD2Ev@Base 10.11.8
 _ZN14Item_proc_real11val_decimalEP10my_decimal@Base 10.11.8
 _ZN14Item_proc_real3setEPKcjPK15charset_info_st@Base 10.11.8
 _ZN14Item_proc_real3setEd@Base 10.11.8
 _ZN14Item_proc_real3setEx@Base 10.11.8
 _ZN14Item_proc_real7val_intEv@Base 10.11.8
 _ZN14Item_proc_real7val_strEP6String@Base 10.11.8
 _ZN14Item_proc_real8val_realEv@Base 10.11.8
 _ZN14Item_proc_realD0Ev@Base 10.11.8
 _ZN14Item_proc_realD1Ev@Base 10.11.8
 _ZN14Item_proc_realD2Ev@Base 10.11.8
 _ZN14Item_real_func11val_decimalEP10my_decimal@Base 10.11.8
 _ZN14Item_real_func18fix_length_and_decEP3THD@Base 10.11.8
 _ZN14Item_real_func7val_intEv@Base 10.11.8
 _ZN14Item_real_func7val_strEP6String@Base 10.11.8
 _ZN14Item_real_func8get_dateEP3THDP13st_mysql_time11date_mode_t@Base 10.11.8
 _ZN14Item_std_field8get_copyEP3THD@Base 10.11.8
 _ZN14Item_std_field8val_realEv@Base 10.11.8
 _ZN14Item_std_fieldD0Ev@Base 10.11.8
 _ZN14Item_std_fieldD1Ev@Base 10.11.8
 _ZN14Item_std_fieldD2Ev@Base 10.11.8
 _ZN14Item_subselect10fix_fieldsEP3THDPP4Item@Base 10.11.8
 _ZN14Item_subselect11build_cloneEP3THD@Base 10.11.8
 _ZN14Item_subselect12is_expensiveEv@Base 10.11.8
 _ZN14Item_subselect14get_select_lexEv@Base 10.11.8
 _ZN14Item_subselect17fix_after_pulloutEP13st_select_lexPP4Itemb@Base 10.11.8
 _ZN14Item_subselect17mark_as_dependentEP3THDP13st_select_lexP4Item@Base 10.11.8
 _ZN14Item_subselect18fix_length_and_decEv@Base 10.11.8
 _ZN14Item_subselect18get_tmp_table_itemEP3THD@Base 10.11.8
 _ZN14Item_subselect18have_guarded_condsEv@Base 10.11.8
 _ZN14Item_subselect18recalc_used_tablesEP13st_select_lexb@Base 10.11.8
 _ZN14Item_subselect18select_transformerEP4JOIN@Base 10.11.8
 _ZN14Item_subselect18update_used_tablesEv@Base 10.11.8
 _ZN14Item_subselect19exists2in_processorEPv@Base 10.11.8
 _ZN14Item_subselect20expr_cache_is_neededEP3THD@Base 10.11.8
 _ZN14Item_subselect20get_cache_parametersER4ListI4ItemE@Base 10.11.8
 _ZN14Item_subselect20wrap_tvc_into_selectEP3THDP13st_select_lex@Base 10.11.8
 _ZN14Item_subselect21is_subquery_processorEPv@Base 10.11.8
 _ZN14Item_subselect22is_expensive_processorEPv@Base 10.11.8
 _ZN14Item_subselect23init_expr_cache_trackerEP3THD@Base 10.11.8
 _ZN14Item_subselect24register_as_with_rec_refEP12With_element@Base 10.11.8
 _ZN14Item_subselect24reset_value_registrationEv@Base 10.11.8
 _ZN14Item_subselect25check_vcol_func_processorEPv@Base 10.11.8
 _ZN14Item_subselect25unknown_splocal_processorEPv@Base 10.11.8
 _ZN14Item_subselect28mark_as_eliminated_processorEPv@Base 10.11.8
 _ZN14Item_subselect29eliminate_subselect_processorEPv@Base 10.11.8
 _ZN14Item_subselect30enumerate_field_refs_processorEPv@Base 10.11.8
 _ZN14Item_subselect30update_table_bitmaps_processorEPv@Base 10.11.8
 _ZN14Item_subselect40limit_index_condition_pushdown_processorEPv@Base 10.11.8
 _ZN14Item_subselect4execEv@Base 10.11.8
 _ZN14Item_subselect4initEP13st_select_lexP25select_result_interceptor@Base 10.11.8
 _ZN14Item_subselect4walkEM4ItemFbPvEbS1_@Base 10.11.8
 _ZN14Item_subselect5printEP6String15enum_query_type@Base 10.11.8
 _ZN14Item_subselect5resetEv@Base 10.11.8
 _ZN14Item_subselect7cleanupEv@Base 10.11.8
 _ZN14Item_subselect7is_nullEv@Base 10.11.8
 _ZN14Item_subselect8get_copyEP3THD@Base 10.11.8
 _ZN14Item_subselect8substypeEv@Base 10.11.8
 _ZN14Item_subselectC1EP3THD@Base 10.11.8
 _ZN14Item_subselectC2EP3THD@Base 10.11.8
 _ZN14Item_subselectD0Ev@Base 10.11.8
 _ZN14Item_subselectD1Ev@Base 10.11.8
 _ZN14Item_subselectD2Ev@Base 10.11.8
 _ZN14Item_sum_count10direct_addEx@Base 10.11.8
 _ZN14Item_sum_count11reset_fieldEv@Base 10.11.8
 _ZN14Item_sum_count12copy_or_sameEP3THD@Base 10.11.8
 _ZN14Item_sum_count12update_fieldEv@Base 10.11.8
 _ZN14Item_sum_count17no_rows_in_resultEv@Base 10.11.8
 _ZN14Item_sum_count3addEv@Base 10.11.8
 _ZN14Item_sum_count5clearEv@Base 10.11.8
 _ZN14Item_sum_count6removeEv@Base 10.11.8
 _ZN14Item_sum_count7cleanupEv@Base 10.11.8
 _ZN14Item_sum_count7val_intEv@Base 10.11.8
 _ZN14Item_sum_count8get_copyEP3THD@Base 10.11.8
 _ZN14Item_sum_countD0Ev@Base 10.11.8
 _ZN14Item_sum_countD1Ev@Base 10.11.8
 _ZN14Item_sum_countD2Ev@Base 10.11.8
 _ZN14Item_sum_field19create_tmp_field_exEP11st_mem_rootP5TABLEP13Tmp_field_srcPK15Tmp_field_param@Base 10.11.8
 _ZN14Item_sum_field20save_in_result_fieldEb@Base 10.11.8
 _ZN14Item_sum_field25check_vcol_func_processorEPv@Base 10.11.8
 _ZN14Item_sum_field8get_dateEP3THDP13st_mysql_time11date_mode_t@Base 10.11.8
 _ZN14Item_sum_ntile11reset_fieldEv@Base 10.11.8
 _ZN14Item_sum_ntile12update_fieldEv@Base 10.11.8
 _ZN14Item_sum_ntile23set_partition_row_countEy@Base 10.11.8
 _ZN14Item_sum_ntile3addEv@Base 10.11.8
 _ZN14Item_sum_ntile5clearEv@Base 10.11.8
 _ZN14Item_sum_ntile7val_intEv@Base 10.11.8
 _ZN14Item_sum_ntile8get_copyEP3THD@Base 10.11.8
 _ZN14Item_sum_ntileD0Ev@Base 10.11.8
 _ZN14Item_sum_ntileD1Ev@Base 10.11.8
 _ZN14Item_sum_ntileD2Ev@Base 10.11.8
 _ZN14JOIN_CACHE_BKA12get_join_algEv@Base 10.11.8
 _ZN14JOIN_CACHE_BKA12get_next_keyEPPh@Base 10.11.8
 _ZN14JOIN_CACHE_BKA13is_key_accessEv@Base 10.11.8
 _ZN14JOIN_CACHE_BKA16setup_aux_bufferER17st_handler_buffer@Base 10.11.8
 _ZN14JOIN_CACHE_BKA16skip_index_tupleEPv@Base 10.11.8
 _ZN14JOIN_CACHE_BKA17save_explain_dataEP16EXPLAIN_BKA_TYPE@Base 10.11.8
 _ZN14JOIN_CACHE_BKA24get_curr_association_ptrEv@Base 10.11.8
 _ZN14JOIN_CACHE_BKA24prepare_look_for_matchesEb@Base 10.11.8
 _ZN14JOIN_CACHE_BKA28get_next_candidate_for_matchEv@Base 10.11.8
 _ZN14JOIN_CACHE_BKA28get_number_of_ranges_for_mrrEv@Base 10.11.8
 _ZN14JOIN_CACHE_BKA29read_next_candidate_for_matchEPh@Base 10.11.8
 _ZN14JOIN_CACHE_BKA29skip_next_candidate_for_matchEPh@Base 10.11.8
 _ZN14JOIN_CACHE_BKA4initEb@Base 10.11.8
 _ZN14JOIN_CACHE_BKAD0Ev@Base 10.11.8
 _ZN14JOIN_CACHE_BKAD1Ev@Base 10.11.8
 _ZN14JOIN_CACHE_BKAD2Ev@Base 10.11.8
 _ZN14JOIN_CACHE_BNL12get_join_algEv@Base 10.11.8
 _ZN14JOIN_CACHE_BNL13is_key_accessEv@Base 10.11.8
 _ZN14JOIN_CACHE_BNL24prepare_look_for_matchesEb@Base 10.11.8
 _ZN14JOIN_CACHE_BNL28get_next_candidate_for_matchEv@Base 10.11.8
 _ZN14JOIN_CACHE_BNL29read_next_candidate_for_matchEPh@Base 10.11.8
 _ZN14JOIN_CACHE_BNL29skip_next_candidate_for_matchEPh@Base 10.11.8
 _ZN14JOIN_CACHE_BNL4initEb@Base 10.11.8
 _ZN14JOIN_CACHE_BNLD0Ev@Base 10.11.8
 _ZN14JOIN_CACHE_BNLD1Ev@Base 10.11.8
 _ZN14JOIN_CACHE_BNLD2Ev@Base 10.11.8
 _ZN14Load_log_event10set_fieldsEPKcR4ListI4ItemEP23Name_resolution_context@Base 10.11.8
 _ZN14Load_log_event13get_data_sizeEv@Base 10.11.8
 _ZN14Load_log_event13get_type_codeEv@Base 10.11.8
 _ZN14Load_log_event14copy_log_eventEPKhmiPK28Format_description_log_event@Base 10.11.8
 _ZN14Load_log_event15write_data_bodyEv@Base 10.11.8
 _ZN14Load_log_event17write_data_headerEv@Base 10.11.8
 _ZN14Load_log_event6get_dbEv@Base 10.11.8
 _ZN14Load_log_eventC1EP3THDPK12sql_exchangePKcS6_R4ListI4ItemEb15enum_duplicatesbb@Base 10.11.8
 _ZN14Load_log_eventC1EPKhjPK28Format_description_log_event@Base 10.11.8
 _ZN14Load_log_eventC2EP3THDPK12sql_exchangePKcS6_R4ListI4ItemEb15enum_duplicatesbb@Base 10.11.8
 _ZN14Load_log_eventC2EPKhjPK28Format_description_log_event@Base 10.11.8
 _ZN14Load_log_eventD0Ev@Base 10.11.8
 _ZN14Load_log_eventD1Ev@Base 10.11.8
 _ZN14Load_log_eventD2Ev@Base 10.11.8
 _ZN14Opt_trace_stmt10get_lengthEv@Base 10.11.8
 _ZN14Opt_trace_stmt17missing_privilegeEv@Base 10.11.8
 _ZN14Opt_trace_stmt19get_truncated_bytesEv@Base 10.11.8
 _ZN14Opt_trace_stmt20set_allowed_mem_sizeEm@Base 10.11.8
 _ZN14Opt_trace_stmt27enable_tracing_for_childrenEv@Base 10.11.8
 _ZN14Opt_trace_stmt28disable_tracing_for_childrenEv@Base 10.11.8
 _ZN14Opt_trace_stmt9fill_infoEP14Opt_trace_info@Base 10.11.8
 _ZN14Opt_trace_stmt9set_queryEPKcmPK15charset_info_st@Base 10.11.8
 _ZN14Opt_trace_stmtC1EP17Opt_trace_context@Base 10.11.8
 _ZN14Opt_trace_stmtC2EP17Opt_trace_context@Base 10.11.8
 _ZN14Opt_trace_stmtD1Ev@Base 10.11.8
 _ZN14Opt_trace_stmtD2Ev@Base 10.11.8
 _ZN14PolyLock_mutex6rdlockEv@Base 10.11.8
 _ZN14PolyLock_mutex6unlockEv@Base 10.11.8
 _ZN14PolyLock_mutex6wrlockEv@Base 10.11.8
 _ZN14PolyLock_mutexD0Ev@Base 10.11.8
 _ZN14PolyLock_mutexD1Ev@Base 10.11.8
 _ZN14PolyLock_mutexD2Ev@Base 10.11.8
 _ZN14Protocol_local10store_nullEv@Base 10.11.8
 _ZN14Protocol_local11net_send_okEP3THDjjyyPKcb@Base 10.11.8
 _ZN14Protocol_local12net_send_eofEP3THDjj@Base 10.11.8
 _ZN14Protocol_local13begin_datasetEP3THDj@Base 10.11.8
 _ZN14Protocol_local13begin_datasetEv@Base 10.11.8
 _ZN14Protocol_local14net_store_dataEPKhm@Base 10.11.8
 _ZN14Protocol_local15clear_data_listEv@Base 10.11.8
 _ZN14Protocol_local15remove_last_rowEv@Base 10.11.8
 _ZN14Protocol_local16send_list_fieldsEP4ListI5FieldEPK10TABLE_LIST@Base 10.11.8
 _ZN14Protocol_local17alloc_new_datasetEv@Base 10.11.8
 _ZN14Protocol_local17net_store_data_csEPKhmPK15charset_info_stS4_@Base 10.11.8
 _ZN14Protocol_local18prepare_for_resendEv@Base 10.11.8
 _ZN14Protocol_local20store_field_metadataEPK3THDRK10Send_fieldPK15charset_info_stj@Base 10.11.8
 _ZN14Protocol_local21net_send_error_packetEP3THDjPKcS3_@Base 10.11.8
 _ZN14Protocol_local24send_result_set_metadataEP4ListI4ItemEj@Base 10.11.8
 _ZN14Protocol_local4typeEv@Base 10.11.8
 _ZN14Protocol_local5flushEv@Base 10.11.8
 _ZN14Protocol_local5writeEv@Base 10.11.8
 _ZN14Protocol_localD0Ev@Base 10.11.8
 _ZN14Protocol_localD1Ev@Base 10.11.8
 _ZN14Protocol_localD2Ev@Base 10.11.8
 _ZN14Pushdown_query7executeEP4JOIN@Base 10.11.8
 _ZN14QUICK_SELECT_I12add_key_nameEP6StringPb@Base 10.11.8
 _ZN14QUICK_SELECT_I12is_keys_usedEPK9st_bitmap@Base 10.11.8
 _ZN14QUICK_SELECT_I12make_reverseEj@Base 10.11.8
 _ZN14QUICK_SELECT_I13save_last_posEv@Base 10.11.8
 _ZN14QUICK_SELECT_I15replace_handlerEP7handler@Base 10.11.8
 _ZN14QUICK_SELECT_I16unique_key_rangeEv@Base 10.11.8
 _ZN14QUICK_SELECT_I18add_key_and_lengthEP6StringS1_Pb@Base 10.11.8
 _ZN14QUICK_SELECT_I20init_ror_merged_scanEbP11st_mem_root@Base 10.11.8
 _ZN14QUICK_SELECT_I8is_validEv@Base 10.11.8
 _ZN14QUICK_SELECT_I9range_endEv@Base 10.11.8
 _ZN14QUICK_SELECT_IC1Ev@Base 10.11.8
 _ZN14QUICK_SELECT_IC2Ev@Base 10.11.8
 _ZN14Query_fragmentC1EP3THDP7sp_headPKcS5_@Base 10.11.8
 _ZN14Query_fragmentC2EP3THDP7sp_headPKcS5_@Base 10.11.8
 _ZN14Rand_log_event13get_data_sizeEv@Base 10.11.8
 _ZN14Rand_log_event13get_type_codeEv@Base 10.11.8
 _ZN14Rand_log_event5writeEv@Base 10.11.8
 _ZN14Rand_log_eventC1EPKhPK28Format_description_log_event@Base 10.11.8
 _ZN14Rand_log_eventC2EPKhPK28Format_description_log_event@Base 10.11.8
 _ZN14Rand_log_eventD0Ev@Base 10.11.8
 _ZN14Rand_log_eventD1Ev@Base 10.11.8
 _ZN14Rand_log_eventD2Ev@Base 10.11.8
 _ZN14Rows_log_event13get_data_sizeEv@Base 10.11.8
 _ZN14Rows_log_event13get_type_codeEv@Base 10.11.8
 _ZN14Rows_log_event13logged_statusEv@Base 10.11.8
 _ZN14Rows_log_event14uncompress_bufEv@Base 10.11.8
 _ZN14Rows_log_event15do_add_row_dataEPhm@Base 10.11.8
 _ZN14Rows_log_event15write_data_bodyEv@Base 10.11.8
 _ZN14Rows_log_event16write_compressedEv@Base 10.11.8
 _ZN14Rows_log_event17write_data_headerEv@Base 10.11.8
 _ZN14Rows_log_event22read_write_bitmaps_cmpEP5TABLE@Base 10.11.8
 _ZN14Rows_log_event6get_dbEv@Base 10.11.8
 _ZN14Rows_log_eventC1EP3THDP5TABLEyPK9st_bitmapb14Log_event_type@Base 10.11.8
 _ZN14Rows_log_eventC1EPKhjPK28Format_description_log_event@Base 10.11.8
 _ZN14Rows_log_eventC2EP3THDP5TABLEyPK9st_bitmapb14Log_event_type@Base 10.11.8
 _ZN14Rows_log_eventC2EPKhjPK28Format_description_log_event@Base 10.11.8
 _ZN14Rows_log_eventD0Ev@Base 10.11.8
 _ZN14Rows_log_eventD1Ev@Base 10.11.8
 _ZN14Rows_log_eventD2Ev@Base 10.11.8
 _ZN14Sql_cmd_signal7executeEP3THD@Base 10.11.8
 _ZN14Sql_cmd_signalD0Ev@Base 10.11.8
 _ZN14Sql_cmd_signalD1Ev@Base 10.11.8
 _ZN14Sql_cmd_signalD2Ev@Base 10.11.8
 _ZN14Stop_log_event13get_type_codeEv@Base 10.11.8
 _ZN14Stop_log_eventD0Ev@Base 10.11.8
 _ZN14Stop_log_eventD1Ev@Base 10.11.8
 _ZN14Stop_log_eventD2Ev@Base 10.11.8
 _ZN14Sys_var_double13global_updateEP3THDP7set_var@Base 10.11.8
 _ZN14Sys_var_double14session_updateEP3THDP7set_var@Base 10.11.8
 _ZN14Sys_var_double19global_save_defaultEP3THDP7set_var@Base 10.11.8
 _ZN14Sys_var_double20session_save_defaultEP3THDP7set_var@Base 10.11.8
 _ZN14Sys_var_double8do_checkEP3THDP7set_var@Base 10.11.8
 _ZN14Sys_var_doubleC1EPKcS1_ilm8CMD_LINEdddP8PolyLockN7sys_var18binlog_status_enumEPFbPS5_P3THDP7set_varEPFbS7_S9_13enum_var_typeES1_@Base 10.11.8
 _ZN14Sys_var_doubleC2EPKcS1_ilm8CMD_LINEdddP8PolyLockN7sys_var18binlog_status_enumEPFbPS5_P3THDP7set_varEPFbS7_S9_13enum_var_typeES1_@Base 10.11.8
 _ZN14Sys_var_doubleD0Ev@Base 10.11.8
 _ZN14Sys_var_doubleD1Ev@Base 10.11.8
 _ZN14Sys_var_doubleD2Ev@Base 10.11.8
 _ZN14Sys_var_mybool13global_updateEP3THDP7set_var@Base 10.11.8
 _ZN14Sys_var_mybool14session_updateEP3THDP7set_var@Base 10.11.8
 _ZN14Sys_var_mybool19global_save_defaultEP3THDP7set_var@Base 10.11.8
 _ZN14Sys_var_mybool20session_save_defaultEP3THDP7set_var@Base 10.11.8
 _ZN14Sys_var_myboolC1EPKcS1_ilm8CMD_LINEcP8PolyLockN7sys_var18binlog_status_enumEPFbPS5_P3THDP7set_varEPFbS7_S9_13enum_var_typeES1_@Base 10.11.8
 _ZN14Sys_var_myboolC2EPKcS1_ilm8CMD_LINEcP8PolyLockN7sys_var18binlog_status_enumEPFbPS5_P3THDP7set_varEPFbS7_S9_13enum_var_typeES1_@Base 10.11.8
 _ZN14Sys_var_myboolD0Ev@Base 10.11.8
 _ZN14Sys_var_myboolD1Ev@Base 10.11.8
 _ZN14Sys_var_myboolD2Ev@Base 10.11.8
 _ZN14Sys_var_plugin13global_updateEP3THDP7set_var@Base 10.11.8
 _ZN14Sys_var_plugin14session_updateEP3THDP7set_var@Base 10.11.8
 _ZN14Sys_var_plugin19global_save_defaultEP3THDP7set_var@Base 10.11.8
 _ZN14Sys_var_plugin20session_save_defaultEP3THDP7set_var@Base 10.11.8
 _ZN14Sys_var_plugin8do_checkEP3THDP7set_var@Base 10.11.8
 _ZN14Sys_var_pluginC1EPKcS1_ilm8CMD_LINEiPPcP8PolyLockN7sys_var18binlog_status_enumEPFbPS7_P3THDP7set_varEPFbS9_SB_13enum_var_typeES1_@Base 10.11.8
 _ZN14Sys_var_pluginC2EPKcS1_ilm8CMD_LINEiPPcP8PolyLockN7sys_var18binlog_status_enumEPFbPS7_P3THDP7set_varEPFbS9_SB_13enum_var_typeES1_@Base 10.11.8
 _ZN14Sys_var_pluginD0Ev@Base 10.11.8
 _ZN14Sys_var_pluginD1Ev@Base 10.11.8
 _ZN14Sys_var_pluginD2Ev@Base 10.11.8
 _ZN14Sys_var_struct13global_updateEP3THDP7set_var@Base 10.11.8
 _ZN14Sys_var_struct14session_updateEP3THDP7set_var@Base 10.11.8
 _ZN14Sys_var_struct19global_save_defaultEP3THDP7set_var@Base 10.11.8
 _ZN14Sys_var_struct20session_save_defaultEP3THDP7set_var@Base 10.11.8
 _ZN14Sys_var_struct8do_checkEP3THDP7set_var@Base 10.11.8
 _ZN14Sys_var_structC1EPKcS1_ilm8CMD_LINElPvP8PolyLockN7sys_var18binlog_status_enumEPFbPS6_P3THDP7set_varEPFbS8_SA_13enum_var_typeES1_@Base 10.11.8
 _ZN14Sys_var_structC2EPKcS1_ilm8CMD_LINElPvP8PolyLockN7sys_var18binlog_status_enumEPFbPS6_P3THDP7set_varEPFbS8_SA_13enum_var_typeES1_@Base 10.11.8
 _ZN14Sys_var_structD0Ev@Base 10.11.8
 _ZN14Sys_var_structD1Ev@Base 10.11.8
 _ZN14Sys_var_structD2Ev@Base 10.11.8
 _ZN14Wait_for_flush14accept_visitorEP26MDL_wait_for_graph_visitor@Base 10.11.8
 _ZN14Wait_for_flushD0Ev@Base 10.11.8
 _ZN14Wait_for_flushD1Ev@Base 10.11.8
 _ZN14Wait_for_flushD2Ev@Base 10.11.8
 _ZN14dbname_cache_t7get_keyEPK19st_mysql_lex_stringPmc@Base 10.11.8
 _ZN14field_longlong11get_max_argEP6String@Base 10.11.8
 _ZN14field_longlong11get_min_argEP6String@Base 10.11.8
 _ZN14field_longlong12collect_enumEv@Base 10.11.8
 _ZN14field_longlong12get_opt_typeEP6Stringy@Base 10.11.8
 _ZN14field_longlong3addEv@Base 10.11.8
 _ZN14field_longlong3avgEP6Stringy@Base 10.11.8
 _ZN14field_longlong3stdEP6Stringy@Base 10.11.8
 _ZN14field_longlongD0Ev@Base 10.11.8
 _ZN14field_longlongD1Ev@Base 10.11.8
 _ZN14field_longlongD2Ev@Base 10.11.8
 _ZN14partition_info11print_debugEPKcPj@Base 10.11.8
 _ZN14partition_info12init_col_valEP17p_column_list_valP4Item@Base 10.11.8
 _ZN14partition_info13add_max_valueEP3THD@Base 10.11.8
 _ZN14partition_info13get_part_elemEPKcPcmPj@Base 10.11.8
 _ZN14partition_info13set_part_exprEP3THDP4Itemb@Base 10.11.8
 _ZN14partition_info14vers_init_infoEP3THD@Base 10.11.8
 _ZN14partition_info14vers_set_limitEybPKc@Base 10.11.8
 _ZN14partition_info15fix_parser_dataEP3THD@Base 10.11.8
 _ZN14partition_info15get_column_itemEP4ItemP5Field@Base 10.11.8
 _ZN14partition_info15has_unique_nameEP17partition_element@Base 10.11.8
 _ZN14partition_info16add_column_valueEP3THD@Base 10.11.8
 _ZN14partition_info16check_engine_mixEP10handlertonb@Base 10.11.8
 _ZN14partition_info16init_column_partEP3THD@Base 10.11.8
 _ZN14partition_info16vers_check_limitEP3THD@Base 10.11.8
 _ZN14partition_info17vers_set_intervalEP3THDP4Item13interval_typeS3_bPKc@Base 10.11.8
 _ZN14partition_info18vers_set_hist_partEP3THDPj@Base 10.11.8
 _ZN14partition_info19add_named_partitionEPKcm@Base 10.11.8
 _ZN14partition_info19find_duplicate_nameEv@Base 10.11.8
 _ZN14partition_info20check_partition_infoEP3THDPP10handlertonP7handlerP14HA_CREATE_INFOPS_@Base 10.11.8
 _ZN14partition_info20find_duplicate_fieldEv@Base 10.11.8
 _ZN14partition_info20fix_partition_valuesEP3THDP10p_elem_valP17partition_element@Base 10.11.8
 _ZN14partition_info21add_column_list_valueEP3THDP4Item@Base 10.11.8
 _ZN14partition_info21has_same_partitioningEPS_@Base 10.11.8
 _ZN14partition_info21set_partition_bitmapsEP4ListI6StringE@Base 10.11.8
 _ZN14partition_info22report_part_expr_errorEb@Base 10.11.8
 _ZN14partition_info23prune_partition_bitmapsEP4ListI6StringE@Base 10.11.8
 _ZN14partition_info24print_no_partition_foundEP5TABLEm@Base 10.11.8
 _ZN14partition_info25set_up_default_partitionsEP3THDP7handlerP14HA_CREATE_INFOj@Base 10.11.8
 _ZN14partition_info26fix_column_value_functionsEP3THDP10p_elem_valj@Base 10.11.8
 _ZN14partition_info26set_named_partition_bitmapEPKcm@Base 10.11.8
 _ZN14partition_info26set_up_charset_field_prepsEP3THD@Base 10.11.8
 _ZN14partition_info28check_partition_field_lengthEv@Base 10.11.8
 _ZN14partition_info28set_up_default_subpartitionsEP3THDP7handlerP14HA_CREATE_INFO@Base 10.11.8
 _ZN14partition_info30create_default_partition_namesEP3THDjjj@Base 10.11.8
 _ZN14partition_info32create_default_subpartition_nameEP3THDjPKc@Base 10.11.8
 _ZN14partition_info32set_up_defaults_for_partitioningEP3THDP7handlerP14HA_CREATE_INFOj@Base 10.11.8
 _ZN14partition_info36reorganize_into_single_field_col_valEP3THD@Base 10.11.8
 _ZN14partition_info9get_cloneEP3THDb@Base 10.11.8
 _ZN14partition_infoC1Ev@Base 10.11.8
 _ZN14partition_infoC2Ev@Base 10.11.8
 _ZN14select_dumpvar21send_data_to_var_listER4ListI4ItemE@Base 10.11.8
 _ZN14select_dumpvar7cleanupEv@Base 10.11.8
 _ZN14select_dumpvar7prepareER4ListI4ItemEP18st_select_lex_unit@Base 10.11.8
 _ZN14select_dumpvar8send_eofEv@Base 10.11.8
 _ZN14select_dumpvar9send_dataER4ListI4ItemE@Base 10.11.8
 _ZN14select_dumpvarD0Ev@Base 10.11.8
 _ZN14select_dumpvarD1Ev@Base 10.11.8
 _ZN14select_dumpvarD2Ev@Base 10.11.8
 _ZN14select_handler11print_errorEim@Base 10.11.8
 _ZN14select_handler16create_tmp_tableEP3THDP13st_select_lex@Base 10.11.8
 _ZN14select_handler24send_result_set_metadataEv@Base 10.11.8
 _ZN14select_handler7executeEv@Base 10.11.8
 _ZN14select_handler7prepareEv@Base 10.11.8
 _ZN14select_handler8send_eofEv@Base 10.11.8
 _ZN14select_handler9send_dataEv@Base 10.11.8
 _ZN14select_handlerC1EP3THDP10handlerton@Base 10.11.8
 _ZN14select_handlerC2EP3THDP10handlerton@Base 10.11.8
 _ZN14select_handlerD0Ev@Base 10.11.8
 _ZN14select_handlerD1Ev@Base 10.11.8
 _ZN14select_handlerD2Ev@Base 10.11.8
 _ZN14select_to_file7cleanupEv@Base 10.11.8
 _ZN14select_to_file8send_eofEv@Base 10.11.8
 _ZN14select_to_fileD0Ev@Base 10.11.8
 _ZN14select_to_fileD1Ev@Base 10.11.8
 _ZN14select_to_fileD2Ev@Base 10.11.8
 _ZN14sp_instr_copen12get_psi_infoEv@Base 10.11.8
 _ZN14sp_instr_copen5printEP6String@Base 10.11.8
 _ZN14sp_instr_copen7executeEP3THDPj@Base 10.11.8
 _ZN14sp_instr_copen8psi_infoE@Base 10.11.8
 _ZN14sp_instr_copen9exec_coreEP3THDPj@Base 10.11.8
 _ZN14sp_instr_copenD0Ev@Base 10.11.8
 _ZN14sp_instr_copenD1Ev@Base 10.11.8
 _ZN14sp_instr_copenD2Ev@Base 10.11.8
 _ZN14sp_instr_cpush12cleanup_stmtEb@Base 10.11.8
 _ZN14sp_instr_cpush12get_psi_infoEv@Base 10.11.8
 _ZN14sp_instr_cpush5printEP6String@Base 10.11.8
 _ZN14sp_instr_cpush7executeEP3THDPj@Base 10.11.8
 _ZN14sp_instr_cpush8psi_infoE@Base 10.11.8
 _ZN14sp_instr_cpushD0Ev@Base 10.11.8
 _ZN14sp_instr_cpushD1Ev@Base 10.11.8
 _ZN14sp_instr_cpushD2Ev@Base 10.11.8
 _ZN14sp_instr_error12get_psi_infoEv@Base 10.11.8
 _ZN14sp_instr_error5printEP6String@Base 10.11.8
 _ZN14sp_instr_error7executeEP3THDPj@Base 10.11.8
 _ZN14sp_instr_error8opt_markEP7sp_headP4ListI8sp_instrE@Base 10.11.8
 _ZN14sp_instr_error8psi_infoE@Base 10.11.8
 _ZN14sp_instr_errorD0Ev@Base 10.11.8
 _ZN14sp_instr_errorD1Ev@Base 10.11.8
 _ZN14sp_instr_errorD2Ev@Base 10.11.8
 _ZN14sp_lex_set_varD0Ev@Base 10.11.8
 _ZN14sp_lex_set_varD1Ev@Base 10.11.8
 _ZN14sp_lex_set_varD2Ev@Base 10.11.8
 _ZN14st_sp_chistics24read_from_mysql_proc_rowEP3THDP5TABLE@Base 10.11.8
 _ZN14store_key_item10copy_innerEv@Base 10.11.8
 _ZN14store_key_itemD0Ev@Base 10.11.8
 _ZN14store_key_itemD1Ev@Base 10.11.8
 _ZN14store_key_itemD2Ev@Base 10.11.8
 _ZN14user_var_entry11val_decimalEPbP10my_decimal@Base 10.11.8
 _ZN14user_var_entry8val_realEPb@Base 10.11.8
 _ZN15Alter_table_ctxC1EP3THDP10TABLE_LISTjPK25st_mysql_const_lex_stringS6_@Base 10.11.8
 _ZN15Alter_table_ctxC1Ev@Base 10.11.8
 _ZN15Alter_table_ctxC2EP3THDP10TABLE_LISTjPK25st_mysql_const_lex_stringS6_@Base 10.11.8
 _ZN15Alter_table_ctxC2Ev@Base 10.11.8
 _ZN15Cached_item_int13cmp_read_onlyEv@Base 10.11.8
 _ZN15Cached_item_int3cmpEv@Base 10.11.8
 _ZN15Cached_item_intD0Ev@Base 10.11.8
 _ZN15Cached_item_intD1Ev@Base 10.11.8
 _ZN15Cached_item_intD2Ev@Base 10.11.8
 _ZN15Cached_item_str13cmp_read_onlyEv@Base 10.11.8
 _ZN15Cached_item_str3cmpEv@Base 10.11.8
 _ZN15Cached_item_strC1EP3THDP4Item@Base 10.11.8
 _ZN15Cached_item_strC2EP3THDP4Item@Base 10.11.8
 _ZN15Cached_item_strD0Ev@Base 10.11.8
 _ZN15Cached_item_strD1Ev@Base 10.11.8
 _ZN15Cached_item_strD2Ev@Base 10.11.8
 _ZN15Create_func_abs11s_singletonE@Base 10.11.8
 _ZN15Create_func_abs12create_1_argEP3THDP4Item@Base 10.11.8
 _ZN15Create_func_absD0Ev@Base 10.11.8
 _ZN15Create_func_absD1Ev@Base 10.11.8
 _ZN15Create_func_absD2Ev@Base 10.11.8
 _ZN15Create_func_bin11s_singletonE@Base 10.11.8
 _ZN15Create_func_bin12create_1_argEP3THDP4Item@Base 10.11.8
 _ZN15Create_func_binD0Ev@Base 10.11.8
 _ZN15Create_func_binD1Ev@Base 10.11.8
 _ZN15Create_func_binD2Ev@Base 10.11.8
 _ZN15Create_func_chr11s_singletonE@Base 10.11.8
 _ZN15Create_func_chr12create_1_argEP3THDP4Item@Base 10.11.8
 _ZN15Create_func_chrD0Ev@Base 10.11.8
 _ZN15Create_func_chrD1Ev@Base 10.11.8
 _ZN15Create_func_chrD2Ev@Base 10.11.8
 _ZN15Create_func_cos11s_singletonE@Base 10.11.8
 _ZN15Create_func_cos12create_1_argEP3THDP4Item@Base 10.11.8
 _ZN15Create_func_cosD0Ev@Base 10.11.8
 _ZN15Create_func_cosD1Ev@Base 10.11.8
 _ZN15Create_func_cosD2Ev@Base 10.11.8
 _ZN15Create_func_cot11s_singletonE@Base 10.11.8
 _ZN15Create_func_cot12create_1_argEP3THDP4Item@Base 10.11.8
 _ZN15Create_func_cotD0Ev@Base 10.11.8
 _ZN15Create_func_cotD1Ev@Base 10.11.8
 _ZN15Create_func_cotD2Ev@Base 10.11.8
 _ZN15Create_func_elt11s_singletonE@Base 10.11.8
 _ZN15Create_func_elt13create_nativeEP3THDPK25st_mysql_const_lex_stringP4ListI4ItemE@Base 10.11.8
 _ZN15Create_func_eltD0Ev@Base 10.11.8
 _ZN15Create_func_eltD1Ev@Base 10.11.8
 _ZN15Create_func_eltD2Ev@Base 10.11.8
 _ZN15Create_func_exp11s_singletonE@Base 10.11.8
 _ZN15Create_func_exp12create_1_argEP3THDP4Item@Base 10.11.8
 _ZN15Create_func_expD0Ev@Base 10.11.8
 _ZN15Create_func_expD1Ev@Base 10.11.8
 _ZN15Create_func_expD2Ev@Base 10.11.8
 _ZN15Create_func_hex11s_singletonE@Base 10.11.8
 _ZN15Create_func_hex12create_1_argEP3THDP4Item@Base 10.11.8
 _ZN15Create_func_hexD0Ev@Base 10.11.8
 _ZN15Create_func_hexD1Ev@Base 10.11.8
 _ZN15Create_func_hexD2Ev@Base 10.11.8
 _ZN15Create_func_log11s_singletonE@Base 10.11.8
 _ZN15Create_func_log13create_nativeEP3THDPK25st_mysql_const_lex_stringP4ListI4ItemE@Base 10.11.8
 _ZN15Create_func_logD0Ev@Base 10.11.8
 _ZN15Create_func_logD1Ev@Base 10.11.8
 _ZN15Create_func_logD2Ev@Base 10.11.8
 _ZN15Create_func_md511s_singletonE@Base 10.11.8
 _ZN15Create_func_md512create_1_argEP3THDP4Item@Base 10.11.8
 _ZN15Create_func_md5D0Ev@Base 10.11.8
 _ZN15Create_func_md5D1Ev@Base 10.11.8
 _ZN15Create_func_md5D2Ev@Base 10.11.8
 _ZN15Create_func_mod11s_singletonE@Base 10.11.8
 _ZN15Create_func_mod12create_2_argEP3THDP4ItemS3_@Base 10.11.8
 _ZN15Create_func_modD0Ev@Base 10.11.8
 _ZN15Create_func_modD1Ev@Base 10.11.8
 _ZN15Create_func_modD2Ev@Base 10.11.8
 _ZN15Create_func_oct11s_singletonE@Base 10.11.8
 _ZN15Create_func_oct12create_1_argEP3THDP4Item@Base 10.11.8
 _ZN15Create_func_octD0Ev@Base 10.11.8
 _ZN15Create_func_octD1Ev@Base 10.11.8
 _ZN15Create_func_octD2Ev@Base 10.11.8
 _ZN15Create_func_ord11s_singletonE@Base 10.11.8
 _ZN15Create_func_ord12create_1_argEP3THDP4Item@Base 10.11.8
 _ZN15Create_func_ordD0Ev@Base 10.11.8
 _ZN15Create_func_ordD1Ev@Base 10.11.8
 _ZN15Create_func_ordD2Ev@Base 10.11.8
 _ZN15Create_func_pow11s_singletonE@Base 10.11.8
 _ZN15Create_func_pow12create_2_argEP3THDP4ItemS3_@Base 10.11.8
 _ZN15Create_func_powD0Ev@Base 10.11.8
 _ZN15Create_func_powD1Ev@Base 10.11.8
 _ZN15Create_func_powD2Ev@Base 10.11.8
 _ZN15Create_func_sha11s_singletonE@Base 10.11.8
 _ZN15Create_func_sha12create_1_argEP3THDP4Item@Base 10.11.8
 _ZN15Create_func_shaD0Ev@Base 10.11.8
 _ZN15Create_func_shaD1Ev@Base 10.11.8
 _ZN15Create_func_shaD2Ev@Base 10.11.8
 _ZN15Create_func_sin11s_singletonE@Base 10.11.8
 _ZN15Create_func_sin12create_1_argEP3THDP4Item@Base 10.11.8
 _ZN15Create_func_sinD0Ev@Base 10.11.8
 _ZN15Create_func_sinD1Ev@Base 10.11.8
 _ZN15Create_func_sinD2Ev@Base 10.11.8
 _ZN15Create_func_tan11s_singletonE@Base 10.11.8
 _ZN15Create_func_tan12create_1_argEP3THDP4Item@Base 10.11.8
 _ZN15Create_func_tanD0Ev@Base 10.11.8
 _ZN15Create_func_tanD1Ev@Base 10.11.8
 _ZN15Create_func_tanD2Ev@Base 10.11.8
 _ZN15Create_udf_func11create_funcEP3THDPK25st_mysql_const_lex_stringP4ListI4ItemE@Base 10.11.8
 _ZN15Create_udf_func11s_singletonE@Base 10.11.8
 _ZN15Create_udf_func6createEP3THDP11st_udf_funcP4ListI4ItemE@Base 10.11.8
 _ZN15Create_udf_funcD0Ev@Base 10.11.8
 _ZN15Create_udf_funcD1Ev@Base 10.11.8
 _ZN15Create_udf_funcD2Ev@Base 10.11.8
 _ZN15Dep_module_expr13iterator_sizeE@Base 10.11.8
 _ZN15Dep_module_expr22get_next_unbound_valueEP20Dep_analysis_contextPc@Base 10.11.8
 _ZN15Dep_module_expr24init_unbound_values_iterEPc@Base 10.11.8
 _ZN15Dep_module_exprD0Ev@Base 10.11.8
 _ZN15Dep_module_exprD1Ev@Base 10.11.8
 _ZN15Dep_module_exprD2Ev@Base 10.11.8
 _ZN15Dep_module_goal22get_next_unbound_valueEP20Dep_analysis_contextPc@Base 10.11.8
 _ZN15Dep_module_goal24init_unbound_values_iterEPc@Base 10.11.8
 _ZN15Dep_module_goal8is_finalEv@Base 10.11.8
 _ZN15Dep_module_goalD0Ev@Base 10.11.8
 _ZN15Dep_module_goalD1Ev@Base 10.11.8
 _ZN15Dep_module_goalD2Ev@Base 10.11.8
 _ZN15Dep_value_field13iterator_sizeE@Base 10.11.8
 _ZN15Dep_value_field23get_next_unbound_moduleEP20Dep_analysis_contextPc@Base 10.11.8
 _ZN15Dep_value_field25init_unbound_modules_iterEPc@Base 10.11.8
 _ZN15Dep_value_field35make_unbound_modules_iter_skip_keysEPc@Base 10.11.8
 _ZN15Dep_value_fieldD0Ev@Base 10.11.8
 _ZN15Dep_value_fieldD1Ev@Base 10.11.8
 _ZN15Dep_value_fieldD2Ev@Base 10.11.8
 _ZN15Dep_value_table13iterator_sizeE@Base 10.11.8
 _ZN15Dep_value_table23get_next_unbound_moduleEP20Dep_analysis_contextPc@Base 10.11.8
 _ZN15Dep_value_table25init_unbound_modules_iterEPc@Base 10.11.8
 _ZN15Dep_value_tableD0Ev@Base 10.11.8
 _ZN15Dep_value_tableD1Ev@Base 10.11.8
 _ZN15Dep_value_tableD2Ev@Base 10.11.8
 _ZN15Field_datetime010store_TIMEEPK13st_mysql_time@Base 10.11.8
 _ZN15Field_datetime011sort_stringEPhj@Base 10.11.8
 _ZN15Field_datetime04packEPhPKhj@Base 10.11.8
 _ZN15Field_datetime04sendEP8Protocol@Base 10.11.8
 _ZN15Field_datetime06unpackEPhPKhS2_j@Base 10.11.8
 _ZN15Field_datetime07val_intEv@Base 10.11.8
 _ZN15Field_datetime07val_strEP6StringS1_@Base 10.11.8
 _ZN15Field_datetime08get_dateEP13st_mysql_time11date_mode_t@Base 10.11.8
 _ZN15Field_datetime08val_realEv@Base 10.11.8
 _ZN15Field_datetime0D0Ev@Base 10.11.8
 _ZN15Field_datetime0D1Ev@Base 10.11.8
 _ZN15Field_datetime0D2Ev@Base 10.11.8
 _ZN15Field_datetimef10store_TIMEEPK13st_mysql_time@Base 10.11.8
 _ZN15Field_datetimef19val_datetime_packedEP3THD@Base 10.11.8
 _ZN15Field_datetimef5resetEv@Base 10.11.8
 _ZN15Field_datetimef8get_dateEP13st_mysql_time11date_mode_t@Base 10.11.8
 _ZN15Field_datetimefD0Ev@Base 10.11.8
 _ZN15Field_datetimefD1Ev@Base 10.11.8
 _ZN15Field_datetimefD2Ev@Base 10.11.8
 _ZN15Field_timestamp12store_nativeERK6Native@Base 10.11.8
 _ZN15Field_timestamp13save_in_fieldEP5Field@Base 10.11.8
 _ZN15Field_timestamp13store_decimalEPK10my_decimal@Base 10.11.8
 _ZN15Field_timestamp14store_time_decEPK13st_mysql_timej@Base 10.11.8
 _ZN15Field_timestamp18load_data_set_nullEP3THD@Base 10.11.8
 _ZN15Field_timestamp19store_timestamp_decERK7timevalj@Base 10.11.8
 _ZN15Field_timestamp20get_equal_const_itemEP3THDRKN12Value_source7ContextEP4Item@Base 10.11.8
 _ZN15Field_timestamp21load_data_set_no_dataEP3THDb@Base 10.11.8
 _ZN15Field_timestamp23store_TIME_with_warningEP3THDPK8DatetimePK7ErrConvi@Base 10.11.8
 _ZN15Field_timestamp41zero_time_stored_return_code_with_warningEv@Base 10.11.8
 _ZN15Field_timestamp5storeEPKcmPK15charset_info_st@Base 10.11.8
 _ZN15Field_timestamp5storeEd@Base 10.11.8
 _ZN15Field_timestamp5storeExb@Base 10.11.8
 _ZN15Field_timestamp7val_intEv@Base 10.11.8
 _ZN15Field_timestamp7val_strEP6StringS1_@Base 10.11.8
 _ZN15Field_timestamp8get_dateEP13st_mysql_time11date_mode_t@Base 10.11.8
 _ZN15Field_timestampC1EPhjS0_hN5Field5utypeEPK25st_mysql_const_lex_stringP11TABLE_SHARE@Base 10.11.8
 _ZN15Field_timestampC2EPhjS0_hN5Field5utypeEPK25st_mysql_const_lex_stringP11TABLE_SHARE@Base 10.11.8
 _ZN15Field_varstring11data_lengthEv@Base 10.11.8
 _ZN15Field_varstring11sort_stringEPhj@Base 10.11.8
 _ZN15Field_varstring11val_decimalEP10my_decimal@Base 10.11.8
 _ZN15Field_varstring13hash_not_nullEP6Hasher@Base 10.11.8
 _ZN15Field_varstring13new_key_fieldEP11st_mem_rootP5TABLEPhjS4_j@Base 10.11.8
 _ZN15Field_varstring13set_key_imageEPKhj@Base 10.11.8
 _ZN15Field_varstring14make_new_fieldEP11st_mem_rootP5TABLEb@Base 10.11.8
 _ZN15Field_varstring15print_key_valueEP6Stringj@Base 10.11.8
 _ZN15Field_varstring17packed_col_lengthEPKhj@Base 10.11.8
 _ZN15Field_varstring21max_packed_col_lengthEj@Base 10.11.8
 _ZN15Field_varstring4packEPhPKhj@Base 10.11.8
 _ZN15Field_varstring4sendEP8Protocol@Base 10.11.8
 _ZN15Field_varstring5resetEv@Base 10.11.8
 _ZN15Field_varstring5storeEPKcmPK15charset_info_st@Base 10.11.8
 _ZN15Field_varstring6unpackEPhPKhS2_j@Base 10.11.8
 _ZN15Field_varstring7val_intEv@Base 10.11.8
 _ZN15Field_varstring7val_strEP6StringS1_@Base 10.11.8
 _ZN15Field_varstring8MAX_SIZEE@Base 10.11.8
 _ZN15Field_varstring8val_realEv@Base 10.11.8
 _ZN15Field_varstringD0Ev@Base 10.11.8
 _ZN15Field_varstringD1Ev@Base 10.11.8
 _ZN15Field_varstringD2Ev@Base 10.11.8
 _ZN15Filesort_buffer11sort_bufferEPK10Sort_paramj@Base 10.11.8
 _ZN15Filesort_buffer16free_sort_bufferEv@Base 10.11.8
 _ZN15Filesort_buffer17alloc_sort_bufferEjj@Base 10.11.8
 _ZN15Gis_line_string13init_from_wkbEPKcjN8Geometry12wkbByteOrderEP6String@Base 10.11.8
 _ZN15Gis_line_string13init_from_wktEP15Gis_read_streamP6String@Base 10.11.8
 _ZN15Gis_line_string14init_from_jsonEP16st_json_engine_tbP6String@Base 10.11.8
 _ZN15Gis_line_stringD0Ev@Base 10.11.8
 _ZN15Gis_line_stringD1Ev@Base 10.11.8
 _ZN15Gis_line_stringD2Ev@Base 10.11.8
 _ZN15Gis_multi_point13init_from_wkbEPKcjN8Geometry12wkbByteOrderEP6String@Base 10.11.8
 _ZN15Gis_multi_point13init_from_wktEP15Gis_read_streamP6String@Base 10.11.8
 _ZN15Gis_multi_point14init_from_jsonEP16st_json_engine_tbP6String@Base 10.11.8
 _ZN15Gis_multi_point18init_from_opresultEP6StringPKcj@Base 10.11.8
 _ZN15Gis_multi_point30spherical_distance_multipointsEP8GeometrydPdPi@Base 10.11.8
 _ZN15Gis_multi_pointD0Ev@Base 10.11.8
 _ZN15Gis_multi_pointD1Ev@Base 10.11.8
 _ZN15Gis_multi_pointD2Ev@Base 10.11.8
 _ZN15Gis_read_stream13get_next_wordEP19st_mysql_lex_string@Base 10.11.8
 _ZN15Gis_read_stream13set_error_msgEPKc@Base 10.11.8
 _ZN15Gis_read_stream15get_next_numberEPd@Base 10.11.8
 _ZN15Gis_read_stream16lookup_next_wordEP19st_mysql_lex_string@Base 10.11.8
 _ZN15Gis_read_stream17check_next_symbolEc@Base 10.11.8
 _ZN15Gis_read_stream17get_next_toc_typeEv@Base 10.11.8
 _ZN15Grant_privilege15set_object_nameEP3THDRK17Grant_object_nameP13st_select_lex11privilege_t@Base 10.11.8
 _ZN15Grant_privilege20add_column_privilegeEP3THDRK13Lex_ident_sys11privilege_t@Base 10.11.8
 _ZN15Grant_privilege25add_column_list_privilegeEP3THDR4ListI13Lex_ident_sysE11privilege_t@Base 10.11.8
 _ZN15Item_bin_string5printEP6String15enum_query_type@Base 10.11.8
 _ZN15Item_bin_stringC1EP3THDPKcm@Base 10.11.8
 _ZN15Item_bin_stringC2EP3THDPKcm@Base 10.11.8
 _ZN15Item_bin_stringD0Ev@Base 10.11.8
 _ZN15Item_bin_stringD1Ev@Base 10.11.8
 _ZN15Item_bin_stringD2Ev@Base 10.11.8
 _ZN15Item_bool_func211get_mm_treeEP15RANGE_OPT_PARAMPP4Item@Base 10.11.8
 _ZN15Item_bool_func215remove_eq_condsEP3THDPN4Item11cond_resultEb@Base 10.11.8
 _ZN15Item_bool_func220count_sargable_condsEPv@Base 10.11.8
 _ZN15Item_bool_func226add_key_fields_optimize_opEP4JOINPP9KEY_FIELDPjyPP14SARGABLE_PARAMb@Base 10.11.8
 _ZN15Item_bool_func27is_nullEv@Base 10.11.8
 _ZN15Item_cache_date11val_decimalEP10my_decimal@Base 10.11.8
 _ZN15Item_cache_date12make_literalEP3THD@Base 10.11.8
 _ZN15Item_cache_date15val_time_packedEP3THD@Base 10.11.8
 _ZN15Item_cache_date19val_datetime_packedEP3THD@Base 10.11.8
 _ZN15Item_cache_date7val_intEv@Base 10.11.8
 _ZN15Item_cache_date7val_strEP6String@Base 10.11.8
 _ZN15Item_cache_date8get_copyEP3THD@Base 10.11.8
 _ZN15Item_cache_date8val_realEv@Base 10.11.8
 _ZN15Item_cache_dateD0Ev@Base 10.11.8
 _ZN15Item_cache_dateD1Ev@Base 10.11.8
 _ZN15Item_cache_dateD2Ev@Base 10.11.8
 _ZN15Item_cache_real11cache_valueEv@Base 10.11.8
 _ZN15Item_cache_real11val_decimalEP10my_decimal@Base 10.11.8
 _ZN15Item_cache_real27convert_to_basic_const_itemEP3THD@Base 10.11.8
 _ZN15Item_cache_real7val_intEv@Base 10.11.8
 _ZN15Item_cache_real8get_dateEP3THDP13st_mysql_time11date_mode_t@Base 10.11.8
 _ZN15Item_cache_real8val_realEv@Base 10.11.8
 _ZN15Item_cache_time10val_nativeEP3THDP6Native@Base 10.11.8
 _ZN15Item_cache_time11cache_valueEv@Base 10.11.8
 _ZN15Item_cache_time11val_decimalEP10my_decimal@Base 10.11.8
 _ZN15Item_cache_time12make_literalEP3THD@Base 10.11.8
 _ZN15Item_cache_time15val_time_packedEP3THD@Base 10.11.8
 _ZN15Item_cache_time19val_datetime_packedEP3THD@Base 10.11.8
 _ZN15Item_cache_time7val_intEv@Base 10.11.8
 _ZN15Item_cache_time7val_strEP6String@Base 10.11.8
 _ZN15Item_cache_time8get_copyEP3THD@Base 10.11.8
 _ZN15Item_cache_time8val_realEv@Base 10.11.8
 _ZN15Item_cache_timeD0Ev@Base 10.11.8
 _ZN15Item_cache_timeD1Ev@Base 10.11.8
 _ZN15Item_cache_timeD2Ev@Base 10.11.8
 _ZN15Item_cache_year8get_dateEP3THDP13st_mysql_time11date_mode_t@Base 10.11.8
 _ZN15Item_cache_yearD0Ev@Base 10.11.8
 _ZN15Item_cache_yearD1Ev@Base 10.11.8
 _ZN15Item_cache_yearD2Ev@Base 10.11.8
 _ZN15Item_direct_ref10fix_fieldsEP3THDPP4Item@Base 10.11.8
 _ZN15Item_direct_ref10val_nativeEP3THDP6Native@Base 10.11.8
 _ZN15Item_direct_ref11val_decimalEP10my_decimal@Base 10.11.8
 _ZN15Item_direct_ref15val_time_packedEP3THD@Base 10.11.8
 _ZN15Item_direct_ref19val_datetime_packedEP3THD@Base 10.11.8
 _ZN15Item_direct_ref22remove_item_direct_refEv@Base 10.11.8
 _ZN15Item_direct_ref7is_nullEv@Base 10.11.8
 _ZN15Item_direct_ref7val_intEv@Base 10.11.8
 _ZN15Item_direct_ref7val_strEP6String@Base 10.11.8
 _ZN15Item_direct_ref8get_copyEP3THD@Base 10.11.8
 _ZN15Item_direct_ref8get_dateEP3THDP13st_mysql_time11date_mode_t@Base 10.11.8
 _ZN15Item_direct_ref8ref_typeEv@Base 10.11.8
 _ZN15Item_direct_ref8save_valEP5Field@Base 10.11.8
 _ZN15Item_direct_ref8val_boolEv@Base 10.11.8
 _ZN15Item_direct_ref8val_realEv@Base 10.11.8
 _ZN15Item_direct_refD0Ev@Base 10.11.8
 _ZN15Item_direct_refD1Ev@Base 10.11.8
 _ZN15Item_direct_refD2Ev@Base 10.11.8
 _ZN15Item_dyncol_get11val_decimalEP10my_decimal@Base 10.11.8
 _ZN15Item_dyncol_get13get_dyn_valueEP3THDP23st_dynamic_column_valueP6String@Base 10.11.8
 _ZN15Item_dyncol_get14dynamic_resultEv@Base 10.11.8
 _ZN15Item_dyncol_get18fix_length_and_decEP3THD@Base 10.11.8
 _ZN15Item_dyncol_get23val_int_signed_typecastEv@Base 10.11.8
 _ZN15Item_dyncol_get25val_int_unsigned_typecastEv@Base 10.11.8
 _ZN15Item_dyncol_get5printEP6String15enum_query_type@Base 10.11.8
 _ZN15Item_dyncol_get7val_intEv@Base 10.11.8
 _ZN15Item_dyncol_get7val_strEP6String@Base 10.11.8
 _ZN15Item_dyncol_get8get_copyEP3THD@Base 10.11.8
 _ZN15Item_dyncol_get8get_dateEP3THDP13st_mysql_time11date_mode_t@Base 10.11.8
 _ZN15Item_dyncol_get8val_realEv@Base 10.11.8
 _ZN15Item_dyncol_getD0Ev@Base 10.11.8
 _ZN15Item_dyncol_getD1Ev@Base 10.11.8
 _ZN15Item_dyncol_getD2Ev@Base 10.11.8
 _ZN15Item_func_ascii18fix_length_and_decEP3THD@Base 10.11.8
 _ZN15Item_func_ascii7val_intEv@Base 10.11.8
 _ZN15Item_func_ascii8get_copyEP3THD@Base 10.11.8
 _ZN15Item_func_asciiD0Ev@Base 10.11.8
 _ZN15Item_func_asciiD1Ev@Base 10.11.8
 _ZN15Item_func_asciiD2Ev@Base 10.11.8
 _ZN15Item_func_crc3218fix_length_and_decEP3THD@Base 10.11.8
 _ZN15Item_func_crc327val_intEv@Base 10.11.8
 _ZN15Item_func_crc328get_copyEP3THD@Base 10.11.8
 _ZN15Item_func_crc32D0Ev@Base 10.11.8
 _ZN15Item_func_crc32D1Ev@Base 10.11.8
 _ZN15Item_func_crc32D2Ev@Base 10.11.8
 _ZN15Item_func_equal14add_key_fieldsEP4JOINPP9KEY_FIELDPjyPP14SARGABLE_PARAM@Base 10.11.8
 _ZN15Item_func_equal15neg_transformerEP3THD@Base 10.11.8
 _ZN15Item_func_equal18fix_length_and_decEP3THD@Base 10.11.8
 _ZN15Item_func_equal20find_not_null_fieldsEy@Base 10.11.8
 _ZN15Item_func_equal7val_intEv@Base 10.11.8
 _ZN15Item_func_equal8get_copyEP3THD@Base 10.11.8
 _ZN15Item_func_equalD0Ev@Base 10.11.8
 _ZN15Item_func_equalD1Ev@Base 10.11.8
 _ZN15Item_func_equalD2Ev@Base 10.11.8
 _ZN15Item_func_field18fix_length_and_decEP3THD@Base 10.11.8
 _ZN15Item_func_field7val_intEv@Base 10.11.8
 _ZN15Item_func_field8get_copyEP3THD@Base 10.11.8
 _ZN15Item_func_fieldD0Ev@Base 10.11.8
 _ZN15Item_func_fieldD1Ev@Base 10.11.8
 _ZN15Item_func_fieldD2Ev@Base 10.11.8
 _ZN15Item_func_floor10decimal_opEP10my_decimal@Base 10.11.8
 _ZN15Item_func_floor6int_opEv@Base 10.11.8
 _ZN15Item_func_floor7date_opEP3THDP13st_mysql_time11date_mode_t@Base 10.11.8
 _ZN15Item_func_floor7real_opEv@Base 10.11.8
 _ZN15Item_func_floor7time_opEP3THDP13st_mysql_time@Base 10.11.8
 _ZN15Item_func_floor8get_copyEP3THD@Base 10.11.8
 _ZN15Item_func_floorD0Ev@Base 10.11.8
 _ZN15Item_func_floorD1Ev@Base 10.11.8
 _ZN15Item_func_floorD2Ev@Base 10.11.8
 _ZN15Item_func_lcase18fix_length_and_decEP3THD@Base 10.11.8
 _ZN15Item_func_lcase8get_copyEP3THD@Base 10.11.8
 _ZN15Item_func_lcaseD0Ev@Base 10.11.8
 _ZN15Item_func_lcaseD1Ev@Base 10.11.8
 _ZN15Item_func_lcaseD2Ev@Base 10.11.8
 _ZN15Item_func_log108get_copyEP3THD@Base 10.11.8
 _ZN15Item_func_log108val_realEv@Base 10.11.8
 _ZN15Item_func_log10D0Ev@Base 10.11.8
 _ZN15Item_func_log10D1Ev@Base 10.11.8
 _ZN15Item_func_log10D2Ev@Base 10.11.8
 _ZN15Item_func_ltrim7val_strEP6String@Base 10.11.8
 _ZN15Item_func_ltrim8get_copyEP3THD@Base 10.11.8
 _ZN15Item_func_ltrimD0Ev@Base 10.11.8
 _ZN15Item_func_ltrimD1Ev@Base 10.11.8
 _ZN15Item_func_ltrimD2Ev@Base 10.11.8
 _ZN15Item_func_match10fix_fieldsEP3THDPP4Item@Base 10.11.8
 _ZN15Item_func_match11build_cloneEP3THD@Base 10.11.8
 _ZN15Item_func_match11init_searchEP3THDb@Base 10.11.8
 _ZN15Item_func_match20eval_not_null_tablesEPv@Base 10.11.8
 _ZN15Item_func_match20find_not_null_fieldsEy@Base 10.11.8
 _ZN15Item_func_match22is_expensive_processorEPv@Base 10.11.8
 _ZN15Item_func_match25check_vcol_func_processorEPv@Base 10.11.8
 _ZN15Item_func_match5printEP6String15enum_query_type@Base 10.11.8
 _ZN15Item_func_match7cleanupEv@Base 10.11.8
 _ZN15Item_func_match7val_intEv@Base 10.11.8
 _ZN15Item_func_match8get_copyEP3THD@Base 10.11.8
 _ZN15Item_func_match8val_realEv@Base 10.11.8
 _ZN15Item_func_match9fix_indexEv@Base 10.11.8
 _ZN15Item_func_matchD0Ev@Base 10.11.8
 _ZN15Item_func_matchD1Ev@Base 10.11.8
 _ZN15Item_func_matchD2Ev@Base 10.11.8
 _ZN15Item_func_minus10decimal_opEP10my_decimal@Base 10.11.8
 _ZN15Item_func_minus17fix_unsigned_flagEv@Base 10.11.8
 _ZN15Item_func_minus18fix_length_and_decEP3THD@Base 10.11.8
 _ZN15Item_func_minus6int_opEv@Base 10.11.8
 _ZN15Item_func_minus7real_opEv@Base 10.11.8
 _ZN15Item_func_minus8get_copyEP3THD@Base 10.11.8
 _ZN15Item_func_minusD0Ev@Base 10.11.8
 _ZN15Item_func_minusD1Ev@Base 10.11.8
 _ZN15Item_func_minusD2Ev@Base 10.11.8
 _ZN15Item_func_month18fix_length_and_decEP3THD@Base 10.11.8
 _ZN15Item_func_month25check_vcol_func_processorEPv@Base 10.11.8
 _ZN15Item_func_month30check_partition_func_processorEPv@Base 10.11.8
 _ZN15Item_func_month31check_valid_arguments_processorEPv@Base 10.11.8
 _ZN15Item_func_month7val_intEv@Base 10.11.8
 _ZN15Item_func_month8get_copyEP3THD@Base 10.11.8
 _ZN15Item_func_monthD0Ev@Base 10.11.8
 _ZN15Item_func_monthD1Ev@Base 10.11.8
 _ZN15Item_func_monthD2Ev@Base 10.11.8
 _ZN15Item_func_point7val_strEP6String@Base 10.11.8
 _ZN15Item_func_point8get_copyEP3THD@Base 10.11.8
 _ZN15Item_func_pointD0Ev@Base 10.11.8
 _ZN15Item_func_pointD1Ev@Base 10.11.8
 _ZN15Item_func_pointD2Ev@Base 10.11.8
 _ZN15Item_func_quote18fix_length_and_decEP3THD@Base 10.11.8
 _ZN15Item_func_quote7val_strEP6String@Base 10.11.8
 _ZN15Item_func_quote8get_copyEP3THD@Base 10.11.8
 _ZN15Item_func_quoteD0Ev@Base 10.11.8
 _ZN15Item_func_quoteD1Ev@Base 10.11.8
 _ZN15Item_func_quoteD2Ev@Base 10.11.8
 _ZN15Item_func_regex18fix_length_and_decEP3THD@Base 10.11.8
 _ZN15Item_func_regex5printEP6String15enum_query_type@Base 10.11.8
 _ZN15Item_func_regex7cleanupEv@Base 10.11.8
 _ZN15Item_func_regex7val_intEv@Base 10.11.8
 _ZN15Item_func_regex8get_copyEP3THD@Base 10.11.8
 _ZN15Item_func_regexC1EP3THDP4ItemS3_@Base 10.11.8
 _ZN15Item_func_regexC2EP3THDP4ItemS3_@Base 10.11.8
 _ZN15Item_func_regexD0Ev@Base 10.11.8
 _ZN15Item_func_regexD1Ev@Base 10.11.8
 _ZN15Item_func_regexD2Ev@Base 10.11.8
 _ZN15Item_func_right18fix_length_and_decEP3THD@Base 10.11.8
 _ZN15Item_func_right7val_strEP6String@Base 10.11.8
 _ZN15Item_func_right8get_copyEP3THD@Base 10.11.8
 _ZN15Item_func_rightD0Ev@Base 10.11.8
 _ZN15Item_func_rightD1Ev@Base 10.11.8
 _ZN15Item_func_rightD2Ev@Base 10.11.8
 _ZN15Item_func_round10decimal_opEP10my_decimal@Base 10.11.8
 _ZN15Item_func_round11fix_arg_intEPK12Type_handlerPK19Type_std_attributesb@Base 10.11.8
 _ZN15Item_func_round12fix_arg_timeEv@Base 10.11.8
 _ZN15Item_func_round14fix_arg_doubleEv@Base 10.11.8
 _ZN15Item_func_round15fix_arg_decimalEv@Base 10.11.8
 _ZN15Item_func_round16fix_arg_datetimeEv@Base 10.11.8
 _ZN15Item_func_round16fix_arg_temporalEPK12Type_handlerj@Base 10.11.8
 _ZN15Item_func_round17fix_arg_slong_ge0Ev@Base 10.11.8
 _ZN15Item_func_round18fix_arg_hex_hybridEv@Base 10.11.8
 _ZN15Item_func_round18fix_length_and_decEP3THD@Base 10.11.8
 _ZN15Item_func_round25fix_length_and_dec_doubleEj@Base 10.11.8
 _ZN15Item_func_round26fix_length_and_dec_decimalEj@Base 10.11.8
 _ZN15Item_func_round27test_if_length_can_increaseEv@Base 10.11.8
 _ZN15Item_func_round6int_opEv@Base 10.11.8
 _ZN15Item_func_round6str_opEP6String@Base 10.11.8
 _ZN15Item_func_round7date_opEP3THDP13st_mysql_time11date_mode_t@Base 10.11.8
 _ZN15Item_func_round7real_opEv@Base 10.11.8
 _ZN15Item_func_round7time_opEP3THDP13st_mysql_time@Base 10.11.8
 _ZN15Item_func_round8get_copyEP3THD@Base 10.11.8
 _ZN15Item_func_round9native_opEP3THDP6Native@Base 10.11.8
 _ZN15Item_func_roundD0Ev@Base 10.11.8
 _ZN15Item_func_roundD1Ev@Base 10.11.8
 _ZN15Item_func_roundD2Ev@Base 10.11.8
 _ZN15Item_func_rtrim7val_strEP6String@Base 10.11.8
 _ZN15Item_func_rtrim8get_copyEP3THD@Base 10.11.8
 _ZN15Item_func_rtrimD0Ev@Base 10.11.8
 _ZN15Item_func_rtrimD1Ev@Base 10.11.8
 _ZN15Item_func_rtrimD2Ev@Base 10.11.8
 _ZN15Item_func_sleep12is_expensiveEv@Base 10.11.8
 _ZN15Item_func_sleep18fix_length_and_decEP3THD@Base 10.11.8
 _ZN15Item_func_sleep25check_vcol_func_processorEPv@Base 10.11.8
 _ZN15Item_func_sleep7val_intEv@Base 10.11.8
 _ZN15Item_func_sleep8get_copyEP3THD@Base 10.11.8
 _ZN15Item_func_sleepD0Ev@Base 10.11.8
 _ZN15Item_func_sleepD1Ev@Base 10.11.8
 _ZN15Item_func_sleepD2Ev@Base 10.11.8
 _ZN15Item_func_space18fix_length_and_decEP3THD@Base 10.11.8
 _ZN15Item_func_space7val_strEP6String@Base 10.11.8
 _ZN15Item_func_space8get_copyEP3THD@Base 10.11.8
 _ZN15Item_func_spaceD0Ev@Base 10.11.8
 _ZN15Item_func_spaceD1Ev@Base 10.11.8
 _ZN15Item_func_spaceD2Ev@Base 10.11.8
 _ZN15Item_func_truth18fix_length_and_decEP3THD@Base 10.11.8
 _ZN15Item_func_truth5printEP6String15enum_query_type@Base 10.11.8
 _ZN15Item_func_truth7val_intEv@Base 10.11.8
 _ZN15Item_func_truth8val_boolEv@Base 10.11.8
 _ZN15Item_func_ucase18fix_length_and_decEP3THD@Base 10.11.8
 _ZN15Item_func_ucase8get_copyEP3THD@Base 10.11.8
 _ZN15Item_func_ucaseD0Ev@Base 10.11.8
 _ZN15Item_func_ucaseD1Ev@Base 10.11.8
 _ZN15Item_func_ucaseD2Ev@Base 10.11.8
 _ZN15Item_func_unhex18fix_length_and_decEP3THD@Base 10.11.8
 _ZN15Item_func_unhex7val_strEP6String@Base 10.11.8
 _ZN15Item_func_unhex8get_copyEP3THD@Base 10.11.8
 _ZN15Item_func_unhexD0Ev@Base 10.11.8
 _ZN15Item_func_unhexD1Ev@Base 10.11.8
 _ZN15Item_func_unhexD2Ev@Base 10.11.8
 _ZN15Item_func_units18fix_length_and_decEP3THD@Base 10.11.8
 _ZN15Item_func_units8get_copyEP3THD@Base 10.11.8
 _ZN15Item_func_units8val_realEv@Base 10.11.8
 _ZN15Item_func_unitsD0Ev@Base 10.11.8
 _ZN15Item_func_unitsD1Ev@Base 10.11.8
 _ZN15Item_func_unitsD2Ev@Base 10.11.8
 _ZN15Item_hex_hybrid11val_decimalEP10my_decimal@Base 10.11.8
 _ZN15Item_hex_hybrid13save_in_fieldEP5Fieldb@Base 10.11.8
 _ZN15Item_hex_hybrid5printEP6String15enum_query_type@Base 10.11.8
 _ZN15Item_hex_hybrid7val_intEv@Base 10.11.8
 _ZN15Item_hex_hybrid8get_copyEP3THD@Base 10.11.8
 _ZN15Item_hex_hybrid8val_realEv@Base 10.11.8
 _ZN15Item_hex_hybridD0Ev@Base 10.11.8
 _ZN15Item_hex_hybridD1Ev@Base 10.11.8
 _ZN15Item_hex_hybridD2Ev@Base 10.11.8
 _ZN15Item_hex_string11val_decimalEP10my_decimal@Base 10.11.8
 _ZN15Item_hex_string13save_in_fieldEP5Fieldb@Base 10.11.8
 _ZN15Item_hex_string5printEP6String15enum_query_type@Base 10.11.8
 _ZN15Item_hex_string7val_intEv@Base 10.11.8
 _ZN15Item_hex_string8get_copyEP3THD@Base 10.11.8
 _ZN15Item_hex_string8val_realEv@Base 10.11.8
 _ZN15Item_hex_stringD0Ev@Base 10.11.8
 _ZN15Item_hex_stringD1Ev@Base 10.11.8
 _ZN15Item_hex_stringD2Ev@Base 10.11.8
 _ZN15Item_name_const10fix_fieldsEP3THDPP4Item@Base 10.11.8
 _ZN15Item_name_const10val_nativeEP3THDP6Native@Base 10.11.8
 _ZN15Item_name_const11val_decimalEP10my_decimal@Base 10.11.8
 _ZN15Item_name_const13save_in_fieldEP5Fieldb@Base 10.11.8
 _ZN15Item_name_const19create_tmp_field_exEP11st_mem_rootP5TABLEP13Tmp_field_srcPK15Tmp_field_param@Base 10.11.8
 _ZN15Item_name_const25check_vcol_func_processorEPv@Base 10.11.8
 _ZN15Item_name_const4sendEP8ProtocolP8st_value@Base 10.11.8
 _ZN15Item_name_const5printEP6String15enum_query_type@Base 10.11.8
 _ZN15Item_name_const7is_nullEv@Base 10.11.8
 _ZN15Item_name_const7val_intEv@Base 10.11.8
 _ZN15Item_name_const7val_strEP6String@Base 10.11.8
 _ZN15Item_name_const8get_copyEP3THD@Base 10.11.8
 _ZN15Item_name_const8get_dateEP3THDP13st_mysql_time11date_mode_t@Base 10.11.8
 _ZN15Item_name_const8val_realEv@Base 10.11.8
 _ZN15Item_name_constC1EP3THDP4ItemS3_@Base 10.11.8
 _ZN15Item_name_constC2EP3THDP4ItemS3_@Base 10.11.8
 _ZN15Item_name_constD0Ev@Base 10.11.8
 _ZN15Item_name_constD1Ev@Base 10.11.8
 _ZN15Item_name_constD2Ev@Base 10.11.8
 _ZN15Item_return_intD0Ev@Base 10.11.8
 _ZN15Item_return_intD1Ev@Base 10.11.8
 _ZN15Item_return_intD2Ev@Base 10.11.8
 _ZN15Item_string_sysC1EP3THDPKc@Base 10.11.8
 _ZN15Item_string_sysC2EP3THDPKc@Base 10.11.8
 _ZN15Item_string_sysD0Ev@Base 10.11.8
 _ZN15Item_string_sysD1Ev@Base 10.11.8
 _ZN15Item_string_sysD2Ev@Base 10.11.8
 _ZN15Item_sum_double11val_decimalEP10my_decimal@Base 10.11.8
 _ZN15Item_sum_double7val_intEv@Base 10.11.8
 _ZN15Item_sum_double7val_strEP6String@Base 10.11.8
 _ZN15Item_sum_double8get_dateEP3THDP13st_mysql_time11date_mode_t@Base 10.11.8
 _ZN15Item_sum_hybrid25fix_length_and_dec_stringEv@Base 10.11.8
 _ZN15Item_sum_hybrid26fix_length_and_dec_genericEv@Base 10.11.8
 _ZN15Item_sum_hybrid26fix_length_and_dec_numericEPK12Type_handler@Base 10.11.8
 _ZN15Item_sum_hybrid27fix_length_and_dec_sint_ge0Ev@Base 10.11.8
 _ZN15JOIN_CACHE_BKAH12get_join_algEv@Base 10.11.8
 _ZN15JOIN_CACHE_BKAH16setup_aux_bufferER17st_handler_buffer@Base 10.11.8
 _ZN15JOIN_CACHE_BKAH16skip_index_tupleEPv@Base 10.11.8
 _ZN15JOIN_CACHE_BKAH17save_explain_dataEP16EXPLAIN_BKA_TYPE@Base 10.11.8
 _ZN15JOIN_CACHE_BKAH24get_curr_association_ptrEv@Base 10.11.8
 _ZN15JOIN_CACHE_BKAH24prepare_look_for_matchesEb@Base 10.11.8
 _ZN15JOIN_CACHE_BKAH28get_number_of_ranges_for_mrrEv@Base 10.11.8
 _ZN15JOIN_CACHE_BKAH4initEb@Base 10.11.8
 _ZN15JOIN_CACHE_BKAHD0Ev@Base 10.11.8
 _ZN15JOIN_CACHE_BKAHD1Ev@Base 10.11.8
 _ZN15JOIN_CACHE_BKAHD2Ev@Base 10.11.8
 _ZN15JOIN_CACHE_BNLH12get_join_algEv@Base 10.11.8
 _ZN15JOIN_CACHE_BNLH13is_key_accessEv@Base 10.11.8
 _ZN15JOIN_CACHE_BNLH24prepare_look_for_matchesEb@Base 10.11.8
 _ZN15JOIN_CACHE_BNLH28get_next_candidate_for_matchEv@Base 10.11.8
 _ZN15JOIN_CACHE_BNLH29read_next_candidate_for_matchEPh@Base 10.11.8
 _ZN15JOIN_CACHE_BNLH29skip_next_candidate_for_matchEPh@Base 10.11.8
 _ZN15JOIN_CACHE_BNLH30get_matching_chain_by_join_keyEv@Base 10.11.8
 _ZN15JOIN_CACHE_BNLH4initEb@Base 10.11.8
 _ZN15JOIN_CACHE_BNLHD0Ev@Base 10.11.8
 _ZN15JOIN_CACHE_BNLHD1Ev@Base 10.11.8
 _ZN15JOIN_CACHE_BNLHD2Ev@Base 10.11.8
 _ZN15Lex_select_lock6set_toEP13st_select_lex@Base 10.11.8
 _ZN15Load_data_param16add_outvar_fieldEP3THDPK5Field@Base 10.11.8
 _ZN15Load_data_param19add_outvar_user_varEP3THD@Base 10.11.8
 _ZN15MYSQL_QUERY_LOG11reopen_fileEv@Base 10.11.8
 _ZN15MYSQL_QUERY_LOG5writeEP3THDlPKcmyybS3_m@Base 10.11.8
 _ZN15MYSQL_QUERY_LOG5writeElPKcmyS1_mS1_m@Base 10.11.8
 _ZN15MYSQL_QUERY_LOGD0Ev@Base 10.11.8
 _ZN15MYSQL_QUERY_LOGD1Ev@Base 10.11.8
 _ZN15MYSQL_QUERY_LOGD2Ev@Base 10.11.8
 _ZN15Opt_trace_start4initEP3THDP10TABLE_LIST16enum_sql_commandP4ListI12set_var_baseEPKcmPK15charset_info_st@Base 10.11.8
 _ZN15Opt_trace_startD1Ev@Base 10.11.8
 _ZN15Opt_trace_startD2Ev@Base 10.11.8
 _ZN15PolyLock_rwlock6rdlockEv@Base 10.11.8
 _ZN15PolyLock_rwlock6unlockEv@Base 10.11.8
 _ZN15PolyLock_rwlock6wrlockEv@Base 10.11.8
 _ZN15PolyLock_rwlockD0Ev@Base 10.11.8
 _ZN15PolyLock_rwlockD1Ev@Base 10.11.8
 _ZN15PolyLock_rwlockD2Ev@Base 10.11.8
 _ZN15Protocol_binary10store_dateEP13st_mysql_time@Base 10.11.8
 _ZN15Protocol_binary10store_longEx@Base 10.11.8
 _ZN15Protocol_binary10store_nullEv@Base 10.11.8
 _ZN15Protocol_binary10store_timeEP13st_mysql_timei@Base 10.11.8
 _ZN15Protocol_binary10store_tinyEx@Base 10.11.8
 _ZN15Protocol_binary11store_floatEfj@Base 10.11.8
 _ZN15Protocol_binary11store_shortEx@Base 10.11.8
 _ZN15Protocol_binary12store_doubleEdj@Base 10.11.8
 _ZN15Protocol_binary13store_decimalEPK10my_decimal@Base 10.11.8
 _ZN15Protocol_binary14net_store_dataEPKhm@Base 10.11.8
 _ZN15Protocol_binary14store_datetimeEP13st_mysql_timei@Base 10.11.8
 _ZN15Protocol_binary14store_longlongExb@Base 10.11.8
 _ZN15Protocol_binary16prepare_for_sendEj@Base 10.11.8
 _ZN15Protocol_binary17net_store_data_csEPKhmPK15charset_info_stS4_@Base 10.11.8
 _ZN15Protocol_binary18prepare_for_resendEv@Base 10.11.8
 _ZN15Protocol_binary19send_out_parametersEP4ListI10Item_paramE@Base 10.11.8
 _ZN15Protocol_binary4typeEv@Base 10.11.8
 _ZN15Protocol_binary5storeEP5Field@Base 10.11.8
 _ZN15Protocol_binary5writeEv@Base 10.11.8
 _ZN15Protocol_binary9store_strEPKcmPK15charset_info_stS4_@Base 10.11.8
 _ZN15Protocol_binaryD0Ev@Base 10.11.8
 _ZN15Protocol_binaryD1Ev@Base 10.11.8
 _ZN15Protocol_binaryD2Ev@Base 10.11.8
 _ZN15Query_log_event11begin_eventEP6Stringm24enum_binlog_checksum_alg@Base 10.11.8
 _ZN15Query_log_event11dummy_eventEP6Stringm24enum_binlog_checksum_alg@Base 10.11.8
 _ZN15Query_log_event11is_rollbackEv@Base 10.11.8
 _ZN15Query_log_event13get_type_codeEv@Base 10.11.8
 _ZN15Query_log_event29write_post_header_for_derivedEv@Base 10.11.8
 _ZN15Query_log_event32get_post_header_size_for_derivedEv@Base 10.11.8
 _ZN15Query_log_event5writeEv@Base 10.11.8
 _ZN15Query_log_event6get_dbEv@Base 10.11.8
 _ZN15Query_log_event8is_beginEv@Base 10.11.8
 _ZN15Query_log_event9is_commitEv@Base 10.11.8
 _ZN15Query_log_eventC1EP3THDPKcmbbbi@Base 10.11.8
 _ZN15Query_log_eventC1EPKhjPK28Format_description_log_event14Log_event_type@Base 10.11.8
 _ZN15Query_log_eventC1Ev@Base 10.11.8
 _ZN15Query_log_eventC2EP3THDPKcmbbbi@Base 10.11.8
 _ZN15Query_log_eventC2EPKhjPK28Format_description_log_event14Log_event_type@Base 10.11.8
 _ZN15Query_log_eventC2Ev@Base 10.11.8
 _ZN15Query_log_eventD0Ev@Base 10.11.8
 _ZN15Query_log_eventD1Ev@Base 10.11.8
 _ZN15Query_log_eventD2Ev@Base 10.11.8
 _ZN15SORT_FIELD_ATTR25compare_packed_varstringsEPhPmS0_S1_@Base 10.11.8
 _ZN15SORT_FIELD_ATTR30compare_packed_fixed_size_valsEPhPmS0_S1_@Base 10.11.8
 _ZN15SORT_FIELD_ATTR30set_length_and_original_lengthEP3THDj@Base 10.11.8
 _ZN15Server_runnableD0Ev@Base 10.11.8
 _ZN15Server_runnableD1Ev@Base 10.11.8
 _ZN15Server_runnableD2Ev@Base 10.11.8
 _ZN15Sys_var_charptr14session_updateEP3THDP7set_var@Base 10.11.8
 _ZN15Sys_var_charptr20session_save_defaultEP3THDP7set_var@Base 10.11.8
 _ZN15Sys_var_charptrC1EPKcS1_ilm8CMD_LINES1_P8PolyLockN7sys_var18binlog_status_enumEPFbPS5_P3THDP7set_varEPFbS7_S9_13enum_var_typeES1_@Base 10.11.8
 _ZN15Sys_var_charptrC2EPKcS1_ilm8CMD_LINES1_P8PolyLockN7sys_var18binlog_status_enumEPFbPS5_P3THDP7set_varEPFbS7_S9_13enum_var_typeES1_@Base 10.11.8
 _ZN15Sys_var_charptrD0Ev@Base 10.11.8
 _ZN15Sys_var_charptrD1Ev@Base 10.11.8
 _ZN15Sys_var_charptrD2Ev@Base 10.11.8
 _ZN15Sys_var_flagset13global_updateEP3THDP7set_var@Base 10.11.8
 _ZN15Sys_var_flagset14session_updateEP3THDP7set_var@Base 10.11.8
 _ZN15Sys_var_flagset19global_save_defaultEP3THDP7set_var@Base 10.11.8
 _ZN15Sys_var_flagset20session_save_defaultEP3THDP7set_var@Base 10.11.8
 _ZN15Sys_var_flagset8do_checkEP3THDP7set_var@Base 10.11.8
 _ZN15Sys_var_flagsetC1EPKcS1_ilm8CMD_LINEPS1_yP8PolyLockN7sys_var18binlog_status_enumEPFbPS6_P3THDP7set_varEPFbS8_SA_13enum_var_typeES1_@Base 10.11.8
 _ZN15Sys_var_flagsetC2EPKcS1_ilm8CMD_LINEPS1_yP8PolyLockN7sys_var18binlog_status_enumEPFbPS6_P3THDP7set_varEPFbS8_SA_13enum_var_typeES1_@Base 10.11.8
 _ZN15Sys_var_flagsetD0Ev@Base 10.11.8
 _ZN15Sys_var_flagsetD1Ev@Base 10.11.8
 _ZN15Sys_var_flagsetD2Ev@Base 10.11.8
 _ZN15Sys_var_integerIiLm3EL20enum_mysql_show_type10EE13global_updateEP3THDP7set_var@Base 10.11.8
 _ZN15Sys_var_integerIiLm3EL20enum_mysql_show_type10EE14session_updateEP3THDP7set_var@Base 10.11.8
 _ZN15Sys_var_integerIiLm3EL20enum_mysql_show_type10EE19global_save_defaultEP3THDP7set_var@Base 10.11.8
 _ZN15Sys_var_integerIiLm3EL20enum_mysql_show_type10EE20session_save_defaultEP3THDP7set_var@Base 10.11.8
 _ZN15Sys_var_integerIiLm3EL20enum_mysql_show_type10EE8do_checkEP3THDP7set_var@Base 10.11.8
 _ZN15Sys_var_integerIiLm3EL20enum_mysql_show_type10EEC1EPKcS3_ilm8CMD_LINEiiijP8PolyLockN7sys_var18binlog_status_enumEPFbPS7_P3THDP7set_varEPFbS9_SB_13enum_var_typeES3_@Base 10.11.8
 _ZN15Sys_var_integerIiLm3EL20enum_mysql_show_type10EEC2EPKcS3_ilm8CMD_LINEiiijP8PolyLockN7sys_var18binlog_status_enumEPFbPS7_P3THDP7set_varEPFbS9_SB_13enum_var_typeES3_@Base 10.11.8
 _ZN15Sys_var_integerIiLm3EL20enum_mysql_show_type10EED0Ev@Base 10.11.8
 _ZN15Sys_var_integerIiLm3EL20enum_mysql_show_type10EED1Ev@Base 10.11.8
 _ZN15Sys_var_integerIiLm3EL20enum_mysql_show_type10EED2Ev@Base 10.11.8
 _ZN15Sys_var_integerIjLm4EL20enum_mysql_show_type2EE13global_updateEP3THDP7set_var@Base 10.11.8
 _ZN15Sys_var_integerIjLm4EL20enum_mysql_show_type2EE14session_updateEP3THDP7set_var@Base 10.11.8
 _ZN15Sys_var_integerIjLm4EL20enum_mysql_show_type2EE19global_save_defaultEP3THDP7set_var@Base 10.11.8
 _ZN15Sys_var_integerIjLm4EL20enum_mysql_show_type2EE20session_save_defaultEP3THDP7set_var@Base 10.11.8
 _ZN15Sys_var_integerIjLm4EL20enum_mysql_show_type2EE8do_checkEP3THDP7set_var@Base 10.11.8
 _ZN15Sys_var_integerIjLm4EL20enum_mysql_show_type2EEC1EPKcS3_ilm8CMD_LINEjjjjP8PolyLockN7sys_var18binlog_status_enumEPFbPS7_P3THDP7set_varEPFbS9_SB_13enum_var_typeES3_@Base 10.11.8
 _ZN15Sys_var_integerIjLm4EL20enum_mysql_show_type2EEC2EPKcS3_ilm8CMD_LINEjjjjP8PolyLockN7sys_var18binlog_status_enumEPFbPS7_P3THDP7set_varEPFbS9_SB_13enum_var_typeES3_@Base 10.11.8
 _ZN15Sys_var_integerIjLm4EL20enum_mysql_show_type2EED0Ev@Base 10.11.8
 _ZN15Sys_var_integerIjLm4EL20enum_mysql_show_type2EED1Ev@Base 10.11.8
 _ZN15Sys_var_integerIjLm4EL20enum_mysql_show_type2EED2Ev@Base 10.11.8
 _ZN15Sys_var_integerIlLm5EL20enum_mysql_show_type11EE13global_updateEP3THDP7set_var@Base 10.11.8
 _ZN15Sys_var_integerIlLm5EL20enum_mysql_show_type11EE14session_updateEP3THDP7set_var@Base 10.11.8
 _ZN15Sys_var_integerIlLm5EL20enum_mysql_show_type11EE19global_save_defaultEP3THDP7set_var@Base 10.11.8
 _ZN15Sys_var_integerIlLm5EL20enum_mysql_show_type11EE20session_save_defaultEP3THDP7set_var@Base 10.11.8
 _ZN15Sys_var_integerIlLm5EL20enum_mysql_show_type11EE8do_checkEP3THDP7set_var@Base 10.11.8
 _ZN15Sys_var_integerIlLm5EL20enum_mysql_show_type11EEC1EPKcS3_ilm8CMD_LINEllljP8PolyLockN7sys_var18binlog_status_enumEPFbPS7_P3THDP7set_varEPFbS9_SB_13enum_var_typeES3_@Base 10.11.8
 _ZN15Sys_var_integerIlLm5EL20enum_mysql_show_type11EEC2EPKcS3_ilm8CMD_LINEllljP8PolyLockN7sys_var18binlog_status_enumEPFbPS7_P3THDP7set_varEPFbS9_SB_13enum_var_typeES3_@Base 10.11.8
 _ZN15Sys_var_integerIlLm5EL20enum_mysql_show_type11EED0Ev@Base 10.11.8
 _ZN15Sys_var_integerIlLm5EL20enum_mysql_show_type11EED1Ev@Base 10.11.8
 _ZN15Sys_var_integerIlLm5EL20enum_mysql_show_type11EED2Ev@Base 10.11.8
 _ZN15Sys_var_integerImLm6EL20enum_mysql_show_type3EE13global_updateEP3THDP7set_var@Base 10.11.8
 _ZN15Sys_var_integerImLm6EL20enum_mysql_show_type3EE14session_updateEP3THDP7set_var@Base 10.11.8
 _ZN15Sys_var_integerImLm6EL20enum_mysql_show_type3EE19global_save_defaultEP3THDP7set_var@Base 10.11.8
 _ZN15Sys_var_integerImLm6EL20enum_mysql_show_type3EE20session_save_defaultEP3THDP7set_var@Base 10.11.8
 _ZN15Sys_var_integerImLm6EL20enum_mysql_show_type3EE8do_checkEP3THDP7set_var@Base 10.11.8
 _ZN15Sys_var_integerImLm6EL20enum_mysql_show_type3EEC1EPKcS3_ilm8CMD_LINEmmmjP8PolyLockN7sys_var18binlog_status_enumEPFbPS7_P3THDP7set_varEPFbS9_SB_13enum_var_typeES3_@Base 10.11.8
 _ZN15Sys_var_integerImLm6EL20enum_mysql_show_type3EEC2EPKcS3_ilm8CMD_LINEmmmjP8PolyLockN7sys_var18binlog_status_enumEPFbPS7_P3THDP7set_varEPFbS9_SB_13enum_var_typeES3_@Base 10.11.8
 _ZN15Sys_var_integerImLm6EL20enum_mysql_show_type3EED0Ev@Base 10.11.8
 _ZN15Sys_var_integerImLm6EL20enum_mysql_show_type3EED1Ev@Base 10.11.8
 _ZN15Sys_var_integerImLm6EL20enum_mysql_show_type3EED2Ev@Base 10.11.8
 _ZN15Sys_var_integerIyLm8EL20enum_mysql_show_type18EE13global_updateEP3THDP7set_var@Base 10.11.8
 _ZN15Sys_var_integerIyLm8EL20enum_mysql_show_type18EE14session_updateEP3THDP7set_var@Base 10.11.8
 _ZN15Sys_var_integerIyLm8EL20enum_mysql_show_type18EE19global_save_defaultEP3THDP7set_var@Base 10.11.8
 _ZN15Sys_var_integerIyLm8EL20enum_mysql_show_type18EE20session_save_defaultEP3THDP7set_var@Base 10.11.8
 _ZN15Sys_var_integerIyLm8EL20enum_mysql_show_type18EE8do_checkEP3THDP7set_var@Base 10.11.8
 _ZN15Sys_var_integerIyLm8EL20enum_mysql_show_type18EEC1EPKcS3_ilm8CMD_LINEyyyjP8PolyLockN7sys_var18binlog_status_enumEPFbPS7_P3THDP7set_varEPFbS9_SB_13enum_var_typeES3_@Base 10.11.8
 _ZN15Sys_var_integerIyLm8EL20enum_mysql_show_type18EEC2EPKcS3_ilm8CMD_LINEyyyjP8PolyLockN7sys_var18binlog_status_enumEPFbPS7_P3THDP7set_varEPFbS9_SB_13enum_var_typeES3_@Base 10.11.8
 _ZN15Sys_var_integerIyLm8EL20enum_mysql_show_type18EED0Ev@Base 10.11.8
 _ZN15Sys_var_integerIyLm8EL20enum_mysql_show_type18EED1Ev@Base 10.11.8
 _ZN15Sys_var_integerIyLm8EL20enum_mysql_show_type18EED2Ev@Base 10.11.8
 _ZN15Sys_var_integerIyLm8EL20enum_mysql_show_type4EE13global_updateEP3THDP7set_var@Base 10.11.8
 _ZN15Sys_var_integerIyLm8EL20enum_mysql_show_type4EE14session_updateEP3THDP7set_var@Base 10.11.8
 _ZN15Sys_var_integerIyLm8EL20enum_mysql_show_type4EE19global_save_defaultEP3THDP7set_var@Base 10.11.8
 _ZN15Sys_var_integerIyLm8EL20enum_mysql_show_type4EE20session_save_defaultEP3THDP7set_var@Base 10.11.8
 _ZN15Sys_var_integerIyLm8EL20enum_mysql_show_type4EE8do_checkEP3THDP7set_var@Base 10.11.8
 _ZN15Sys_var_integerIyLm8EL20enum_mysql_show_type4EEC1EPKcS3_ilm8CMD_LINEyyyjP8PolyLockN7sys_var18binlog_status_enumEPFbPS7_P3THDP7set_varEPFbS9_SB_13enum_var_typeES3_@Base 10.11.8
 _ZN15Sys_var_integerIyLm8EL20enum_mysql_show_type4EEC2EPKcS3_ilm8CMD_LINEyyyjP8PolyLockN7sys_var18binlog_status_enumEPFbPS7_P3THDP7set_varEPFbS9_SB_13enum_var_typeES3_@Base 10.11.8
 _ZN15Sys_var_integerIyLm8EL20enum_mysql_show_type4EED0Ev@Base 10.11.8
 _ZN15Sys_var_integerIyLm8EL20enum_mysql_show_type4EED1Ev@Base 10.11.8
 _ZN15Sys_var_integerIyLm8EL20enum_mysql_show_type4EED2Ev@Base 10.11.8
 _ZN15Sys_var_typelib13check_maximumEP3THDP7set_varPKcx@Base 10.11.8
 _ZN15Sys_var_typelib8do_checkEP3THDP7set_var@Base 10.11.8
 _ZN15TMP_TABLE_PARAM4initEv@Base 10.11.8
 _ZN15TMP_TABLE_PARAM7cleanupEv@Base 10.11.8
 _ZN15TRP_INDEX_MERGE10make_quickEP5PARAMbP11st_mem_root@Base 10.11.8
 _ZN15TRP_INDEX_MERGED0Ev@Base 10.11.8
 _ZN15TRP_INDEX_MERGED1Ev@Base 10.11.8
 _ZN15TRP_INDEX_MERGED2Ev@Base 10.11.8
 _ZN15Temporal_hybridC1EP3THDP4Item11date_mode_t@Base 10.11.8
 _ZN15Temporal_hybridC2EP3THDP4Item11date_mode_t@Base 10.11.8
 _ZN15Vers_parse_info11default_endE@Base 10.11.8
 _ZN15Vers_parse_info12fix_implicitEP3THDP10Alter_info@Base 10.11.8
 _ZN15Vers_parse_info13default_startE@Base 10.11.8
 _ZN15Vers_parse_info14fix_alter_infoEP3THDP10Alter_infoP14HA_CREATE_INFOP5TABLE@Base 10.11.8
 _ZN15Vers_parse_info15fix_create_likeER10Alter_infoR14HA_CREATE_INFOR10TABLE_LISTS5_@Base 10.11.8
 _ZN15Vers_parse_info16create_sys_fieldEP3THDPKcP10Alter_infoi@Base 10.11.8
 _ZN15derived_handler11print_errorEim@Base 10.11.8
 _ZN15derived_handler11set_derivedEP10TABLE_LIST@Base 10.11.8
 _ZN15field_ulonglong11get_max_argEP6String@Base 10.11.8
 _ZN15field_ulonglong11get_min_argEP6String@Base 10.11.8
 _ZN15field_ulonglong12collect_enumEv@Base 10.11.8
 _ZN15field_ulonglong12get_opt_typeEP6Stringy@Base 10.11.8
 _ZN15field_ulonglong3addEv@Base 10.11.8
 _ZN15field_ulonglong3avgEP6Stringy@Base 10.11.8
 _ZN15field_ulonglong3stdEP6Stringy@Base 10.11.8
 _ZN15field_ulonglongD0Ev@Base 10.11.8
 _ZN15field_ulonglongD1Ev@Base 10.11.8
 _ZN15field_ulonglongD2Ev@Base 10.11.8
 _ZN15rpl_slave_state11get_elementEj@Base 10.11.8
 _ZN15rpl_slave_state11next_sub_idEj@Base 10.11.8
 _ZN15rpl_slave_state11record_gtidEP3THDPK8rpl_gtidybbPPv@Base 10.11.8
 _ZN15rpl_slave_state13put_back_listEPNS_12list_elementE@Base 10.11.8
 _ZN15rpl_slave_state13truncate_hashEv@Base 10.11.8
 _ZN15rpl_slave_state13update_nolockEjjyyPvP14rpl_group_info@Base 10.11.8
 _ZN15rpl_slave_state14domain_to_gtidEjP8rpl_gtid@Base 10.11.8
 _ZN15rpl_slave_state17update_state_hashEyP8rpl_gtidPvP14rpl_group_info@Base 10.11.8
 _ZN15rpl_slave_state18add_gtid_pos_tableEPNS_14gtid_pos_tableE@Base 10.11.8
 _ZN15rpl_slave_state19gtid_delete_pendingEP3THDPPNS_12list_elementE@Base 10.11.8
 _ZN15rpl_slave_state20alloc_gtid_pos_tableEP25st_mysql_const_lex_stringPvNS_20gtid_pos_table_stateE@Base 10.11.8
 _ZN15rpl_slave_state20check_duplicate_gtidEP8rpl_gtidP14rpl_group_info@Base 10.11.8
 _ZN15rpl_slave_state20free_gtid_pos_tablesEPNS_14gtid_pos_tableE@Base 10.11.8
 _ZN15rpl_slave_state20release_domain_ownerEP14rpl_group_info@Base 10.11.8
 _ZN15rpl_slave_state20truncate_state_tableEP3THD@Base 10.11.8
 _ZN15rpl_slave_state21select_gtid_pos_tableEP3THDP25st_mysql_const_lex_string@Base 10.11.8
 _ZN15rpl_slave_state21select_gtid_pos_tableEPv@Base 10.11.8
 _ZN15rpl_slave_state22record_and_update_gtidEP3THDP14rpl_group_info@Base 10.11.8
 _ZN15rpl_slave_state24set_gtid_pos_tables_listEPNS_14gtid_pos_tableES1_@Base 10.11.8
 _ZN15rpl_slave_state29gtid_grab_pending_delete_listEv@Base 10.11.8
 _ZN15rpl_slave_state4loadEP3THDPKcmbb@Base 10.11.8
 _ZN15rpl_slave_state6updateEjjyyPvP14rpl_group_info@Base 10.11.8
 _ZN15rpl_slave_state7iterateEPFiP8rpl_gtidPvES2_S1_jb@Base 10.11.8
 _ZN15rpl_slave_state8is_emptyEv@Base 10.11.8
 _ZN15rpl_slave_state8tostringEP6StringP8rpl_gtidj@Base 10.11.8
 _ZN15rpl_slave_stateC1Ev@Base 10.11.8
 _ZN15rpl_slave_stateC2Ev@Base 10.11.8
 _ZN15rpl_slave_stateD1Ev@Base 10.11.8
 _ZN15rpl_slave_stateD2Ev@Base 10.11.8
 _ZN15select_unit_ext13change_selectEv@Base 10.11.8
 _ZN15select_unit_ext13unfold_recordEy@Base 10.11.8
 _ZN15select_unit_ext23disable_index_if_neededEP13st_select_lex@Base 10.11.8
 _ZN15select_unit_ext28force_enable_index_if_neededEv@Base 10.11.8
 _ZN15select_unit_ext8send_eofEv@Base 10.11.8
 _ZN15select_unit_ext9send_dataER4ListI4ItemE@Base 10.11.8
 _ZN15select_unit_extD0Ev@Base 10.11.8
 _ZN15select_unit_extD1Ev@Base 10.11.8
 _ZN15select_unit_extD2Ev@Base 10.11.8
 _ZN15sp_instr_cclose12get_psi_infoEv@Base 10.11.8
 _ZN15sp_instr_cclose5printEP6String@Base 10.11.8
 _ZN15sp_instr_cclose7executeEP3THDPj@Base 10.11.8
 _ZN15sp_instr_cclose8psi_infoE@Base 10.11.8
 _ZN15sp_instr_ccloseD0Ev@Base 10.11.8
 _ZN15sp_instr_ccloseD1Ev@Base 10.11.8
 _ZN15sp_instr_ccloseD2Ev@Base 10.11.8
 _ZN15sp_instr_cfetch12get_psi_infoEv@Base 10.11.8
 _ZN15sp_instr_cfetch5printEP6String@Base 10.11.8
 _ZN15sp_instr_cfetch7executeEP3THDPj@Base 10.11.8
 _ZN15sp_instr_cfetch8psi_infoE@Base 10.11.8
 _ZN15sp_instr_cfetchD0Ev@Base 10.11.8
 _ZN15sp_instr_cfetchD1Ev@Base 10.11.8
 _ZN15sp_instr_cfetchD2Ev@Base 10.11.8
 _ZN15st_ddl_recoveryD1Ev@Base 10.11.8
 _ZN15st_ddl_recoveryD2Ev@Base 10.11.8
 _ZN15st_ha_check_opt4initEv@Base 10.11.8
 _ZN15start_new_trans23restore_old_transactionEv@Base 10.11.8
 _ZN15start_new_trans7destroyEv@Base 10.11.8
 _ZN15start_new_transC1EP3THD@Base 10.11.8
 _ZN15start_new_transC2EP3THD@Base 10.11.8
 _ZN15store_key_field10copy_innerEv@Base 10.11.8
 _ZN15store_key_fieldD0Ev@Base 10.11.8
 _ZN15store_key_fieldD1Ev@Base 10.11.8
 _ZN15store_key_fieldD2Ev@Base 10.11.8
 _ZN15wait_for_commit22wait_for_prior_commit2EP3THDb@Base 10.11.8
 _ZN15wait_for_commit26wakeup_subsequent_commits2Ei@Base 10.11.8
 _ZN15wait_for_commit30register_wait_for_prior_commitEPS_@Base 10.11.8
 _ZN15wait_for_commit33unregister_wait_for_prior_commit2Ev@Base 10.11.8
 _ZN15wait_for_commit6reinitEv@Base 10.11.8
 _ZN15wait_for_commit6wakeupEi@Base 10.11.8
 _ZN15wait_for_commitC1Ev@Base 10.11.8
 _ZN15wait_for_commitC2Ev@Base 10.11.8
 _ZN15wait_for_commitD1Ev@Base 10.11.8
 _ZN15wait_for_commitD2Ev@Base 10.11.8
 _ZN16Cached_item_real13cmp_read_onlyEv@Base 10.11.8
 _ZN16Cached_item_real3cmpEv@Base 10.11.8
 _ZN16Cached_item_realD0Ev@Base 10.11.8
 _ZN16Cached_item_realD1Ev@Base 10.11.8
 _ZN16Cached_item_realD2Ev@Base 10.11.8
 _ZN16Create_func_acos11s_singletonE@Base 10.11.8
 _ZN16Create_func_acos12create_1_argEP3THDP4Item@Base 10.11.8
 _ZN16Create_func_acosD0Ev@Base 10.11.8
 _ZN16Create_func_acosD1Ev@Base 10.11.8
 _ZN16Create_func_acosD2Ev@Base 10.11.8
 _ZN16Create_func_area11s_singletonE@Base 10.11.8
 _ZN16Create_func_area12create_1_argEP3THDP4Item@Base 10.11.8
 _ZN16Create_func_areaD0Ev@Base 10.11.8
 _ZN16Create_func_areaD1Ev@Base 10.11.8
 _ZN16Create_func_areaD2Ev@Base 10.11.8
 _ZN16Create_func_arg011create_funcEP3THDPK25st_mysql_const_lex_stringP4ListI4ItemE@Base 10.11.8
 _ZN16Create_func_arg111create_funcEP3THDPK25st_mysql_const_lex_stringP4ListI4ItemE@Base 10.11.8
 _ZN16Create_func_arg211create_funcEP3THDPK25st_mysql_const_lex_stringP4ListI4ItemE@Base 10.11.8
 _ZN16Create_func_arg311create_funcEP3THDPK25st_mysql_const_lex_stringP4ListI4ItemE@Base 10.11.8
 _ZN16Create_func_asin11s_singletonE@Base 10.11.8
 _ZN16Create_func_asin12create_1_argEP3THDP4Item@Base 10.11.8
 _ZN16Create_func_asinD0Ev@Base 10.11.8
 _ZN16Create_func_asinD1Ev@Base 10.11.8
 _ZN16Create_func_asinD2Ev@Base 10.11.8
 _ZN16Create_func_atan11s_singletonE@Base 10.11.8
 _ZN16Create_func_atan13create_nativeEP3THDPK25st_mysql_const_lex_stringP4ListI4ItemE@Base 10.11.8
 _ZN16Create_func_atanD0Ev@Base 10.11.8
 _ZN16Create_func_atanD1Ev@Base 10.11.8
 _ZN16Create_func_atanD2Ev@Base 10.11.8
 _ZN16Create_func_conv11s_singletonE@Base 10.11.8
 _ZN16Create_func_conv12create_3_argEP3THDP4ItemS3_S3_@Base 10.11.8
 _ZN16Create_func_convD0Ev@Base 10.11.8
 _ZN16Create_func_convD1Ev@Base 10.11.8
 _ZN16Create_func_convD2Ev@Base 10.11.8
 _ZN16Create_func_log211s_singletonE@Base 10.11.8
 _ZN16Create_func_log212create_1_argEP3THDP4Item@Base 10.11.8
 _ZN16Create_func_log2D0Ev@Base 10.11.8
 _ZN16Create_func_log2D1Ev@Base 10.11.8
 _ZN16Create_func_log2D2Ev@Base 10.11.8
 _ZN16Create_func_lpad11s_singletonE@Base 10.11.8
 _ZN16Create_func_lpad13create_nativeEP3THDPK25st_mysql_const_lex_stringP4ListI4ItemE@Base 10.11.8
 _ZN16Create_func_lpad17create_native_stdEP3THDPK25st_mysql_const_lex_stringP4ListI4ItemE@Base 10.11.8
 _ZN16Create_func_lpad20create_native_oracleEP3THDPK25st_mysql_const_lex_stringP4ListI4ItemE@Base 10.11.8
 _ZN16Create_func_lpadD0Ev@Base 10.11.8
 _ZN16Create_func_lpadD1Ev@Base 10.11.8
 _ZN16Create_func_lpadD2Ev@Base 10.11.8
 _ZN16Create_func_nvl211s_singletonE@Base 10.11.8
 _ZN16Create_func_nvl212create_3_argEP3THDP4ItemS3_S3_@Base 10.11.8
 _ZN16Create_func_nvl2D0Ev@Base 10.11.8
 _ZN16Create_func_nvl2D1Ev@Base 10.11.8
 _ZN16Create_func_nvl2D2Ev@Base 10.11.8
 _ZN16Create_func_rand11s_singletonE@Base 10.11.8
 _ZN16Create_func_rand13create_nativeEP3THDPK25st_mysql_const_lex_stringP4ListI4ItemE@Base 10.11.8
 _ZN16Create_func_randD0Ev@Base 10.11.8
 _ZN16Create_func_randD1Ev@Base 10.11.8
 _ZN16Create_func_randD2Ev@Base 10.11.8
 _ZN16Create_func_rpad11s_singletonE@Base 10.11.8
 _ZN16Create_func_rpad13create_nativeEP3THDPK25st_mysql_const_lex_stringP4ListI4ItemE@Base 10.11.8
 _ZN16Create_func_rpad17create_native_stdEP3THDPK25st_mysql_const_lex_stringP4ListI4ItemE@Base 10.11.8
 _ZN16Create_func_rpad20create_native_oracleEP3THDPK25st_mysql_const_lex_stringP4ListI4ItemE@Base 10.11.8
 _ZN16Create_func_rpadD0Ev@Base 10.11.8
 _ZN16Create_func_rpadD1Ev@Base 10.11.8
 _ZN16Create_func_rpadD2Ev@Base 10.11.8
 _ZN16Create_func_sha211s_singletonE@Base 10.11.8
 _ZN16Create_func_sha212create_2_argEP3THDP4ItemS3_@Base 10.11.8
 _ZN16Create_func_sha2D0Ev@Base 10.11.8
 _ZN16Create_func_sha2D1Ev@Base 10.11.8
 _ZN16Create_func_sha2D2Ev@Base 10.11.8
 _ZN16Create_func_sign11s_singletonE@Base 10.11.8
 _ZN16Create_func_sign12create_1_argEP3THDP4Item@Base 10.11.8
 _ZN16Create_func_signD0Ev@Base 10.11.8
 _ZN16Create_func_signD1Ev@Base 10.11.8
 _ZN16Create_func_signD2Ev@Base 10.11.8
 _ZN16Create_func_sqrt11s_singletonE@Base 10.11.8
 _ZN16Create_func_sqrt12create_1_argEP3THDP4Item@Base 10.11.8
 _ZN16Create_func_sqrtD0Ev@Base 10.11.8
 _ZN16Create_func_sqrtD1Ev@Base 10.11.8
 _ZN16Create_func_sqrtD2Ev@Base 10.11.8
 _ZN16Create_func_srid11s_singletonE@Base 10.11.8
 _ZN16Create_func_srid12create_1_argEP3THDP4Item@Base 10.11.8
 _ZN16Create_func_sridD0Ev@Base 10.11.8
 _ZN16Create_func_sridD1Ev@Base 10.11.8
 _ZN16Create_func_sridD2Ev@Base 10.11.8
 _ZN16Create_func_week11s_singletonE@Base 10.11.8
 _ZN16Create_func_week13create_nativeEP3THDPK25st_mysql_const_lex_stringP4ListI4ItemE@Base 10.11.8
 _ZN16Create_func_weekD0Ev@Base 10.11.8
 _ZN16Create_func_weekD1Ev@Base 10.11.8
 _ZN16Create_func_weekD2Ev@Base 10.11.8
 _ZN16Create_tmp_table10add_fieldsEP3THDP5TABLEP15TMP_TABLE_PARAMR4ListI4ItemE@Base 10.11.8
 _ZN16Create_tmp_table13choose_engineEP3THDP5TABLEP15TMP_TABLE_PARAM@Base 10.11.8
 _ZN16Create_tmp_table17add_schema_fieldsEP3THDP5TABLEP15TMP_TABLE_PARAMRK15st_schema_table@Base 10.11.8
 _ZN16Create_tmp_table18cleanup_on_failureEP3THDP5TABLE@Base 10.11.8
 _ZN16Create_tmp_table5startEP3THDP15TMP_TABLE_PARAMPK25st_mysql_const_lex_string@Base 10.11.8
 _ZN16Create_tmp_table8finalizeEP3THDP5TABLEP15TMP_TABLE_PARAMbb@Base 10.11.8
 _ZN16Create_tmp_table9add_fieldEP5TABLEP5Fieldjb@Base 10.11.8
 _ZN16Create_tmp_tableC1EP8st_orderbbyy@Base 10.11.8
 _ZN16Create_tmp_tableC2EP8st_orderbbyy@Base 10.11.8
 _ZN16Create_tmp_tableD0Ev@Base 10.11.8
 _ZN16Create_tmp_tableD1Ev@Base 10.11.8
 _ZN16Create_tmp_tableD2Ev@Base 10.11.8
 _ZN16Diagnostics_area13set_ok_statusEyyPKc@Base 10.11.8
 _ZN16Diagnostics_area14disable_statusEv@Base 10.11.8
 _ZN16Diagnostics_area14set_eof_statusEP3THD@Base 10.11.8
 _ZN16Diagnostics_area16set_error_statusEj@Base 10.11.8
 _ZN16Diagnostics_area16set_error_statusEjPKcS1_RK27Sql_user_condition_identityPK13Sql_condition@Base 10.11.8
 _ZN16Diagnostics_area22reset_diagnostics_areaEv@Base 10.11.8
 _ZN16Diagnostics_area23copy_non_errors_from_wiEP3THDPK12Warning_info@Base 10.11.8
 _ZN16Diagnostics_areaC1Eb@Base 10.11.8
 _ZN16Diagnostics_areaC1Eybb@Base 10.11.8
 _ZN16Diagnostics_areaC2Eb@Base 10.11.8
 _ZN16Diagnostics_areaC2Eybb@Base 10.11.8
 _ZN16Event_parse_data11check_datesEP3THDi@Base 10.11.8
 _ZN16Event_parse_data11init_startsEP3THD@Base 10.11.8
 _ZN16Event_parse_data12init_definerEP3THD@Base 10.11.8
 _ZN16Event_parse_data12new_instanceEP3THD@Base 10.11.8
 _ZN16Event_parse_data13init_intervalEP3THD@Base 10.11.8
 _ZN16Event_parse_data15init_execute_atEP3THD@Base 10.11.8
 _ZN16Event_parse_data16check_parse_dataEP3THD@Base 10.11.8
 _ZN16Event_parse_data16report_bad_valueEPKcP4Item@Base 10.11.8
 _ZN16Event_parse_data19check_originator_idEP3THD@Base 10.11.8
 _ZN16Event_parse_data20check_if_in_the_pastEP3THDl@Base 10.11.8
 _ZN16Event_parse_data9init_endsEP3THD@Base 10.11.8
 _ZN16Event_parse_data9init_nameEP3THDP7sp_name@Base 10.11.8
 _ZN16Event_parse_dataC1Ev@Base 10.11.8
 _ZN16Event_parse_dataC2Ev@Base 10.11.8
 _ZN16Field_time_hires10store_TIMEEPK13st_mysql_time@Base 10.11.8
 _ZN16Field_time_hires11sort_stringEPhj@Base 10.11.8
 _ZN16Field_time_hires5resetEv@Base 10.11.8
 _ZN16Field_time_hires8get_dateEP13st_mysql_time11date_mode_t@Base 10.11.8
 _ZN16Field_time_hiresD0Ev@Base 10.11.8
 _ZN16Field_time_hiresD1Ev@Base 10.11.8
 _ZN16Field_time_hiresD2Ev@Base 10.11.8
 _ZN16Field_timestamp010val_nativeEP6Native@Base 10.11.8
 _ZN16Field_timestamp011sort_stringEPhj@Base 10.11.8
 _ZN16Field_timestamp013store_TIMEVALERK7timeval@Base 10.11.8
 _ZN16Field_timestamp04packEPhPKhj@Base 10.11.8
 _ZN16Field_timestamp04sendEP8Protocol@Base 10.11.8
 _ZN16Field_timestamp06unpackEPhPKhS2_j@Base 10.11.8
 _ZN16Field_timestamp08set_timeEv@Base 10.11.8
 _ZN16Field_timestamp08val_realEv@Base 10.11.8
 _ZN16Field_timestamp0D0Ev@Base 10.11.8
 _ZN16Field_timestamp0D1Ev@Base 10.11.8
 _ZN16Field_timestamp0D2Ev@Base 10.11.8
 _ZN16Field_timestampf10val_nativeEP6Native@Base 10.11.8
 _ZN16Field_timestampf13store_TIMEVALERK7timeval@Base 10.11.8
 _ZN16Field_timestampf6is_maxEv@Base 10.11.8
 _ZN16Field_timestampf7set_maxEv@Base 10.11.8
 _ZN16Field_timestampfD0Ev@Base 10.11.8
 _ZN16Field_timestampfD1Ev@Base 10.11.8
 _ZN16Field_timestampfD2Ev@Base 10.11.8
 _ZN16Filesort_tracker15get_data_formatEP6String@Base 10.11.8
 _ZN16Filesort_tracker18print_json_membersEP11Json_writer@Base 10.11.8
 _ZN16Global_read_lock21lock_global_read_lockEP3THD@Base 10.11.8
 _ZN16Global_read_lock23unlock_global_read_lockEP3THD@Base 10.11.8
 _ZN16Global_read_lock26set_explicit_lock_durationEP3THD@Base 10.11.8
 _ZN16Global_read_lock34make_global_read_lock_block_commitEP3THD@Base 10.11.8
 _ZN16Histogram_binary14create_builderEP5Fieldjy@Base 10.11.8
 _ZN16Histogram_binary17point_selectivityEP5FieldP12st_key_ranged@Base 10.11.8
 _ZN16Histogram_binary17range_selectivityEP5FieldP12st_key_rangeS3_d@Base 10.11.8
 _ZN16Histogram_binary19init_for_collectionEP11st_mem_root19enum_histogram_typey@Base 10.11.8
 _ZN16Histogram_binary5parseEP11st_mem_rootPKcS3_P5FieldS3_m@Base 10.11.8
 _ZN16Histogram_binary8get_sizeEv@Base 10.11.8
 _ZN16Histogram_binary8get_typeEv@Base 10.11.8
 _ZN16Histogram_binary9get_widthEv@Base 10.11.8
 _ZN16Histogram_binary9serializeEP5Field@Base 10.11.8
 _ZN16Histogram_binaryD0Ev@Base 10.11.8
 _ZN16Histogram_binaryD1Ev@Base 10.11.8
 _ZN16Histogram_binaryD2Ev@Base 10.11.8
 _ZN16Intvar_log_event13get_data_sizeEv@Base 10.11.8
 _ZN16Intvar_log_event13get_type_codeEv@Base 10.11.8
 _ZN16Intvar_log_event17get_var_type_nameEv@Base 10.11.8
 _ZN16Intvar_log_event5writeEv@Base 10.11.8
 _ZN16Intvar_log_eventC1EPKhPK28Format_description_log_event@Base 10.11.8
 _ZN16Intvar_log_eventC2EPKhPK28Format_description_log_event@Base 10.11.8
 _ZN16Intvar_log_eventD0Ev@Base 10.11.8
 _ZN16Intvar_log_eventD1Ev@Base 10.11.8
 _ZN16Intvar_log_eventD2Ev@Base 10.11.8
 _ZN16Item_bool_static14top_level_itemEv@Base 10.11.8
 _ZN16Item_bool_static16set_join_tab_idxEh@Base 10.11.8
 _ZN16Item_bool_static7cleanupEv@Base 10.11.8
 _ZN16Item_bool_staticD0Ev@Base 10.11.8
 _ZN16Item_bool_staticD1Ev@Base 10.11.8
 _ZN16Item_bool_staticD2Ev@Base 10.11.8
 _ZN16Item_cache_float7val_strEP6String@Base 10.11.8
 _ZN16Item_cache_float8get_copyEP3THD@Base 10.11.8
 _ZN16Item_cache_floatD0Ev@Base 10.11.8
 _ZN16Item_cache_floatD1Ev@Base 10.11.8
 _ZN16Item_cache_floatD2Ev@Base 10.11.8
 _ZN16Item_change_list26rollback_item_tree_changesEv@Base 10.11.8
 _ZN16Item_change_list33nocheck_register_item_tree_changeEPP4ItemS1_P11st_mem_root@Base 10.11.8
 _ZN16Item_change_list35check_and_register_item_tree_changeEPP4ItemS2_P11st_mem_root@Base 10.11.8
 _ZN16Item_copy_string11val_decimalEP10my_decimal@Base 10.11.8
 _ZN16Item_copy_string13save_in_fieldEP5Fieldb@Base 10.11.8
 _ZN16Item_copy_string4copyEv@Base 10.11.8
 _ZN16Item_copy_string7val_intEv@Base 10.11.8
 _ZN16Item_copy_string7val_strEP6String@Base 10.11.8
 _ZN16Item_copy_string8get_copyEP3THD@Base 10.11.8
 _ZN16Item_copy_string8get_dateEP3THDP13st_mysql_time11date_mode_t@Base 10.11.8
 _ZN16Item_copy_string8val_realEv@Base 10.11.8
 _ZN16Item_copy_stringD0Ev@Base 10.11.8
 _ZN16Item_copy_stringD1Ev@Base 10.11.8
 _ZN16Item_copy_stringD2Ev@Base 10.11.8
 _ZN16Item_func_as_wkb18fix_length_and_decEP3THD@Base 10.11.8
 _ZN16Item_func_as_wkb7val_strEP6String@Base 10.11.8
 _ZN16Item_func_as_wkb8get_copyEP3THD@Base 10.11.8
 _ZN16Item_func_as_wkbD0Ev@Base 10.11.8
 _ZN16Item_func_as_wkbD1Ev@Base 10.11.8
 _ZN16Item_func_as_wkbD2Ev@Base 10.11.8
 _ZN16Item_func_as_wkt13val_str_asciiEP6String@Base 10.11.8
 _ZN16Item_func_as_wkt18fix_length_and_decEP3THD@Base 10.11.8
 _ZN16Item_func_as_wkt8get_copyEP3THD@Base 10.11.8
 _ZN16Item_func_as_wktD0Ev@Base 10.11.8
 _ZN16Item_func_as_wktD1Ev@Base 10.11.8
 _ZN16Item_func_as_wktD2Ev@Base 10.11.8
 _ZN16Item_func_binary18fix_length_and_decEP3THD@Base 10.11.8
 _ZN16Item_func_binary27need_parentheses_in_defaultEv@Base 10.11.8
 _ZN16Item_func_binary5printEP6String15enum_query_type@Base 10.11.8
 _ZN16Item_func_binary7val_strEP6String@Base 10.11.8
 _ZN16Item_func_binary8get_copyEP3THD@Base 10.11.8
 _ZN16Item_func_binaryD0Ev@Base 10.11.8
 _ZN16Item_func_binaryD1Ev@Base 10.11.8
 _ZN16Item_func_binaryD2Ev@Base 10.11.8
 _ZN16Item_func_bit_or18fix_length_and_decEP3THD@Base 10.11.8
 _ZN16Item_func_bit_or8get_copyEP3THD@Base 10.11.8
 _ZN16Item_func_bit_orD0Ev@Base 10.11.8
 _ZN16Item_func_bit_orD1Ev@Base 10.11.8
 _ZN16Item_func_bit_orD2Ev@Base 10.11.8
 _ZN16Item_func_buffer11Transporter10start_lineEv@Base 10.11.8
 _ZN16Item_func_buffer11Transporter10start_polyEv@Base 10.11.8
 _ZN16Item_func_buffer11Transporter10start_ringEv@Base 10.11.8
 _ZN16Item_func_buffer11Transporter12single_pointEdd@Base 10.11.8
 _ZN16Item_func_buffer11Transporter13complete_lineEv@Base 10.11.8
 _ZN16Item_func_buffer11Transporter13complete_polyEv@Base 10.11.8
 _ZN16Item_func_buffer11Transporter13complete_ringEv@Base 10.11.8
 _ZN16Item_func_buffer11Transporter15add_edge_bufferEddbb@Base 10.11.8
 _ZN16Item_func_buffer11Transporter16add_point_bufferEdd@Base 10.11.8
 _ZN16Item_func_buffer11Transporter16start_collectionEi@Base 10.11.8
 _ZN16Item_func_buffer11Transporter20add_last_edge_bufferEv@Base 10.11.8
 _ZN16Item_func_buffer11Transporter8completeEv@Base 10.11.8
 _ZN16Item_func_buffer11Transporter9add_pointEdd@Base 10.11.8
 _ZN16Item_func_buffer11TransporterD0Ev@Base 10.11.8
 _ZN16Item_func_buffer11TransporterD1Ev@Base 10.11.8
 _ZN16Item_func_buffer11TransporterD2Ev@Base 10.11.8
 _ZN16Item_func_buffer7val_strEP6String@Base 10.11.8
 _ZN16Item_func_buffer8get_copyEP3THD@Base 10.11.8
 _ZN16Item_func_bufferD0Ev@Base 10.11.8
 _ZN16Item_func_bufferD1Ev@Base 10.11.8
 _ZN16Item_func_bufferD2Ev@Base 10.11.8
 _ZN16Item_func_concat12append_valueEP3THDP6StringPKS2_@Base 10.11.8
 _ZN16Item_func_concat18fix_length_and_decEP3THD@Base 10.11.8
 _ZN16Item_func_concat5printEP6String15enum_query_type@Base 10.11.8
 _ZN16Item_func_concat7val_strEP6String@Base 10.11.8
 _ZN16Item_func_concat8get_copyEP3THD@Base 10.11.8
 _ZN16Item_func_concatD0Ev@Base 10.11.8
 _ZN16Item_func_concatD1Ev@Base 10.11.8
 _ZN16Item_func_concatD2Ev@Base 10.11.8
 _ZN16Item_func_decode16crypto_transformEP6String@Base 10.11.8
 _ZN16Item_func_decode5printEP6String15enum_query_type@Base 10.11.8
 _ZN16Item_func_decode8get_copyEP3THD@Base 10.11.8
 _ZN16Item_func_decodeD0Ev@Base 10.11.8
 _ZN16Item_func_decodeD1Ev@Base 10.11.8
 _ZN16Item_func_decodeD2Ev@Base 10.11.8
 _ZN16Item_func_encode16crypto_transformEP6String@Base 10.11.8
 _ZN16Item_func_encode18fix_length_and_decEP3THD@Base 10.11.8
 _ZN16Item_func_encode4seedEv@Base 10.11.8
 _ZN16Item_func_encode7val_strEP6String@Base 10.11.8
 _ZN16Item_func_encode8get_copyEP3THD@Base 10.11.8
 _ZN16Item_func_encodeD0Ev@Base 10.11.8
 _ZN16Item_func_encodeD1Ev@Base 10.11.8
 _ZN16Item_func_encodeD2Ev@Base 10.11.8
 _ZN16Item_func_format13val_str_asciiEP6String@Base 10.11.8
 _ZN16Item_func_format18fix_length_and_decEP3THD@Base 10.11.8
 _ZN16Item_func_format8get_copyEP3THD@Base 10.11.8
 _ZN16Item_func_formatD0Ev@Base 10.11.8
 _ZN16Item_func_formatD1Ev@Base 10.11.8
 _ZN16Item_func_formatD2Ev@Base 10.11.8
 _ZN16Item_func_ifnull10decimal_opEP10my_decimal@Base 10.11.8
 _ZN16Item_func_ifnull18fix_length_and_decEP3THD@Base 10.11.8
 _ZN16Item_func_ifnull6int_opEv@Base 10.11.8
 _ZN16Item_func_ifnull6str_opEP6String@Base 10.11.8
 _ZN16Item_func_ifnull7date_opEP3THDP13st_mysql_time11date_mode_t@Base 10.11.8
 _ZN16Item_func_ifnull7real_opEv@Base 10.11.8
 _ZN16Item_func_ifnull7time_opEP3THDP13st_mysql_time@Base 10.11.8
 _ZN16Item_func_ifnull8get_copyEP3THD@Base 10.11.8
 _ZN16Item_func_ifnull9native_opEP3THDP6Native@Base 10.11.8
 _ZN16Item_func_ifnullD0Ev@Base 10.11.8
 _ZN16Item_func_ifnullD1Ev@Base 10.11.8
 _ZN16Item_func_ifnullD2Ev@Base 10.11.8
 _ZN16Item_func_insert18fix_length_and_decEP3THD@Base 10.11.8
 _ZN16Item_func_insert7val_strEP6String@Base 10.11.8
 _ZN16Item_func_insert8get_copyEP3THD@Base 10.11.8
 _ZN16Item_func_insertD0Ev@Base 10.11.8
 _ZN16Item_func_insertD1Ev@Base 10.11.8
 _ZN16Item_func_insertD2Ev@Base 10.11.8
 _ZN16Item_func_isnull15neg_transformerEP3THD@Base 10.11.8
 _ZN16Item_func_isnull15remove_eq_condsEP3THDPN4Item11cond_resultEb@Base 10.11.8
 _ZN16Item_func_isnull18update_used_tablesEv@Base 10.11.8
 _ZN16Item_func_isnull20find_not_null_fieldsEy@Base 10.11.8
 _ZN16Item_func_isnull5printEP6String15enum_query_type@Base 10.11.8
 _ZN16Item_func_isnull7val_intEv@Base 10.11.8
 _ZN16Item_func_isnull8get_copyEP3THD@Base 10.11.8
 _ZN16Item_func_isnullD0Ev@Base 10.11.8
 _ZN16Item_func_isnullD1Ev@Base 10.11.8
 _ZN16Item_func_isnullD2Ev@Base 10.11.8
 _ZN16Item_func_isring7val_intEv@Base 10.11.8
 _ZN16Item_func_isring8get_copyEP3THD@Base 10.11.8
 _ZN16Item_func_isringD0Ev@Base 10.11.8
 _ZN16Item_func_isringD1Ev@Base 10.11.8
 _ZN16Item_func_isringD2Ev@Base 10.11.8
 _ZN16Item_func_istrue8get_copyEP3THD@Base 10.11.8
 _ZN16Item_func_istrueD0Ev@Base 10.11.8
 _ZN16Item_func_istrueD1Ev@Base 10.11.8
 _ZN16Item_func_istrueD2Ev@Base 10.11.8
 _ZN16Item_func_locate18fix_length_and_decEP3THD@Base 10.11.8
 _ZN16Item_func_locate5printEP6String15enum_query_type@Base 10.11.8
 _ZN16Item_func_locate7val_intEv@Base 10.11.8
 _ZN16Item_func_locate8get_copyEP3THD@Base 10.11.8
 _ZN16Item_func_locateD0Ev@Base 10.11.8
 _ZN16Item_func_locateD1Ev@Base 10.11.8
 _ZN16Item_func_locateD2Ev@Base 10.11.8
 _ZN16Item_func_minute18fix_length_and_decEP3THD@Base 10.11.8
 _ZN16Item_func_minute25check_vcol_func_processorEPv@Base 10.11.8
 _ZN16Item_func_minute30check_partition_func_processorEPv@Base 10.11.8
 _ZN16Item_func_minute31check_valid_arguments_processorEPv@Base 10.11.8
 _ZN16Item_func_minute7val_intEv@Base 10.11.8
 _ZN16Item_func_minute8get_copyEP3THD@Base 10.11.8
 _ZN16Item_func_minuteD0Ev@Base 10.11.8
 _ZN16Item_func_minuteD1Ev@Base 10.11.8
 _ZN16Item_func_minuteD2Ev@Base 10.11.8
 _ZN16Item_func_nullif10decimal_opEP10my_decimal@Base 10.11.8
 _ZN16Item_func_nullif14split_sum_funcEP3THD20Bounds_checked_arrayIP4ItemER4ListIS3_Ej@Base 10.11.8
 _ZN16Item_func_nullif18fix_length_and_decEP3THD@Base 10.11.8
 _ZN16Item_func_nullif18update_used_tablesEv@Base 10.11.8
 _ZN16Item_func_nullif22propagate_equal_fieldsEP3THDRKN12Value_source7ContextEP10COND_EQUAL@Base 10.11.8
 _ZN16Item_func_nullif35derived_field_transformer_for_whereEP3THDPh@Base 10.11.8
 _ZN16Item_func_nullif35in_subq_field_transformer_for_whereEP3THDPh@Base 10.11.8
 _ZN16Item_func_nullif36derived_field_transformer_for_havingEP3THDPh@Base 10.11.8
 _ZN16Item_func_nullif36grouping_field_transformer_for_whereEP3THDPh@Base 10.11.8
 _ZN16Item_func_nullif36in_subq_field_transformer_for_havingEP3THDPh@Base 10.11.8
 _ZN16Item_func_nullif4walkEM4ItemFbPvEbS1_@Base 10.11.8
 _ZN16Item_func_nullif5printEP6String15enum_query_type@Base 10.11.8
 _ZN16Item_func_nullif6int_opEv@Base 10.11.8
 _ZN16Item_func_nullif6str_opEP6String@Base 10.11.8
 _ZN16Item_func_nullif7cleanupEv@Base 10.11.8
 _ZN16Item_func_nullif7compareEv@Base 10.11.8
 _ZN16Item_func_nullif7date_opEP3THDP13st_mysql_time11date_mode_t@Base 10.11.8
 _ZN16Item_func_nullif7is_nullEv@Base 10.11.8
 _ZN16Item_func_nullif7real_opEv@Base 10.11.8
 _ZN16Item_func_nullif7time_opEP3THDP13st_mysql_time@Base 10.11.8
 _ZN16Item_func_nullif8get_copyEP3THD@Base 10.11.8
 _ZN16Item_func_nullif9native_opEP3THDP6Native@Base 10.11.8
 _ZN16Item_func_nullifD0Ev@Base 10.11.8
 _ZN16Item_func_nullifD1Ev@Base 10.11.8
 _ZN16Item_func_nullifD2Ev@Base 10.11.8
 _ZN16Item_func_or_sum11build_cloneEP3THD@Base 10.11.8
 _ZN16Item_func_or_sumC1EP3THDP4ItemS3_S3_@Base 10.11.8
 _ZN16Item_func_or_sumC2EP3THDP4ItemS3_S3_@Base 10.11.8
 _ZN16Item_func_repeat18fix_length_and_decEP3THD@Base 10.11.8
 _ZN16Item_func_repeat7val_strEP6String@Base 10.11.8
 _ZN16Item_func_repeat8get_copyEP3THD@Base 10.11.8
 _ZN16Item_func_repeatD0Ev@Base 10.11.8
 _ZN16Item_func_repeatD1Ev@Base 10.11.8
 _ZN16Item_func_repeatD2Ev@Base 10.11.8
 _ZN16Item_func_rownum18fix_after_optimizeEP3THD@Base 10.11.8
 _ZN16Item_func_rownum18fix_length_and_decEP3THD@Base 10.11.8
 _ZN16Item_func_rownum18update_used_tablesEv@Base 10.11.8
 _ZN16Item_func_rownum25check_vcol_func_processorEPv@Base 10.11.8
 _ZN16Item_func_rownum28check_handler_func_processorEPv@Base 10.11.8
 _ZN16Item_func_rownum7cleanupEv@Base 10.11.8
 _ZN16Item_func_rownum7val_intEv@Base 10.11.8
 _ZN16Item_func_rownum8get_copyEP3THD@Base 10.11.8
 _ZN16Item_func_rownumC1EP3THD@Base 10.11.8
 _ZN16Item_func_rownumC2EP3THD@Base 10.11.8
 _ZN16Item_func_rownumD0Ev@Base 10.11.8
 _ZN16Item_func_rownumD1Ev@Base 10.11.8
 _ZN16Item_func_rownumD2Ev@Base 10.11.8
 _ZN16Item_func_second18fix_length_and_decEP3THD@Base 10.11.8
 _ZN16Item_func_second25check_vcol_func_processorEPv@Base 10.11.8
 _ZN16Item_func_second30check_partition_func_processorEPv@Base 10.11.8
 _ZN16Item_func_second31check_valid_arguments_processorEPv@Base 10.11.8
 _ZN16Item_func_second7val_intEv@Base 10.11.8
 _ZN16Item_func_second8get_copyEP3THD@Base 10.11.8
 _ZN16Item_func_secondD0Ev@Base 10.11.8
 _ZN16Item_func_secondD1Ev@Base 10.11.8
 _ZN16Item_func_secondD2Ev@Base 10.11.8
 _ZN16Item_func_setval5printEP6String15enum_query_type@Base 10.11.8
 _ZN16Item_func_setval7val_intEv@Base 10.11.8
 _ZN16Item_func_setval8get_copyEP3THD@Base 10.11.8
 _ZN16Item_func_setvalD0Ev@Base 10.11.8
 _ZN16Item_func_setvalD1Ev@Base 10.11.8
 _ZN16Item_func_setvalD2Ev@Base 10.11.8
 _ZN16Item_func_signed18fix_length_and_decEP3THD@Base 10.11.8
 _ZN16Item_func_signed27need_parentheses_in_defaultEv@Base 10.11.8
 _ZN16Item_func_signed5printEP6String15enum_query_type@Base 10.11.8
 _ZN16Item_func_signed7val_intEv@Base 10.11.8
 _ZN16Item_func_signed8get_copyEP3THD@Base 10.11.8
 _ZN16Item_func_signedD0Ev@Base 10.11.8
 _ZN16Item_func_signedD1Ev@Base 10.11.8
 _ZN16Item_func_signedD2Ev@Base 10.11.8
 _ZN16Item_func_strcmp18fix_length_and_decEP3THD@Base 10.11.8
 _ZN16Item_func_strcmp7val_intEv@Base 10.11.8
 _ZN16Item_func_strcmp8get_copyEP3THD@Base 10.11.8
 _ZN16Item_func_strcmpD0Ev@Base 10.11.8
 _ZN16Item_func_strcmpD1Ev@Base 10.11.8
 _ZN16Item_func_strcmpD2Ev@Base 10.11.8
 _ZN16Item_func_substr12get_positionEv@Base 10.11.8
 _ZN16Item_func_substr18fix_length_and_decEP3THD@Base 10.11.8
 _ZN16Item_func_substr5printEP6String15enum_query_type@Base 10.11.8
 _ZN16Item_func_substr7val_strEP6String@Base 10.11.8
 _ZN16Item_func_substr8get_copyEP3THD@Base 10.11.8
 _ZN16Item_func_substrD0Ev@Base 10.11.8
 _ZN16Item_func_substrD1Ev@Base 10.11.8
 _ZN16Item_func_substrD2Ev@Base 10.11.8
 _ZN16Item_func_tochar18fix_length_and_decEP3THD@Base 10.11.8
 _ZN16Item_func_tochar19parse_format_stringEPK6StringPj@Base 10.11.8
 _ZN16Item_func_tochar25check_vcol_func_processorEPv@Base 10.11.8
 _ZN16Item_func_tochar7val_strEP6String@Base 10.11.8
 _ZN16Item_func_tochar8get_copyEP3THD@Base 10.11.8
 _ZN16Item_func_tocharD0Ev@Base 10.11.8
 _ZN16Item_func_tocharD1Ev@Base 10.11.8
 _ZN16Item_func_tocharD2Ev@Base 10.11.8
 _ZN16Item_func_trt_id13get_by_trx_idEy@Base 10.11.8
 _ZN16Item_func_trt_id16get_by_commit_tsER13st_mysql_timeb@Base 10.11.8
 _ZN16Item_func_trt_id18fix_length_and_decEP3THD@Base 10.11.8
 _ZN16Item_func_trt_id7val_intEv@Base 10.11.8
 _ZN16Item_func_trt_id8get_copyEP3THD@Base 10.11.8
 _ZN16Item_func_trt_idC1EP3THDP4ItemN8TR_table10field_id_tEb@Base 10.11.8
 _ZN16Item_func_trt_idC1EP3THDP4ItemS3_N8TR_table10field_id_tE@Base 10.11.8
 _ZN16Item_func_trt_idC2EP3THDP4ItemN8TR_table10field_id_tEb@Base 10.11.8
 _ZN16Item_func_trt_idC2EP3THDP4ItemS3_N8TR_table10field_id_tE@Base 10.11.8
 _ZN16Item_func_trt_idD0Ev@Base 10.11.8
 _ZN16Item_func_trt_idD1Ev@Base 10.11.8
 _ZN16Item_func_trt_idD2Ev@Base 10.11.8
 _ZN16Item_func_trt_ts18fix_length_and_decEP3THD@Base 10.11.8
 _ZN16Item_func_trt_ts8get_copyEP3THD@Base 10.11.8
 _ZN16Item_func_trt_ts8get_dateEP3THDP13st_mysql_time11date_mode_t@Base 10.11.8
 _ZN16Item_func_trt_tsC1EP3THDP4ItemN8TR_table10field_id_tE@Base 10.11.8
 _ZN16Item_func_trt_tsC2EP3THDP4ItemN8TR_table10field_id_tE@Base 10.11.8
 _ZN16Item_func_trt_tsD0Ev@Base 10.11.8
 _ZN16Item_func_trt_tsD1Ev@Base 10.11.8
 _ZN16Item_func_trt_tsD2Ev@Base 10.11.8
 _ZN16Item_hybrid_func14fix_attributesEPP4Itemj@Base 10.11.8
 _ZN16Item_hybrid_funcC1EP3THD@Base 10.11.8
 _ZN16Item_hybrid_funcC1EP3THDP4ItemS3_@Base 10.11.8
 _ZN16Item_hybrid_funcC2EP3THD@Base 10.11.8
 _ZN16Item_hybrid_funcC2EP3THDP4ItemS3_@Base 10.11.8
 _ZN16Item_null_result15is_result_fieldEv@Base 10.11.8
 _ZN16Item_null_result19create_tmp_field_exEP11st_mem_rootP5TABLEP13Tmp_field_srcPK15Tmp_field_param@Base 10.11.8
 _ZN16Item_null_result20save_in_result_fieldEb@Base 10.11.8
 _ZN16Item_null_result25check_vcol_func_processorEPv@Base 10.11.8
 _ZN16Item_null_result30check_partition_func_processorEPv@Base 10.11.8
 _ZN16Item_null_resultD0Ev@Base 10.11.8
 _ZN16Item_null_resultD1Ev@Base 10.11.8
 _ZN16Item_null_resultD2Ev@Base 10.11.8
 _ZN16Item_proc_string11val_decimalEP10my_decimal@Base 10.11.8
 _ZN16Item_proc_string3setEPKcjPK15charset_info_st@Base 10.11.8
 _ZN16Item_proc_string3setEd@Base 10.11.8
 _ZN16Item_proc_string3setEx@Base 10.11.8
 _ZN16Item_proc_string7cleanupEv@Base 10.11.8
 _ZN16Item_proc_string7val_intEv@Base 10.11.8
 _ZN16Item_proc_string7val_strEP6String@Base 10.11.8
 _ZN16Item_proc_string8val_realEv@Base 10.11.8
 _ZN16Item_proc_stringD0Ev@Base 10.11.8
 _ZN16Item_proc_stringD1Ev@Base 10.11.8
 _ZN16Item_proc_stringD2Ev@Base 10.11.8
 _ZN16Item_sp_variable10val_nativeEP3THDP6Native@Base 10.11.8
 _ZN16Item_sp_variable11val_decimalEP10my_decimal@Base 10.11.8
 _ZN16Item_sp_variable13save_in_fieldEP5Fieldb@Base 10.11.8
 _ZN16Item_sp_variable15make_send_fieldEP3THDP10Send_field@Base 10.11.8
 _ZN16Item_sp_variable19create_tmp_field_exEP11st_mem_rootP5TABLEP13Tmp_field_srcPK15Tmp_field_param@Base 10.11.8
 _ZN16Item_sp_variable20fix_fields_from_itemEP3THDPP4ItemPKS2_@Base 10.11.8
 _ZN16Item_sp_variable25check_vcol_func_processorEPv@Base 10.11.8
 _ZN16Item_sp_variable4sendEP8ProtocolP8st_value@Base 10.11.8
 _ZN16Item_sp_variable7is_nullEv@Base 10.11.8
 _ZN16Item_sp_variable7val_intEv@Base 10.11.8
 _ZN16Item_sp_variable7val_strEP6String@Base 10.11.8
 _ZN16Item_sp_variable8get_dateEP3THDP13st_mysql_time11date_mode_t@Base 10.11.8
 _ZN16Item_sp_variable8val_realEv@Base 10.11.8
 _ZN16Item_sp_variableC1EP3THDPK25st_mysql_const_lex_string@Base 10.11.8
 _ZN16Item_sp_variableC2EP3THDPK25st_mysql_const_lex_string@Base 10.11.8
 _ZN16Item_sum_min_max10direct_addEP4Item@Base 10.11.8
 _ZN16Item_sum_min_max10fix_fieldsEP3THDPP4Item@Base 10.11.8
 _ZN16Item_sum_min_max10val_nativeEP3THDP6Native@Base 10.11.8
 _ZN16Item_sum_min_max11reset_fieldEv@Base 10.11.8
 _ZN16Item_sum_min_max11val_decimalEP10my_decimal@Base 10.11.8
 _ZN16Item_sum_min_max12setup_cachesEP3THD@Base 10.11.8
 _ZN16Item_sum_min_max12setup_hybridEP3THDP4ItemS3_@Base 10.11.8
 _ZN16Item_sum_min_max12update_fieldEv@Base 10.11.8
 _ZN16Item_sum_min_max16create_tmp_fieldEP11st_mem_rootbP5TABLE@Base 10.11.8
 _ZN16Item_sum_min_max17no_rows_in_resultEv@Base 10.11.8
 _ZN16Item_sum_min_max18fix_length_and_decEP3THD@Base 10.11.8
 _ZN16Item_sum_min_max24min_max_update_int_fieldEv@Base 10.11.8
 _ZN16Item_sum_min_max24min_max_update_str_fieldEv@Base 10.11.8
 _ZN16Item_sum_min_max25min_max_update_real_fieldEv@Base 10.11.8
 _ZN16Item_sum_min_max27min_max_update_native_fieldEv@Base 10.11.8
 _ZN16Item_sum_min_max28min_max_update_decimal_fieldEv@Base 10.11.8
 _ZN16Item_sum_min_max35restore_to_before_no_rows_in_resultEv@Base 10.11.8
 _ZN16Item_sum_min_max5clearEv@Base 10.11.8
 _ZN16Item_sum_min_max7cleanupEv@Base 10.11.8
 _ZN16Item_sum_min_max7val_intEv@Base 10.11.8
 _ZN16Item_sum_min_max7val_strEP6String@Base 10.11.8
 _ZN16Item_sum_min_max8get_dateEP3THDP13st_mysql_time11date_mode_t@Base 10.11.8
 _ZN16Item_sum_min_max8val_realEv@Base 10.11.8
 _ZN16Item_sum_min_maxC1EP3THDP4Itemi@Base 10.11.8
 _ZN16Item_sum_min_maxC2EP3THDP4Itemi@Base 10.11.8
 _ZN16Item_sum_udf_int11val_decimalEP10my_decimal@Base 10.11.8
 _ZN16Item_sum_udf_int12copy_or_sameEP3THD@Base 10.11.8
 _ZN16Item_sum_udf_int18fix_length_and_decEP3THD@Base 10.11.8
 _ZN16Item_sum_udf_int7val_intEv@Base 10.11.8
 _ZN16Item_sum_udf_int7val_strEP6String@Base 10.11.8
 _ZN16Item_sum_udf_int8get_copyEP3THD@Base 10.11.8
 _ZN16Item_sum_udf_int8val_realEv@Base 10.11.8
 _ZN16Item_sum_udf_intD0Ev@Base 10.11.8
 _ZN16Item_sum_udf_intD1Ev@Base 10.11.8
 _ZN16Item_sum_udf_intD2Ev@Base 10.11.8
 _ZN16Item_sum_udf_str11val_decimalEP10my_decimal@Base 10.11.8
 _ZN16Item_sum_udf_str12copy_or_sameEP3THD@Base 10.11.8
 _ZN16Item_sum_udf_str18fix_length_and_decEP3THD@Base 10.11.8
 _ZN16Item_sum_udf_str7val_intEv@Base 10.11.8
 _ZN16Item_sum_udf_str7val_strEP6String@Base 10.11.8
 _ZN16Item_sum_udf_str8get_copyEP3THD@Base 10.11.8
 _ZN16Item_sum_udf_str8val_realEv@Base 10.11.8
 _ZN16Item_sum_udf_strD0Ev@Base 10.11.8
 _ZN16Item_sum_udf_strD1Ev@Base 10.11.8
 _ZN16Item_sum_udf_strD2Ev@Base 10.11.8
 _ZN16Item_type_holder11val_decimalEP10my_decimal@Base 10.11.8
 _ZN16Item_type_holder12is_expensiveEv@Base 10.11.8
 _ZN16Item_type_holder19create_tmp_field_exEP11st_mem_rootP5TABLEP13Tmp_field_srcPK15Tmp_field_param@Base 10.11.8
 _ZN16Item_type_holder7val_intEv@Base 10.11.8
 _ZN16Item_type_holder7val_strEP6String@Base 10.11.8
 _ZN16Item_type_holder8get_copyEP3THD@Base 10.11.8
 _ZN16Item_type_holder8get_dateEP3THDP13st_mysql_time11date_mode_t@Base 10.11.8
 _ZN16Item_type_holder8val_realEv@Base 10.11.8
 _ZN16Item_type_holderD0Ev@Base 10.11.8
 _ZN16Item_type_holderD1Ev@Base 10.11.8
 _ZN16Item_type_holderD2Ev@Base 10.11.8
 _ZN16Item_window_func10fix_fieldsEP3THDPP4Item@Base 10.11.8
 _ZN16Item_window_func10val_nativeEP3THDP6Native@Base 10.11.8
 _ZN16Item_window_func11val_decimalEP10my_decimal@Base 10.11.8
 _ZN16Item_window_func14split_sum_funcEP3THD20Bounds_checked_arrayIP4ItemER4ListIS3_Ej@Base 10.11.8
 _ZN16Item_window_func18fix_length_and_decEP3THD@Base 10.11.8
 _ZN16Item_window_func18update_used_tablesEv@Base 10.11.8
 _ZN16Item_window_func19resolve_window_nameEP3THD@Base 10.11.8
 _ZN16Item_window_func26register_field_in_read_mapEPv@Base 10.11.8
 _ZN16Item_window_func30print_for_percentile_functionsEP6String15enum_query_type@Base 10.11.8
 _ZN16Item_window_func31check_result_type_of_order_itemEv@Base 10.11.8
 _ZN16Item_window_func5printEP6String15enum_query_type@Base 10.11.8
 _ZN16Item_window_func7is_nullEv@Base 10.11.8
 _ZN16Item_window_func7val_intEv@Base 10.11.8
 _ZN16Item_window_func7val_strEP6String@Base 10.11.8
 _ZN16Item_window_func8get_copyEP3THD@Base 10.11.8
 _ZN16Item_window_func8get_dateEP3THDP13st_mysql_time11date_mode_t@Base 10.11.8
 _ZN16Item_window_func8val_realEv@Base 10.11.8
 _ZN16Item_window_funcD0Ev@Base 10.11.8
 _ZN16Item_window_funcD1Ev@Base 10.11.8
 _ZN16Item_window_funcD2Ev@Base 10.11.8
 _ZN16Json_engine_scan26check_and_get_value_scalarEP6StringPi@Base 10.11.8
 _ZN16Json_engine_scan27check_and_get_value_complexEP6StringPi@Base 10.11.8
 _ZN16Lex_ident_sys_st12copy_keywordEP3THDPK16Lex_ident_cli_st@Base 10.11.8
 _ZN16Lex_ident_sys_st14copy_ident_cliEP3THDPK16Lex_ident_cli_st@Base 10.11.8
 _ZN16Lex_ident_sys_st15copy_or_convertEP3THDPK16Lex_ident_cli_stPK15charset_info_st@Base 10.11.8
 _ZN16Lex_ident_sys_st7convertEP3THDPK25st_mysql_const_lex_stringPK15charset_info_st@Base 10.11.8
 _ZN16Lex_ident_sys_st8copy_sysEP3THDPK25st_mysql_const_lex_string@Base 10.11.8
 _ZN16Lex_input_stream13lex_one_tokenEP7YYSTYPEP3THD@Base 10.11.8
 _ZN16Lex_input_stream15body_utf8_startEP3THDPKc@Base 10.11.8
 _ZN16Lex_input_stream15consume_commentEi@Base 10.11.8
 _ZN16Lex_input_stream16add_digest_tokenEjP7YYSTYPE@Base 10.11.8
 _ZN16Lex_input_stream16body_utf8_appendEPKc@Base 10.11.8
 _ZN16Lex_input_stream16body_utf8_appendEPKcS1_@Base 10.11.8
 _ZN16Lex_input_stream16scan_ident_startEP3THDP16Lex_ident_cli_st@Base 10.11.8
 _ZN16Lex_input_stream17scan_ident_commonEP3THDP16Lex_ident_cli_stNS_10Ident_modeE@Base 10.11.8
 _ZN16Lex_input_stream17scan_ident_middleEP3THDP16Lex_ident_cli_stPPK15charset_info_stP13my_lex_states@Base 10.11.8
 _ZN16Lex_input_stream19reduce_digest_tokenEjj@Base 10.11.8
 _ZN16Lex_input_stream20scan_ident_delimitedEP3THDP16Lex_ident_cli_sth@Base 10.11.8
 _ZN16Lex_input_stream22body_utf8_append_identEP3THDPK27Lex_string_with_metadata_stPKc@Base 10.11.8
 _ZN16Lex_input_stream22get_7bit_or_8bit_identEP3THDPh@Base 10.11.8
 _ZN16Lex_input_stream23body_utf8_append_escapeEP3THDPK25st_mysql_const_lex_stringPK15charset_info_stPKcm@Base 10.11.8
 _ZN16Lex_input_stream4initEP3THDPcm@Base 10.11.8
 _ZN16Lex_input_stream5resetEPcm@Base 10.11.8
 _ZN16Lex_input_stream8get_textEP27Lex_string_with_metadata_stjii@Base 10.11.8
 _ZN16Lex_input_stream8unescapeEPK15charset_info_stPcPKcS5_i@Base 10.11.8
 _ZN16Lex_input_stream9get_tokenEjj@Base 10.11.8
 _ZN16Lex_input_stream9lex_tokenEP7YYSTYPEP3THD@Base 10.11.8
 _ZN16Log_event_writer10add_statusE18enum_logged_status@Base 10.11.8
 _ZN16Log_event_writer10write_dataEPKhm@Base 10.11.8
 _ZN16Log_event_writer12set_incidentEv@Base 10.11.8
 _ZN16Log_event_writer12write_footerEv@Base 10.11.8
 _ZN16Log_event_writer12write_headerEPhm@Base 10.11.8
 _ZN16Log_event_writer14write_internalEPKhm@Base 10.11.8
 _ZN16Log_event_writer17encrypt_and_writeEPKhm@Base 10.11.8
 _ZN16Log_event_writer21maybe_write_event_lenEPhm@Base 10.11.8
 _ZN16LooseScan_picker13set_from_prevEP8POSITION@Base 10.11.8
 _ZN16LooseScan_picker9check_qepEP4JOINjyPK13st_join_tablePdS5_PyP16sj_strategy_enumP8POSITION@Base 10.11.8
 _ZN16LooseScan_picker9mark_usedEv@Base 10.11.8
 _ZN16LooseScan_picker9set_emptyEv@Base 10.11.8
 _ZN16LooseScan_pickerD0Ev@Base 10.11.8
 _ZN16LooseScan_pickerD1Ev@Base 10.11.8
 _ZN16LooseScan_pickerD2Ev@Base 10.11.8
 _ZN16Mrr_index_reader11resume_readEv@Base 10.11.8
 _ZN16Mrr_index_reader14interrupt_readEv@Base 10.11.8
 _ZN16Mrr_index_reader8positionEv@Base 10.11.8
 _ZN16PROF_MEASUREMENT7collectEv@Base 10.11.8
 _ZN16PROF_MEASUREMENT9set_labelEPKcS1_S1_j@Base 10.11.8
 _ZN16PROF_MEASUREMENTC1EP13QUERY_PROFILEPKc@Base 10.11.8
 _ZN16PROF_MEASUREMENTC1EP13QUERY_PROFILEPKcS3_S3_j@Base 10.11.8
 _ZN16PROF_MEASUREMENTC2EP13QUERY_PROFILEPKc@Base 10.11.8
 _ZN16PROF_MEASUREMENTC2EP13QUERY_PROFILEPKcS3_S3_j@Base 10.11.8
 _ZN16PROF_MEASUREMENTD1Ev@Base 10.11.8
 _ZN16PROF_MEASUREMENTD2Ev@Base 10.11.8
 _ZN16Protocol_discard10store_dateEP13st_mysql_time@Base 10.11.8
 _ZN16Protocol_discard10store_longEx@Base 10.11.8
 _ZN16Protocol_discard10store_nullEv@Base 10.11.8
 _ZN16Protocol_discard10store_timeEP13st_mysql_timei@Base 10.11.8
 _ZN16Protocol_discard10store_tinyEx@Base 10.11.8
 _ZN16Protocol_discard11store_floatEfj@Base 10.11.8
 _ZN16Protocol_discard11store_shortEx@Base 10.11.8
 _ZN16Protocol_discard12store_doubleEdj@Base 10.11.8
 _ZN16Protocol_discard13store_decimalEPK10my_decimal@Base 10.11.8
 _ZN16Protocol_discard14store_datetimeEP13st_mysql_timei@Base 10.11.8
 _ZN16Protocol_discard14store_longlongExb@Base 10.11.8
 _ZN16Protocol_discard19send_out_parametersEP4ListI10Item_paramE@Base 10.11.8
 _ZN16Protocol_discard24send_result_set_metadataEP4ListI4ItemEj@Base 10.11.8
 _ZN16Protocol_discard4typeEv@Base 10.11.8
 _ZN16Protocol_discard5storeEP5Field@Base 10.11.8
 _ZN16Protocol_discard5writeEv@Base 10.11.8
 _ZN16Protocol_discard8send_eofEjj@Base 10.11.8
 _ZN16Protocol_discardD0Ev@Base 10.11.8
 _ZN16Protocol_discardD1Ev@Base 10.11.8
 _ZN16Protocol_discardD2Ev@Base 10.11.8
 _ZN16Pushdown_derived7executeEv@Base 10.11.8
 _ZN16Pushdown_derivedC1EP10TABLE_LISTP15derived_handler@Base 10.11.8
 _ZN16Pushdown_derivedC2EP10TABLE_LISTP15derived_handler@Base 10.11.8
 _ZN16Query_arena_stmtC1EP3THD@Base 10.11.8
 _ZN16Query_arena_stmtC2EP3THD@Base 10.11.8
 _ZN16Query_arena_stmtD1Ev@Base 10.11.8
 _ZN16Query_arena_stmtD2Ev@Base 10.11.8
 _ZN16Rotate_log_event13get_data_sizeEv@Base 10.11.8
 _ZN16Rotate_log_event13get_type_codeEv@Base 10.11.8
 _ZN16Rotate_log_event14get_header_lenEy@Base 10.11.8
 _ZN16Rotate_log_event5writeEv@Base 10.11.8
 _ZN16Rotate_log_eventC1EPKcjyj@Base 10.11.8
 _ZN16Rotate_log_eventC1EPKhjPK28Format_description_log_event@Base 10.11.8
 _ZN16Rotate_log_eventC2EPKcjyj@Base 10.11.8
 _ZN16Rotate_log_eventC2EPKhjPK28Format_description_log_event@Base 10.11.8
 _ZN16Rotate_log_eventD0Ev@Base 10.11.8
 _ZN16Rotate_log_eventD1Ev@Base 10.11.8
 _ZN16Rotate_log_eventD2Ev@Base 10.11.8
 _ZN16Rowid_seq_cursor4nextEv@Base 10.11.8
 _ZN16Rowid_seq_cursor4prevEv@Base 10.11.8
 _ZN16Rowid_seq_cursorD0Ev@Base 10.11.8
 _ZN16Rowid_seq_cursorD1Ev@Base 10.11.8
 _ZN16Rowid_seq_cursorD2Ev@Base 10.11.8
 _ZN16Security_context11skip_grantsEv@Base 10.11.8
 _ZN16Security_context12check_accessE11privilege_tb@Base 10.11.8
 _ZN16Security_context12is_priv_userEPKcS1_@Base 10.11.8
 _ZN16Security_context12user_matchesEPS_@Base 10.11.8
 _ZN16Security_context4initEv@Base 10.11.8
 _ZN16Security_context7destroyEv@Base 10.11.8
 _ZN16Security_context8set_userEPc@Base 10.11.8
 _ZN16Sql_cmd_grant_sp7executeEP3THD@Base 10.11.8
 _ZN16Sql_cmd_grant_spD0Ev@Base 10.11.8
 _ZN16Sql_cmd_grant_spD1Ev@Base 10.11.8
 _ZN16Sql_cmd_grant_spD2Ev@Base 10.11.8
 _ZN16Sql_cmd_resignal7executeEP3THD@Base 10.11.8
 _ZN16Sql_cmd_resignalD0Ev@Base 10.11.8
 _ZN16Sql_cmd_resignalD1Ev@Base 10.11.8
 _ZN16Sql_cmd_resignalD2Ev@Base 10.11.8
 _ZN16Sys_var_keycache13global_updateEP3THDP7set_var@Base 10.11.8
 _ZN16Sys_var_keycacheC1EPKcS1_ilm8CMD_LINEyyyjP8PolyLockN7sys_var18binlog_status_enumEPFbPS5_P3THDP7set_varEPFbS9_P12st_key_cachelyES1_@Base 10.11.8
 _ZN16Sys_var_keycacheC2EPKcS1_ilm8CMD_LINEyyyjP8PolyLockN7sys_var18binlog_status_enumEPFbPS5_P3THDP7set_varEPFbS9_P12st_key_cachelyES1_@Base 10.11.8
 _ZN16Sys_var_keycacheD0Ev@Base 10.11.8
 _ZN16Sys_var_keycacheD1Ev@Base 10.11.8
 _ZN16Sys_var_keycacheD2Ev@Base 10.11.8
 _ZN16Time_zone_offsetC1El@Base 10.11.8
 _ZN16Time_zone_offsetC2El@Base 10.11.8
 _ZN16Time_zone_offsetD0Ev@Base 10.11.8
 _ZN16Time_zone_offsetD1Ev@Base 10.11.8
 _ZN16Time_zone_offsetD2Ev@Base 10.11.8
 _ZN16Time_zone_systemD0Ev@Base 10.11.8
 _ZN16Time_zone_systemD1Ev@Base 10.11.8
 _ZN16Time_zone_systemD2Ev@Base 10.11.8
 _ZN16Type_handler_bit40Bit_decimal_notation_int_digits_by_nbitsEj@Base 10.11.8
 _ZN16Type_handler_bitD0Ev@Base 10.11.8
 _ZN16Type_handler_bitD1Ev@Base 10.11.8
 _ZN16Type_handler_bitD2Ev@Base 10.11.8
 _ZN16Type_handler_rowD0Ev@Base 10.11.8
 _ZN16Type_handler_rowD1Ev@Base 10.11.8
 _ZN16Type_handler_rowD2Ev@Base 10.11.8
 _ZN16Type_handler_setD0Ev@Base 10.11.8
 _ZN16Type_handler_setD1Ev@Base 10.11.8
 _ZN16Type_handler_setD2Ev@Base 10.11.8
 _ZN16cmp_item_decimal11store_valueEP4Item@Base 10.11.8
 _ZN16cmp_item_decimal12cmp_not_nullEPK5Value@Base 10.11.8
 _ZN16cmp_item_decimal3cmpEP4Item@Base 10.11.8
 _ZN16cmp_item_decimal7compareEP8cmp_item@Base 10.11.8
 _ZN16cmp_item_decimal9make_sameEP3THD@Base 10.11.8
 _ZN16cmp_item_decimalD0Ev@Base 10.11.8
 _ZN16cmp_item_decimalD1Ev@Base 10.11.8
 _ZN16cmp_item_decimalD2Ev@Base 10.11.8
 _ZN16group_by_handler11print_errorEim@Base 10.11.8
 _ZN16rpl_binlog_state10append_posEP6String@Base 10.11.8
 _ZN16rpl_binlog_state11drop_domainEP16st_dynamic_arrayP19Gtid_list_log_eventPc@Base 10.11.8
 _ZN16rpl_binlog_state11find_nolockEjj@Base 10.11.8
 _ZN16rpl_binlog_state12append_stateEP6String@Base 10.11.8
 _ZN16rpl_binlog_state12reset_nolockEv@Base 10.11.8
 _ZN16rpl_binlog_state13get_gtid_listEP8rpl_gtidj@Base 10.11.8
 _ZN16rpl_binlog_state13update_nolockEPK8rpl_gtidb@Base 10.11.8
 _ZN16rpl_binlog_state16find_most_recentEj@Base 10.11.8
 _ZN16rpl_binlog_state16write_to_iocacheEP11st_io_cache@Base 10.11.8
 _ZN16rpl_binlog_state17read_from_iocacheEP11st_io_cache@Base 10.11.8
 _ZN16rpl_binlog_state20alloc_element_nolockEPK8rpl_gtid@Base 10.11.8
 _ZN16rpl_binlog_state21bump_seq_no_if_neededEjy@Base 10.11.8
 _ZN16rpl_binlog_state21check_strict_sequenceEjjyb@Base 10.11.8
 _ZN16rpl_binlog_state21update_with_next_gtidEjjP8rpl_gtid@Base 10.11.8
 _ZN16rpl_binlog_state25get_most_recent_gtid_listEPP8rpl_gtidPj@Base 10.11.8
 _ZN16rpl_binlog_state4findEjj@Base 10.11.8
 _ZN16rpl_binlog_state4freeEv@Base 10.11.8
 _ZN16rpl_binlog_state4initEv@Base 10.11.8
 _ZN16rpl_binlog_state4loadEP15rpl_slave_state@Base 10.11.8
 _ZN16rpl_binlog_state4loadEP8rpl_gtidj@Base 10.11.8
 _ZN16rpl_binlog_state5countEv@Base 10.11.8
 _ZN16rpl_binlog_state5resetEv@Base 10.11.8
 _ZN16rpl_binlog_state6updateEPK8rpl_gtidb@Base 10.11.8
 _ZN16rpl_binlog_state7element14update_elementEPK8rpl_gtid@Base 10.11.8
 _ZN16rpl_binlog_stateD1Ev@Base 10.11.8
 _ZN16rpl_binlog_stateD2Ev@Base 10.11.8
 _ZN16select_subselect8send_eofEv@Base 10.11.8
 _ZN16set_var_password5checkEP3THD@Base 10.11.8
 _ZN16set_var_password6updateEP3THD@Base 10.11.8
 _ZN16set_var_passwordD0Ev@Base 10.11.8
 _ZN16set_var_passwordD1Ev@Base 10.11.8
 _ZN16set_var_passwordD2Ev@Base 10.11.8
 _ZN16sp_instr_freturn12get_psi_infoEv@Base 10.11.8
 _ZN16sp_instr_freturn5printEP6String@Base 10.11.8
 _ZN16sp_instr_freturn7executeEP3THDPj@Base 10.11.8
 _ZN16sp_instr_freturn8opt_markEP7sp_headP4ListI8sp_instrE@Base 10.11.8
 _ZN16sp_instr_freturn8psi_infoE@Base 10.11.8
 _ZN16sp_instr_freturn9exec_coreEP3THDPj@Base 10.11.8
 _ZN16sp_instr_freturnD0Ev@Base 10.11.8
 _ZN16sp_instr_freturnD1Ev@Base 10.11.8
 _ZN16sp_instr_freturnD2Ev@Base 10.11.8
 _ZN16sp_instr_hreturn12get_psi_infoEv@Base 10.11.8
 _ZN16sp_instr_hreturn17opt_shortcut_jumpEP7sp_headP8sp_instr@Base 10.11.8
 _ZN16sp_instr_hreturn5printEP6String@Base 10.11.8
 _ZN16sp_instr_hreturn7executeEP3THDPj@Base 10.11.8
 _ZN16sp_instr_hreturn8opt_markEP7sp_headP4ListI8sp_instrE@Base 10.11.8
 _ZN16sp_instr_hreturn8psi_infoE@Base 10.11.8
 _ZN16sp_instr_hreturnD0Ev@Base 10.11.8
 _ZN16sp_instr_hreturnD1Ev@Base 10.11.8
 _ZN16sp_instr_hreturnD2Ev@Base 10.11.8
 _ZN16sp_instr_preturn12get_psi_infoEv@Base 10.11.8
 _ZN16sp_instr_preturn5printEP6String@Base 10.11.8
 _ZN16sp_instr_preturn7executeEP3THDPj@Base 10.11.8
 _ZN16sp_instr_preturn8opt_markEP7sp_headP4ListI8sp_instrE@Base 10.11.8
 _ZN16sp_instr_preturn8psi_infoE@Base 10.11.8
 _ZN16sp_instr_preturnD0Ev@Base 10.11.8
 _ZN16sp_instr_preturnD1Ev@Base 10.11.8
 _ZN16sp_instr_preturnD2Ev@Base 10.11.8
 _ZN16subselect_engine11engine_typeEv@Base 10.11.8
 _ZN16subselect_engine11may_be_nullEv@Base 10.11.8
 _ZN16subselect_engine14get_identifierEv@Base 10.11.8
 _ZN16subselect_engine17calc_const_tablesER4ListI10TABLE_LISTE@Base 10.11.8
 _ZN16subselect_engine17force_reexecutionEv@Base 10.11.8
 _ZN16subselect_engine7set_rowER4ListI4ItemEPP10Item_cache@Base 10.11.8
 _ZN16subselect_engine7set_thdEP3THD@Base 10.11.8
 _ZN17Aggregator_simple11arg_is_nullEb@Base 10.11.8
 _ZN17Aggregator_simple12arg_val_realEv@Base 10.11.8
 _ZN17Aggregator_simple15arg_val_decimalEP10my_decimal@Base 10.11.8
 _ZN17Aggregator_simple3addEv@Base 10.11.8
 _ZN17Aggregator_simple5clearEv@Base 10.11.8
 _ZN17Aggregator_simple5endupEv@Base 10.11.8
 _ZN17Aggregator_simple5setupEP3THD@Base 10.11.8
 _ZN17Aggregator_simple8AggrtypeEv@Base 10.11.8
 _ZN17Aggregator_simpleD0Ev@Base 10.11.8
 _ZN17Aggregator_simpleD1Ev@Base 10.11.8
 _ZN17Aggregator_simpleD2Ev@Base 10.11.8
 _ZN17Cached_item_field13cmp_read_onlyEv@Base 10.11.8
 _ZN17Cached_item_field3cmpEv@Base 10.11.8
 _ZN17Cached_item_fieldD0Ev@Base 10.11.8
 _ZN17Cached_item_fieldD1Ev@Base 10.11.8
 _ZN17Cached_item_fieldD2Ev@Base 10.11.8
 _ZN17Column_definition14prepare_stage1EP3THDP11st_mem_root24column_definition_type_tPK25Column_derived_attributes@Base 10.11.8
 _ZN17Column_definition14prepare_stage2EP7handlery@Base 10.11.8
 _ZN17Column_definition14set_attributesEP3THDRK17Lex_field_type_st24column_definition_type_t@Base 10.11.8
 _ZN17Column_definition14set_compressedEPKc@Base 10.11.8
 _ZN17Column_definition18fix_attributes_bitEv@Base 10.11.8
 _ZN17Column_definition18fix_attributes_intEj@Base 10.11.8
 _ZN17Column_definition18prepare_blob_fieldEP3THD@Base 10.11.8
 _ZN17Column_definition18prepare_stage1_bitEP3THDP11st_mem_root@Base 10.11.8
 _ZN17Column_definition19fix_attributes_realEj@Base 10.11.8
 _ZN17Column_definition19prepare_stage2_blobEP7handleryj@Base 10.11.8
 _ZN17Column_definition21prepare_stage1_stringEP3THDP11st_mem_root@Base 10.11.8
 _ZN17Column_definition22fix_attributes_decimalEv@Base 10.11.8
 _ZN17Column_definition22has_default_expressionEv@Base 10.11.8
 _ZN17Column_definition22prepare_interval_fieldEP11st_mem_rootb@Base 10.11.8
 _ZN17Column_definition22prepare_stage1_typelibEP3THDP11st_mem_root24column_definition_type_t@Base 10.11.8
 _ZN17Column_definition22prepare_stage2_typelibEPKcjPj@Base 10.11.8
 _ZN17Column_definition22prepare_stage2_varcharEy@Base 10.11.8
 _ZN17Column_definition22redefine_stage1_commonEPKS_PK7handler@Base 10.11.8
 _ZN17Column_definition23sp_prepare_create_fieldEP3THDP11st_mem_root@Base 10.11.8
 _ZN17Column_definition25set_compressed_deprecatedEP3THDPKc@Base 10.11.8
 _ZN17Column_definition25validate_check_constraintEP3THD@Base 10.11.8
 _ZN17Column_definition26prepare_charset_for_stringEPK25Column_derived_attributes@Base 10.11.8
 _ZN17Column_definition30prepare_stage1_convert_defaultEP3THDP11st_mem_rootPK15charset_info_st@Base 10.11.8
 _ZN17Column_definition33fix_attributes_temporal_with_timeEj@Base 10.11.8
 _ZN17Column_definition34create_interval_from_interval_listEP11st_mem_rootb@Base 10.11.8
 _ZN17Column_definition36create_length_to_internal_length_bitEv@Base 10.11.8
 _ZN17Column_definition36prepare_stage1_check_typelib_defaultEv@Base 10.11.8
 _ZN17Column_definition42set_compressed_deprecated_column_attributeEP3THDPKcS3_@Base 10.11.8
 _ZN17Column_definition43create_length_to_internal_length_newdecimalEv@Base 10.11.8
 _ZN17Column_definition5checkEP3THD@Base 10.11.8
 _ZN17Column_definitionC1EP3THDP5FieldS3_@Base 10.11.8
 _ZN17Column_definitionC2EP3THDP5FieldS3_@Base 10.11.8
 _ZN17Create_func_crc3211s_singletonE@Base 10.11.8
 _ZN17Create_func_crc3213create_nativeEP3THDPK25st_mysql_const_lex_stringP4ListI4ItemE@Base 10.11.8
 _ZN17Create_func_crc32D0Ev@Base 10.11.8
 _ZN17Create_func_crc32D1Ev@Base 10.11.8
 _ZN17Create_func_crc32D2Ev@Base 10.11.8
 _ZN17Create_func_field11s_singletonE@Base 10.11.8
 _ZN17Create_func_field13create_nativeEP3THDPK25st_mysql_const_lex_stringP4ListI4ItemE@Base 10.11.8
 _ZN17Create_func_fieldD0Ev@Base 10.11.8
 _ZN17Create_func_fieldD1Ev@Base 10.11.8
 _ZN17Create_func_fieldD2Ev@Base 10.11.8
 _ZN17Create_func_floor11s_singletonE@Base 10.11.8
 _ZN17Create_func_floor12create_1_argEP3THDP4Item@Base 10.11.8
 _ZN17Create_func_floorD0Ev@Base 10.11.8
 _ZN17Create_func_floorD1Ev@Base 10.11.8
 _ZN17Create_func_floorD2Ev@Base 10.11.8
 _ZN17Create_func_instr11s_singletonE@Base 10.11.8
 _ZN17Create_func_instr12create_2_argEP3THDP4ItemS3_@Base 10.11.8
 _ZN17Create_func_instrD0Ev@Base 10.11.8
 _ZN17Create_func_instrD1Ev@Base 10.11.8
 _ZN17Create_func_instrD2Ev@Base 10.11.8
 _ZN17Create_func_lcase11s_singletonE@Base 10.11.8
 _ZN17Create_func_lcase12create_1_argEP3THDP4Item@Base 10.11.8
 _ZN17Create_func_lcaseD0Ev@Base 10.11.8
 _ZN17Create_func_lcaseD1Ev@Base 10.11.8
 _ZN17Create_func_lcaseD2Ev@Base 10.11.8
 _ZN17Create_func_least11s_singletonE@Base 10.11.8
 _ZN17Create_func_least13create_nativeEP3THDPK25st_mysql_const_lex_stringP4ListI4ItemE@Base 10.11.8
 _ZN17Create_func_leastD0Ev@Base 10.11.8
 _ZN17Create_func_leastD1Ev@Base 10.11.8
 _ZN17Create_func_leastD2Ev@Base 10.11.8
 _ZN17Create_func_log1011s_singletonE@Base 10.11.8
 _ZN17Create_func_log1012create_1_argEP3THDP4Item@Base 10.11.8
 _ZN17Create_func_log10D0Ev@Base 10.11.8
 _ZN17Create_func_log10D1Ev@Base 10.11.8
 _ZN17Create_func_log10D2Ev@Base 10.11.8
 _ZN17Create_func_ltrim11s_singletonE@Base 10.11.8
 _ZN17Create_func_ltrim12create_1_argEP3THDP4Item@Base 10.11.8
 _ZN17Create_func_ltrimD0Ev@Base 10.11.8
 _ZN17Create_func_ltrimD1Ev@Base 10.11.8
 _ZN17Create_func_ltrimD2Ev@Base 10.11.8
 _ZN17Create_func_quote11s_singletonE@Base 10.11.8
 _ZN17Create_func_quote12create_1_argEP3THDP4Item@Base 10.11.8
 _ZN17Create_func_quoteD0Ev@Base 10.11.8
 _ZN17Create_func_quoteD1Ev@Base 10.11.8
 _ZN17Create_func_quoteD2Ev@Base 10.11.8
 _ZN17Create_func_round11s_singletonE@Base 10.11.8
 _ZN17Create_func_round13create_nativeEP3THDPK25st_mysql_const_lex_stringP4ListI4ItemE@Base 10.11.8
 _ZN17Create_func_roundD0Ev@Base 10.11.8
 _ZN17Create_func_roundD1Ev@Base 10.11.8
 _ZN17Create_func_roundD2Ev@Base 10.11.8
 _ZN17Create_func_rtrim11s_singletonE@Base 10.11.8
 _ZN17Create_func_rtrim12create_1_argEP3THDP4Item@Base 10.11.8
 _ZN17Create_func_rtrimD0Ev@Base 10.11.8
 _ZN17Create_func_rtrimD1Ev@Base 10.11.8
 _ZN17Create_func_rtrimD2Ev@Base 10.11.8
 _ZN17Create_func_sleep11s_singletonE@Base 10.11.8
 _ZN17Create_func_sleep12create_1_argEP3THDP4Item@Base 10.11.8
 _ZN17Create_func_sleepD0Ev@Base 10.11.8
 _ZN17Create_func_sleepD1Ev@Base 10.11.8
 _ZN17Create_func_sleepD2Ev@Base 10.11.8
 _ZN17Create_func_space11s_singletonE@Base 10.11.8
 _ZN17Create_func_space12create_1_argEP3THDP4Item@Base 10.11.8
 _ZN17Create_func_spaceD0Ev@Base 10.11.8
 _ZN17Create_func_spaceD1Ev@Base 10.11.8
 _ZN17Create_func_spaceD2Ev@Base 10.11.8
 _ZN17Create_func_ucase11s_singletonE@Base 10.11.8
 _ZN17Create_func_ucase12create_1_argEP3THDP4Item@Base 10.11.8
 _ZN17Create_func_ucaseD0Ev@Base 10.11.8
 _ZN17Create_func_ucaseD1Ev@Base 10.11.8
 _ZN17Create_func_ucaseD2Ev@Base 10.11.8
 _ZN17Create_func_unhex11s_singletonE@Base 10.11.8
 _ZN17Create_func_unhex12create_1_argEP3THDP4Item@Base 10.11.8
 _ZN17Create_func_unhexD0Ev@Base 10.11.8
 _ZN17Create_func_unhexD1Ev@Base 10.11.8
 _ZN17Create_func_unhexD2Ev@Base 10.11.8
 _ZN17Create_func_union11s_singletonE@Base 10.11.8
 _ZN17Create_func_union12create_2_argEP3THDP4ItemS3_@Base 10.11.8
 _ZN17Create_func_unionD0Ev@Base 10.11.8
 _ZN17Create_func_unionD1Ev@Base 10.11.8
 _ZN17Create_func_unionD2Ev@Base 10.11.8
 _ZN17Create_json_table13choose_engineEP3THDP5TABLEP15TMP_TABLE_PARAM@Base 10.11.8
 _ZN17Create_json_table21add_json_table_fieldsEP3THDP5TABLEP25Table_function_json_table@Base 10.11.8
 _ZN17Create_json_table5startEP3THDP15TMP_TABLE_PARAMP25Table_function_json_tablePK25st_mysql_const_lex_string@Base 10.11.8
 _ZN17Create_json_table8finalizeEP3THDP5TABLEP15TMP_TABLE_PARAMP25Table_function_json_table@Base 10.11.8
 _ZN17Create_json_tableD0Ev@Base 10.11.8
 _ZN17Create_json_tableD1Ev@Base 10.11.8
 _ZN17Create_json_tableD2Ev@Base 10.11.8
 _ZN17Dependency_marker11visit_fieldEP10Item_field@Base 10.11.8
 _ZN17Explain_index_use14set_pseudo_keyEP11st_mem_rootPKc@Base 10.11.8
 _ZN17Explain_index_use3setEP11st_mem_rootP6st_keyj@Base 10.11.8
 _ZN17Field_bit_as_char5storeEPKcmPK15charset_info_st@Base 10.11.8
 _ZN17Field_bit_as_char5storeEd@Base 10.11.8
 _ZN17Field_bit_as_char5storeExb@Base 10.11.8
 _ZN17Field_bit_as_charC1EPhjS0_hN5Field5utypeEPK25st_mysql_const_lex_string@Base 10.11.8
 _ZN17Field_bit_as_charC2EPhjS0_hN5Field5utypeEPK25st_mysql_const_lex_string@Base 10.11.8
 _ZN17Field_bit_as_charD0Ev@Base 10.11.8
 _ZN17Field_bit_as_charD1Ev@Base 10.11.8
 _ZN17Field_bit_as_charD2Ev@Base 10.11.8
 _ZN17Field_date_common11get_mm_leafEP15RANGE_OPT_PARAMP8KEY_PARTPK14Item_bool_func20scalar_comparison_opP4Item@Base 10.11.8
 _ZN17Field_date_common13store_decimalEPK10my_decimal@Base 10.11.8
 _ZN17Field_date_common14store_time_decEPK13st_mysql_timej@Base 10.11.8
 _ZN17Field_date_common23store_TIME_with_warningEPK8DatetimePK7ErrConvi@Base 10.11.8
 _ZN17Field_date_common5storeEPKcmPK15charset_info_st@Base 10.11.8
 _ZN17Field_date_common5storeEd@Base 10.11.8
 _ZN17Field_date_common5storeExb@Base 10.11.8
 _ZN17Field_new_decimal11sort_stringEPhj@Base 10.11.8
 _ZN17Field_new_decimal11store_valueEPK10my_decimal@Base 10.11.8
 _ZN17Field_new_decimal11store_valueEPK10my_decimalPi@Base 10.11.8
 _ZN17Field_new_decimal11val_decimalEP10my_decimal@Base 10.11.8
 _ZN17Field_new_decimal13save_in_fieldEP5Field@Base 10.11.8
 _ZN17Field_new_decimal13store_decimalEPK10my_decimal@Base 10.11.8
 _ZN17Field_new_decimal14store_time_decEPK13st_mysql_timej@Base 10.11.8
 _ZN17Field_new_decimal20get_equal_const_itemEP3THDRKN12Value_source7ContextEP4Item@Base 10.11.8
 _ZN17Field_new_decimal21set_value_on_overflowEP10my_decimalb@Base 10.11.8
 _ZN17Field_new_decimal5resetEv@Base 10.11.8
 _ZN17Field_new_decimal5storeEPKcmPK15charset_info_st@Base 10.11.8
 _ZN17Field_new_decimal5storeEd@Base 10.11.8
 _ZN17Field_new_decimal5storeExb@Base 10.11.8
 _ZN17Field_new_decimal6unpackEPhPKhS2_j@Base 10.11.8
 _ZN17Field_new_decimal7val_intEv@Base 10.11.8
 _ZN17Field_new_decimal7val_strEP6StringS1_@Base 10.11.8
 _ZN17Field_new_decimal8get_dateEP13st_mysql_time11date_mode_t@Base 10.11.8
 _ZN17Field_new_decimal8val_boolEv@Base 10.11.8
 _ZN17Field_new_decimal8val_realEv@Base 10.11.8
 _ZN17Field_new_decimal8val_uintEv@Base 10.11.8
 _ZN17Field_new_decimalC1EPhjS0_hN5Field5utypeEPK25st_mysql_const_lex_stringtbb@Base 10.11.8
 _ZN17Field_new_decimalC2EPhjS0_hN5Field5utypeEPK25st_mysql_const_lex_stringtbb@Base 10.11.8
 _ZN17Field_new_decimalD0Ev@Base 10.11.8
 _ZN17Field_new_decimalD1Ev@Base 10.11.8
 _ZN17Field_new_decimalD2Ev@Base 10.11.8
 _ZN17Field_vers_trx_id8get_dateEP13st_mysql_time11date_mode_t@Base 10.11.8
 _ZN17Field_vers_trx_id8get_dateEP13st_mysql_time11date_mode_ty@Base 10.11.8
 _ZN17Field_vers_trx_idD0Ev@Base 10.11.8
 _ZN17Field_vers_trx_idD1Ev@Base 10.11.8
 _ZN17Field_vers_trx_idD2Ev@Base 10.11.8
 _ZN17Firstmatch_picker13set_from_prevEP8POSITION@Base 10.11.8
 _ZN17Firstmatch_picker9check_qepEP4JOINjyPK13st_join_tablePdS5_PyP16sj_strategy_enumP8POSITION@Base 10.11.8
 _ZN17Firstmatch_picker9mark_usedEv@Base 10.11.8
 _ZN17Firstmatch_picker9set_emptyEv@Base 10.11.8
 _ZN17Firstmatch_pickerD0Ev@Base 10.11.8
 _ZN17Firstmatch_pickerD1Ev@Base 10.11.8
 _ZN17Firstmatch_pickerD2Ev@Base 10.11.8
 _ZN17Frame_range_n_top12pre_next_rowEv@Base 10.11.8
 _ZN17Frame_range_n_top14next_partitionEy@Base 10.11.8
 _ZN17Frame_range_n_top18pre_next_partitionEy@Base 10.11.8
 _ZN17Frame_range_n_top4initEP11READ_RECORD@Base 10.11.8
 _ZN17Frame_range_n_top8next_rowEv@Base 10.11.8
 _ZN17Frame_range_n_topD0Ev@Base 10.11.8
 _ZN17Frame_range_n_topD1Ev@Base 10.11.8
 _ZN17Frame_range_n_topD2Ev@Base 10.11.8
 _ZN17Frame_scan_cursor12pre_next_rowEv@Base 10.11.8
 _ZN17Frame_scan_cursor14next_partitionEy@Base 10.11.8
 _ZN17Frame_scan_cursor18pre_next_partitionEy@Base 10.11.8
 _ZN17Frame_scan_cursor4initEP11READ_RECORD@Base 10.11.8
 _ZN17Frame_scan_cursor8next_rowEv@Base 10.11.8
 _ZN17Frame_scan_cursorD0Ev@Base 10.11.8
 _ZN17Frame_scan_cursorD1Ev@Base 10.11.8
 _ZN17Frame_scan_cursorD2Ev@Base 10.11.8
 _ZN17Gis_multi_polygon13init_from_wkbEPKcjN8Geometry12wkbByteOrderEP6String@Base 10.11.8
 _ZN17Gis_multi_polygon13init_from_wktEP15Gis_read_streamP6String@Base 10.11.8
 _ZN17Gis_multi_polygon14init_from_jsonEP16st_json_engine_tbP6String@Base 10.11.8
 _ZN17Gis_multi_polygon18init_from_opresultEP6StringPKcj@Base 10.11.8
 _ZN17Gis_multi_polygonD0Ev@Base 10.11.8
 _ZN17Gis_multi_polygonD1Ev@Base 10.11.8
 _ZN17Gis_multi_polygonD2Ev@Base 10.11.8
 _ZN17Histogram_json_hb11find_bucketEPK5FieldPKhPi@Base 10.11.8
 _ZN17Histogram_json_hb12parse_bucketEP16st_json_engine_tP5FieldPdPbPPKc@Base 10.11.8
 _ZN17Histogram_json_hb13get_end_valueB5cxx11Ei@Base 10.11.8
 _ZN17Histogram_json_hb14create_builderEP5Fieldjy@Base 10.11.8
 _ZN17Histogram_json_hb14get_left_fractEi@Base 10.11.8
 _ZN17Histogram_json_hb17point_selectivityEP5FieldP12st_key_ranged@Base 10.11.8
 _ZN17Histogram_json_hb17range_selectivityEP5FieldP12st_key_rangeS3_d@Base 10.11.8
 _ZN17Histogram_json_hb19init_for_collectionEP11st_mem_root19enum_histogram_typey@Base 10.11.8
 _ZN17Histogram_json_hb5parseEP11st_mem_rootPKcS3_P5FieldS3_m@Base 10.11.8
 _ZN17Histogram_json_hb8get_sizeEv@Base 10.11.8
 _ZN17Histogram_json_hb8get_typeEv@Base 10.11.8
 _ZN17Histogram_json_hb9get_widthEv@Base 10.11.8
 _ZN17Histogram_json_hb9serializeEP5Field@Base 10.11.8
 _ZN17Histogram_json_hbD0Ev@Base 10.11.8
 _ZN17Histogram_json_hbD1Ev@Base 10.11.8
 _ZN17Histogram_json_hbD2Ev@Base 10.11.8
 _ZN17Item_cache_double7val_strEP6String@Base 10.11.8
 _ZN17Item_cache_double8get_copyEP3THD@Base 10.11.8
 _ZN17Item_cache_doubleD0Ev@Base 10.11.8
 _ZN17Item_cache_doubleD1Ev@Base 10.11.8
 _ZN17Item_cache_doubleD2Ev@Base 10.11.8
 _ZN17Item_date_literal10clone_itemEP3THD@Base 10.11.8
 _ZN17Item_date_literal11val_decimalEP10my_decimal@Base 10.11.8
 _ZN17Item_date_literal19val_datetime_packedEP3THD@Base 10.11.8
 _ZN17Item_date_literal5printEP6String15enum_query_type@Base 10.11.8
 _ZN17Item_date_literal7val_intEv@Base 10.11.8
 _ZN17Item_date_literal7val_strEP6String@Base 10.11.8
 _ZN17Item_date_literal8get_copyEP3THD@Base 10.11.8
 _ZN17Item_date_literal8get_dateEP3THDP13st_mysql_time11date_mode_t@Base 10.11.8
 _ZN17Item_date_literal8val_realEv@Base 10.11.8
 _ZN17Item_date_literalD0Ev@Base 10.11.8
 _ZN17Item_date_literalD1Ev@Base 10.11.8
 _ZN17Item_date_literalD2Ev@Base 10.11.8
 _ZN17Item_datetimefunc11val_decimalEP10my_decimal@Base 10.11.8
 _ZN17Item_datetimefunc7val_intEv@Base 10.11.8
 _ZN17Item_datetimefunc7val_strEP6String@Base 10.11.8
 _ZN17Item_datetimefunc8val_realEv@Base 10.11.8
 _ZN17Item_empty_string15make_send_fieldEP3THDP10Send_field@Base 10.11.8
 _ZN17Item_empty_stringC1EP3THDPKcjPK15charset_info_st@Base 10.11.8
 _ZN17Item_empty_stringC2EP3THDPKcjPK15charset_info_st@Base 10.11.8
 _ZN17Item_empty_stringD0Ev@Base 10.11.8
 _ZN17Item_empty_stringD1Ev@Base 10.11.8
 _ZN17Item_empty_stringD2Ev@Base 10.11.8
 _ZN17Item_func_between11get_mm_treeEP15RANGE_OPT_PARAMPP4Item@Base 10.11.8
 _ZN17Item_func_between14add_key_fieldsEP4JOINPP9KEY_FIELDPjyPP14SARGABLE_PARAM@Base 10.11.8
 _ZN17Item_func_between15val_int_cmp_intEv@Base 10.11.8
 _ZN17Item_func_between16get_func_mm_treeEP15RANGE_OPT_PARAMP5FieldP4Item@Base 10.11.8
 _ZN17Item_func_between16val_int_cmp_realEv@Base 10.11.8
 _ZN17Item_func_between16val_int_cmp_timeEv@Base 10.11.8
 _ZN17Item_func_between17fix_after_pulloutEP13st_select_lexPP4Itemb@Base 10.11.8
 _ZN17Item_func_between18fix_length_and_decEP3THD@Base 10.11.8
 _ZN17Item_func_between18val_int_cmp_nativeEv@Base 10.11.8
 _ZN17Item_func_between18val_int_cmp_stringEv@Base 10.11.8
 _ZN17Item_func_between19val_int_cmp_decimalEv@Base 10.11.8
 _ZN17Item_func_between20count_sargable_condsEPv@Base 10.11.8
 _ZN17Item_func_between20eval_not_null_tablesEPv@Base 10.11.8
 _ZN17Item_func_between20find_not_null_fieldsEy@Base 10.11.8
 _ZN17Item_func_between20val_int_cmp_datetimeEv@Base 10.11.8
 _ZN17Item_func_between22propagate_equal_fieldsEP3THDRKN12Value_source7ContextEP10COND_EQUAL@Base 10.11.8
 _ZN17Item_func_between24val_int_cmp_int_finalizeExxx@Base 10.11.8
 _ZN17Item_func_between26fix_length_and_dec_numericEP3THD@Base 10.11.8
 _ZN17Item_func_between27fix_length_and_dec_temporalEP3THD@Base 10.11.8
 _ZN17Item_func_between5printEP6String15enum_query_type@Base 10.11.8
 _ZN17Item_func_between7val_intEv@Base 10.11.8
 _ZN17Item_func_between8get_copyEP3THD@Base 10.11.8
 _ZN17Item_func_betweenC1EP3THDP4ItemS3_S3_@Base 10.11.8
 _ZN17Item_func_betweenC2EP3THDP4ItemS3_S3_@Base 10.11.8
 _ZN17Item_func_betweenD0Ev@Base 10.11.8
 _ZN17Item_func_betweenD1Ev@Base 10.11.8
 _ZN17Item_func_betweenD2Ev@Base 10.11.8
 _ZN17Item_func_bit_and18fix_length_and_decEP3THD@Base 10.11.8
 _ZN17Item_func_bit_and8get_copyEP3THD@Base 10.11.8
 _ZN17Item_func_bit_andD0Ev@Base 10.11.8
 _ZN17Item_func_bit_andD1Ev@Base 10.11.8
 _ZN17Item_func_bit_andD2Ev@Base 10.11.8
 _ZN17Item_func_bit_neg18fix_length_and_decEP3THD@Base 10.11.8
 _ZN17Item_func_bit_neg5printEP6String15enum_query_type@Base 10.11.8
 _ZN17Item_func_bit_neg8get_copyEP3THD@Base 10.11.8
 _ZN17Item_func_bit_negD0Ev@Base 10.11.8
 _ZN17Item_func_bit_negD1Ev@Base 10.11.8
 _ZN17Item_func_bit_negD2Ev@Base 10.11.8
 _ZN17Item_func_bit_xor18fix_length_and_decEP3THD@Base 10.11.8
 _ZN17Item_func_bit_xor8get_copyEP3THD@Base 10.11.8
 _ZN17Item_func_bit_xorD0Ev@Base 10.11.8
 _ZN17Item_func_bit_xorD1Ev@Base 10.11.8
 _ZN17Item_func_bit_xorD2Ev@Base 10.11.8
 _ZN17Item_func_ceiling10decimal_opEP10my_decimal@Base 10.11.8
 _ZN17Item_func_ceiling6int_opEv@Base 10.11.8
 _ZN17Item_func_ceiling7date_opEP3THDP13st_mysql_time11date_mode_t@Base 10.11.8
 _ZN17Item_func_ceiling7real_opEv@Base 10.11.8
 _ZN17Item_func_ceiling7time_opEP3THDP13st_mysql_time@Base 10.11.8
 _ZN17Item_func_ceiling8get_copyEP3THD@Base 10.11.8
 _ZN17Item_func_ceilingD0Ev@Base 10.11.8
 _ZN17Item_func_ceilingD1Ev@Base 10.11.8
 _ZN17Item_func_ceilingD2Ev@Base 10.11.8
 _ZN17Item_func_charset7val_strEP6String@Base 10.11.8
 _ZN17Item_func_charset8get_copyEP3THD@Base 10.11.8
 _ZN17Item_func_charsetD0Ev@Base 10.11.8
 _ZN17Item_func_charsetD1Ev@Base 10.11.8
 _ZN17Item_func_charsetD2Ev@Base 10.11.8
 _ZN17Item_func_curdate25check_vcol_func_processorEPv@Base 10.11.8
 _ZN17Item_func_curdate8get_dateEP3THDP13st_mysql_time11date_mode_t@Base 10.11.8
 _ZN17Item_func_curtime10fix_fieldsEP3THDPP4Item@Base 10.11.8
 _ZN17Item_func_curtime18fix_length_and_decEP3THD@Base 10.11.8
 _ZN17Item_func_curtime25check_vcol_func_processorEPv@Base 10.11.8
 _ZN17Item_func_curtime5printEP6String15enum_query_type@Base 10.11.8
 _ZN17Item_func_curtime8get_dateEP3THDP13st_mysql_time11date_mode_t@Base 10.11.8
 _ZN17Item_func_dayname18fix_length_and_decEP3THD@Base 10.11.8
 _ZN17Item_func_dayname25check_vcol_func_processorEPv@Base 10.11.8
 _ZN17Item_func_dayname30check_partition_func_processorEPv@Base 10.11.8
 _ZN17Item_func_dayname31check_valid_arguments_processorEPv@Base 10.11.8
 _ZN17Item_func_dayname7val_strEP6String@Base 10.11.8
 _ZN17Item_func_dayname8get_copyEP3THD@Base 10.11.8
 _ZN17Item_func_daynameD0Ev@Base 10.11.8
 _ZN17Item_func_daynameD1Ev@Base 10.11.8
 _ZN17Item_func_daynameD2Ev@Base 10.11.8
 _ZN17Item_func_encrypt18fix_length_and_decEP3THD@Base 10.11.8
 _ZN17Item_func_encrypt25check_vcol_func_processorEPv@Base 10.11.8
 _ZN17Item_func_encrypt7val_strEP6String@Base 10.11.8
 _ZN17Item_func_encrypt8get_copyEP3THD@Base 10.11.8
 _ZN17Item_func_encryptD0Ev@Base 10.11.8
 _ZN17Item_func_encryptD1Ev@Base 10.11.8
 _ZN17Item_func_encryptD2Ev@Base 10.11.8
 _ZN17Item_func_glength18fix_length_and_decEP3THD@Base 10.11.8
 _ZN17Item_func_glength8get_copyEP3THD@Base 10.11.8
 _ZN17Item_func_glength8val_realEv@Base 10.11.8
 _ZN17Item_func_glengthD0Ev@Base 10.11.8
 _ZN17Item_func_glengthD1Ev@Base 10.11.8
 _ZN17Item_func_glengthD2Ev@Base 10.11.8
 _ZN17Item_func_history18fix_length_and_decEP3THD@Base 10.11.8
 _ZN17Item_func_history5printEP6String15enum_query_type@Base 10.11.8
 _ZN17Item_func_history7val_intEv@Base 10.11.8
 _ZN17Item_func_history8get_copyEP3THD@Base 10.11.8
 _ZN17Item_func_history8val_boolEv@Base 10.11.8
 _ZN17Item_func_historyD0Ev@Base 10.11.8
 _ZN17Item_func_historyD1Ev@Base 10.11.8
 _ZN17Item_func_historyD2Ev@Base 10.11.8
 _ZN17Item_func_int_div18fix_length_and_decEP3THD@Base 10.11.8
 _ZN17Item_func_int_div25check_vcol_func_processorEPv@Base 10.11.8
 _ZN17Item_func_int_div27need_parentheses_in_defaultEv@Base 10.11.8
 _ZN17Item_func_int_div30check_partition_func_processorEPv@Base 10.11.8
 _ZN17Item_func_int_div5printEP6String15enum_query_type@Base 10.11.8
 _ZN17Item_func_int_div7val_intEv@Base 10.11.8
 _ZN17Item_func_int_div8get_copyEP3THD@Base 10.11.8
 _ZN17Item_func_int_divD0Ev@Base 10.11.8
 _ZN17Item_func_int_divD1Ev@Base 10.11.8
 _ZN17Item_func_int_divD2Ev@Base 10.11.8
 _ZN17Item_func_int_val18fix_length_and_decEP3THD@Base 10.11.8
 _ZN17Item_func_int_val25check_vcol_func_processorEPv@Base 10.11.8
 _ZN17Item_func_int_val25fix_length_and_dec_doubleEv@Base 10.11.8
 _ZN17Item_func_int_val30check_partition_func_processorEPv@Base 10.11.8
 _ZN17Item_func_int_val33fix_length_and_dec_int_or_decimalEv@Base 10.11.8
 _ZN17Item_func_int_val6str_opEP6String@Base 10.11.8
 _ZN17Item_func_int_val9native_opEP3THDP6Native@Base 10.11.8
 _ZN17Item_func_isempty18fix_length_and_decEP3THD@Base 10.11.8
 _ZN17Item_func_isempty27need_parentheses_in_defaultEv@Base 10.11.8
 _ZN17Item_func_isempty7val_intEv@Base 10.11.8
 _ZN17Item_func_isempty8get_copyEP3THD@Base 10.11.8
 _ZN17Item_func_isemptyD0Ev@Base 10.11.8
 _ZN17Item_func_isemptyD1Ev@Base 10.11.8
 _ZN17Item_func_isemptyD2Ev@Base 10.11.8
 _ZN17Item_func_isfalse8get_copyEP3THD@Base 10.11.8
 _ZN17Item_func_isfalseD0Ev@Base 10.11.8
 _ZN17Item_func_isfalseD1Ev@Base 10.11.8
 _ZN17Item_func_isfalseD2Ev@Base 10.11.8
 _ZN17Item_func_lastval7val_intEv@Base 10.11.8
 _ZN17Item_func_lastval8get_copyEP3THD@Base 10.11.8
 _ZN17Item_func_lastvalD0Ev@Base 10.11.8
 _ZN17Item_func_lastvalD1Ev@Base 10.11.8
 _ZN17Item_func_lastvalD2Ev@Base 10.11.8
 _ZN17Item_func_min_max10val_nativeEP3THDP6Native@Base 10.11.8
 _ZN17Item_func_min_max11val_decimalEP10my_decimal@Base 10.11.8
 _ZN17Item_func_min_max14fix_attributesEPP4Itemj@Base 10.11.8
 _ZN17Item_func_min_max14val_int_nativeEv@Base 10.11.8
 _ZN17Item_func_min_max14val_str_nativeEP6String@Base 10.11.8
 _ZN17Item_func_min_max15get_date_nativeEP3THDP13st_mysql_time11date_mode_t@Base 10.11.8
 _ZN17Item_func_min_max15get_time_nativeEP3THDP13st_mysql_time@Base 10.11.8
 _ZN17Item_func_min_max15val_real_nativeEv@Base 10.11.8
 _ZN17Item_func_min_max18fix_length_and_decEP3THD@Base 10.11.8
 _ZN17Item_func_min_max18val_decimal_nativeEP10my_decimal@Base 10.11.8
 _ZN17Item_func_min_max7val_intEv@Base 10.11.8
 _ZN17Item_func_min_max7val_strEP6String@Base 10.11.8
 _ZN17Item_func_min_max8get_dateEP3THDP13st_mysql_time11date_mode_t@Base 10.11.8
 _ZN17Item_func_min_max8val_realEv@Base 10.11.8
 _ZN17Item_func_nextval18fix_length_and_decEP3THD@Base 10.11.8
 _ZN17Item_func_nextval25check_vcol_func_processorEPv@Base 10.11.8
 _ZN17Item_func_nextval5printEP6String15enum_query_type@Base 10.11.8
 _ZN17Item_func_nextval7val_intEv@Base 10.11.8
 _ZN17Item_func_nextval8get_copyEP3THD@Base 10.11.8
 _ZN17Item_func_nextvalD0Ev@Base 10.11.8
 _ZN17Item_func_nextvalD1Ev@Base 10.11.8
 _ZN17Item_func_nextvalD2Ev@Base 10.11.8
 _ZN17Item_func_nop_all15neg_transformerEP3THD@Base 10.11.8
 _ZN17Item_func_nop_all7val_intEv@Base 10.11.8
 _ZN17Item_func_nop_all8get_copyEP3THD@Base 10.11.8
 _ZN17Item_func_nop_allD0Ev@Base 10.11.8
 _ZN17Item_func_nop_allD1Ev@Base 10.11.8
 _ZN17Item_func_nop_allD2Ev@Base 10.11.8
 _ZN17Item_func_not_all10fix_fieldsEP3THDPP4Item@Base 10.11.8
 _ZN17Item_func_not_all15neg_transformerEP3THD@Base 10.11.8
 _ZN17Item_func_not_all25empty_underlying_subqueryEv@Base 10.11.8
 _ZN17Item_func_not_all5printEP6String15enum_query_type@Base 10.11.8
 _ZN17Item_func_not_all7val_intEv@Base 10.11.8
 _ZN17Item_func_not_allD0Ev@Base 10.11.8
 _ZN17Item_func_not_allD1Ev@Base 10.11.8
 _ZN17Item_func_not_allD2Ev@Base 10.11.8
 _ZN17Item_func_now_utc17store_now_in_TIMEEP3THDP13st_mysql_time@Base 10.11.8
 _ZN17Item_func_now_utc25check_vcol_func_processorEPv@Base 10.11.8
 _ZN17Item_func_now_utc8get_copyEP3THD@Base 10.11.8
 _ZN17Item_func_now_utcD0Ev@Base 10.11.8
 _ZN17Item_func_now_utcD1Ev@Base 10.11.8
 _ZN17Item_func_now_utcD2Ev@Base 10.11.8
 _ZN17Item_func_opt_neg15neg_transformerEP3THD@Base 10.11.8
 _ZN17Item_func_polygon8get_copyEP3THD@Base 10.11.8
 _ZN17Item_func_polygonD0Ev@Base 10.11.8
 _ZN17Item_func_polygonD1Ev@Base 10.11.8
 _ZN17Item_func_polygonD2Ev@Base 10.11.8
 _ZN17Item_func_quarter18fix_length_and_decEP3THD@Base 10.11.8
 _ZN17Item_func_quarter25check_vcol_func_processorEPv@Base 10.11.8
 _ZN17Item_func_quarter30check_partition_func_processorEPv@Base 10.11.8
 _ZN17Item_func_quarter31check_valid_arguments_processorEPv@Base 10.11.8
 _ZN17Item_func_quarter7val_intEv@Base 10.11.8
 _ZN17Item_func_quarter8get_copyEP3THD@Base 10.11.8
 _ZN17Item_func_quarterD0Ev@Base 10.11.8
 _ZN17Item_func_quarterD1Ev@Base 10.11.8
 _ZN17Item_func_quarterD2Ev@Base 10.11.8
 _ZN17Item_func_replace16val_str_internalEP6Stringb@Base 10.11.8
 _ZN17Item_func_replace18fix_length_and_decEP3THD@Base 10.11.8
 _ZN17Item_func_replace5printEP6String15enum_query_type@Base 10.11.8
 _ZN17Item_func_replace7val_strEP6String@Base 10.11.8
 _ZN17Item_func_replace8get_copyEP3THD@Base 10.11.8
 _ZN17Item_func_replaceD0Ev@Base 10.11.8
 _ZN17Item_func_replaceD1Ev@Base 10.11.8
 _ZN17Item_func_replaceD2Ev@Base 10.11.8
 _ZN17Item_func_reverse18fix_length_and_decEP3THD@Base 10.11.8
 _ZN17Item_func_reverse7val_strEP6String@Base 10.11.8
 _ZN17Item_func_reverse8get_copyEP3THD@Base 10.11.8
 _ZN17Item_func_reverseD0Ev@Base 10.11.8
 _ZN17Item_func_reverseD1Ev@Base 10.11.8
 _ZN17Item_func_reverseD2Ev@Base 10.11.8
 _ZN17Item_func_sformat18fix_length_and_decEP3THD@Base 10.11.8
 _ZN17Item_func_sformat7val_strEP6String@Base 10.11.8
 _ZN17Item_func_sformat8get_copyEP3THD@Base 10.11.8
 _ZN17Item_func_sformatC1EP3THDR4ListI4ItemE@Base 10.11.8
 _ZN17Item_func_sformatC2EP3THDR4ListI4ItemE@Base 10.11.8
 _ZN17Item_func_sformatD0Ev@Base 10.11.8
 _ZN17Item_func_sformatD1Ev@Base 10.11.8
 _ZN17Item_func_sformatD2Ev@Base 10.11.8
 _ZN17Item_func_soundex18fix_length_and_decEP3THD@Base 10.11.8
 _ZN17Item_func_soundex7val_strEP6String@Base 10.11.8
 _ZN17Item_func_soundex8get_copyEP3THD@Base 10.11.8
 _ZN17Item_func_soundexD0Ev@Base 10.11.8
 _ZN17Item_func_soundexD1Ev@Base 10.11.8
 _ZN17Item_func_soundexD2Ev@Base 10.11.8
 _ZN17Item_func_sqlcode18fix_length_and_decEP3THD@Base 10.11.8
 _ZN17Item_func_sqlcode25check_vcol_func_processorEPv@Base 10.11.8
 _ZN17Item_func_sqlcode5printEP6String15enum_query_type@Base 10.11.8
 _ZN17Item_func_sqlcode7val_intEv@Base 10.11.8
 _ZN17Item_func_sqlcode8get_copyEP3THD@Base 10.11.8
 _ZN17Item_func_sqlcodeD0Ev@Base 10.11.8
 _ZN17Item_func_sqlcodeD1Ev@Base 10.11.8
 _ZN17Item_func_sqlcodeD2Ev@Base 10.11.8
 _ZN17Item_func_sqlerrm18fix_length_and_decEP3THD@Base 10.11.8
 _ZN17Item_func_sqlerrm5printEP6String15enum_query_type@Base 10.11.8
 _ZN17Item_func_sqlerrm7val_strEP6String@Base 10.11.8
 _ZN17Item_func_sqlerrm8get_copyEP3THD@Base 10.11.8
 _ZN17Item_func_sqlerrmD0Ev@Base 10.11.8
 _ZN17Item_func_sqlerrmD1Ev@Base 10.11.8
 _ZN17Item_func_sqlerrmD2Ev@Base 10.11.8
 _ZN17Item_func_to_days16val_int_endpointEbPb@Base 10.11.8
 _ZN17Item_func_to_days18fix_length_and_decEP3THD@Base 10.11.8
 _ZN17Item_func_to_days25check_vcol_func_processorEPv@Base 10.11.8
 _ZN17Item_func_to_days30check_partition_func_processorEPv@Base 10.11.8
 _ZN17Item_func_to_days31check_valid_arguments_processorEPv@Base 10.11.8
 _ZN17Item_func_to_days7val_intEv@Base 10.11.8
 _ZN17Item_func_to_days8get_copyEP3THD@Base 10.11.8
 _ZN17Item_func_to_daysD0Ev@Base 10.11.8
 _ZN17Item_func_to_daysD1Ev@Base 10.11.8
 _ZN17Item_func_to_daysD2Ev@Base 10.11.8
 _ZN17Item_func_udf_int11val_decimalEP10my_decimal@Base 10.11.8
 _ZN17Item_func_udf_int18fix_length_and_decEP3THD@Base 10.11.8
 _ZN17Item_func_udf_int7val_intEv@Base 10.11.8
 _ZN17Item_func_udf_int7val_strEP6String@Base 10.11.8
 _ZN17Item_func_udf_int8get_copyEP3THD@Base 10.11.8
 _ZN17Item_func_udf_int8val_realEv@Base 10.11.8
 _ZN17Item_func_udf_intD0Ev@Base 10.11.8
 _ZN17Item_func_udf_intD1Ev@Base 10.11.8
 _ZN17Item_func_udf_intD2Ev@Base 10.11.8
 _ZN17Item_func_udf_str11val_decimalEP10my_decimal@Base 10.11.8
 _ZN17Item_func_udf_str18fix_length_and_decEP3THD@Base 10.11.8
 _ZN17Item_func_udf_str7val_intEv@Base 10.11.8
 _ZN17Item_func_udf_str7val_strEP6String@Base 10.11.8
 _ZN17Item_func_udf_str8get_copyEP3THD@Base 10.11.8
 _ZN17Item_func_udf_str8val_realEv@Base 10.11.8
 _ZN17Item_func_udf_strD0Ev@Base 10.11.8
 _ZN17Item_func_udf_strD1Ev@Base 10.11.8
 _ZN17Item_func_udf_strD2Ev@Base 10.11.8
 _ZN17Item_func_weekday18fix_length_and_decEP3THD@Base 10.11.8
 _ZN17Item_func_weekday25check_vcol_func_processorEPv@Base 10.11.8
 _ZN17Item_func_weekday30check_partition_func_processorEPv@Base 10.11.8
 _ZN17Item_func_weekday31check_valid_arguments_processorEPv@Base 10.11.8
 _ZN17Item_func_weekday7val_intEv@Base 10.11.8
 _ZN17Item_func_weekday8get_copyEP3THD@Base 10.11.8
 _ZN17Item_func_weekday8get_dateEP3THDP13st_mysql_time11date_mode_t@Base 10.11.8
 _ZN17Item_func_weekdayD0Ev@Base 10.11.8
 _ZN17Item_func_weekdayD1Ev@Base 10.11.8
 _ZN17Item_func_weekdayD2Ev@Base 10.11.8
 _ZN17Item_handled_func10val_nativeEP3THDP6Native@Base 10.11.8
 _ZN17Item_handled_func11val_decimalEP10my_decimal@Base 10.11.8
 _ZN17Item_handled_func13val_str_asciiEP6String@Base 10.11.8
 _ZN17Item_handled_func30create_field_for_create_selectEP11st_mem_rootP5TABLE@Base 10.11.8
 _ZN17Item_handled_func7val_intEv@Base 10.11.8
 _ZN17Item_handled_func7val_strEP6String@Base 10.11.8
 _ZN17Item_handled_func8get_dateEP3THDP13st_mysql_time11date_mode_t@Base 10.11.8
 _ZN17Item_handled_func8val_realEv@Base 10.11.8
 _ZN17Item_handled_funcC1EP3THDP4ItemS3_@Base 10.11.8
 _ZN17Item_handled_funcC2EP3THDP4ItemS3_@Base 10.11.8
 _ZN17Item_hex_constant15hex_string_initEP3THDPKcm@Base 10.11.8
 _ZN17Item_hex_constant22safe_charset_converterEP3THDPK15charset_info_st@Base 10.11.8
 _ZN17Item_hex_constant7val_strEP6String@Base 10.11.8
 _ZN17Item_hex_constant8get_dateEP3THDP13st_mysql_time11date_mode_t@Base 10.11.8
 _ZN17Item_hex_constantC1EP3THDPKcm@Base 10.11.8
 _ZN17Item_hex_constantC2EP3THDPKcm@Base 10.11.8
 _ZN17Item_in_optimizer10fix_fieldsEP3THDPP4Item@Base 10.11.8
 _ZN17Item_in_optimizer12is_expensiveEv@Base 10.11.8
 _ZN17Item_in_optimizer14invisible_modeEv@Base 10.11.8
 _ZN17Item_in_optimizer16set_join_tab_idxEh@Base 10.11.8
 _ZN17Item_in_optimizer17fix_after_pulloutEP13st_select_lexPP4Itemb@Base 10.11.8
 _ZN17Item_in_optimizer20eval_not_null_tablesEPv@Base 10.11.8
 _ZN17Item_in_optimizer20find_not_null_fieldsEy@Base 10.11.8
 _ZN17Item_in_optimizer20get_cache_parametersER4ListI4ItemE@Base 10.11.8
 _ZN17Item_in_optimizer22is_expensive_processorEPv@Base 10.11.8
 _ZN17Item_in_optimizer22restore_first_argumentEv@Base 10.11.8
 _ZN17Item_in_optimizer29expr_cache_insert_transformerEP3THDPh@Base 10.11.8
 _ZN17Item_in_optimizer4walkEM4ItemFbPvEbS1_@Base 10.11.8
 _ZN17Item_in_optimizer5printEP6String15enum_query_type@Base 10.11.8
 _ZN17Item_in_optimizer7cleanupEv@Base 10.11.8
 _ZN17Item_in_optimizer7is_nullEv@Base 10.11.8
 _ZN17Item_in_optimizer7val_intEv@Base 10.11.8
 _ZN17Item_in_optimizer8fix_leftEP3THD@Base 10.11.8
 _ZN17Item_in_optimizer8get_copyEP3THD@Base 10.11.8
 _ZN17Item_in_optimizer9transformEP3THDM4ItemFPS2_S1_PhES4_@Base 10.11.8
 _ZN17Item_in_optimizerD0Ev@Base 10.11.8
 _ZN17Item_in_optimizerD1Ev@Base 10.11.8
 _ZN17Item_in_optimizerD2Ev@Base 10.11.8
 _ZN17Item_in_subselect10fix_fieldsEP3THDPP4Item@Base 10.11.8
 _ZN17Item_in_subselect10fix_havingEP4ItemP13st_select_lex@Base 10.11.8
 _ZN17Item_in_subselect10test_limitEP18st_select_lex_unit@Base 10.11.8
 _ZN17Item_in_subselect11val_decimalEP10my_decimal@Base 10.11.8
 _ZN17Item_in_subselect14get_identifierEv@Base 10.11.8
 _ZN17Item_in_subselect15get_IN_subqueryEv@Base 10.11.8
 _ZN17Item_in_subselect16init_cond_guardsEv@Base 10.11.8
 _ZN17Item_in_subselect16setup_mat_engineEv@Base 10.11.8
 _ZN17Item_in_subselect17fix_after_pulloutEP13st_select_lexPP4Itemb@Base 10.11.8
 _ZN17Item_in_subselect18fix_length_and_decEv@Base 10.11.8
 _ZN17Item_in_subselect18have_guarded_condsEv@Base 10.11.8
 _ZN17Item_in_subselect18select_transformerEP4JOIN@Base 10.11.8
 _ZN17Item_in_subselect18update_used_tablesEv@Base 10.11.8
 _ZN17Item_in_subselect19exists2in_processorEPv@Base 10.11.8
 _ZN17Item_in_subselect20expr_cache_is_neededEP3THD@Base 10.11.8
 _ZN17Item_in_subselect20init_left_expr_cacheEv@Base 10.11.8
 _ZN17Item_in_subselect21row_value_transformerEP4JOIN@Base 10.11.8
 _ZN17Item_in_subselect24create_in_to_exists_condEP4JOIN@Base 10.11.8
 _ZN17Item_in_subselect24inject_in_to_exists_condEP4JOIN@Base 10.11.8
 _ZN17Item_in_subselect24single_value_transformerEP4JOIN@Base 10.11.8
 _ZN17Item_in_subselect26select_in_like_transformerEP4JOIN@Base 10.11.8
 _ZN17Item_in_subselect28create_row_in_to_exists_condEP4JOINPP4ItemS4_@Base 10.11.8
 _ZN17Item_in_subselect29pushdown_cond_for_in_subqueryEP3THDP4Item@Base 10.11.8
 _ZN17Item_in_subselect31create_single_in_to_exists_condEP4JOINPP4ItemS4_@Base 10.11.8
 _ZN17Item_in_subselect43disable_cond_guard_for_const_null_left_exprEi@Base 10.11.8
 _ZN17Item_in_subselect4execEv@Base 10.11.8
 _ZN17Item_in_subselect4walkEM4ItemFbPvEbS1_@Base 10.11.8
 _ZN17Item_in_subselect5printEP6String15enum_query_type@Base 10.11.8
 _ZN17Item_in_subselect5resetEv@Base 10.11.8
 _ZN17Item_in_subselect7cleanupEv@Base 10.11.8
 _ZN17Item_in_subselect7val_intEv@Base 10.11.8
 _ZN17Item_in_subselect7val_strEP6String@Base 10.11.8
 _ZN17Item_in_subselect8optimizeEPdS0_@Base 10.11.8
 _ZN17Item_in_subselect8substypeEv@Base 10.11.8
 _ZN17Item_in_subselect8val_boolEv@Base 10.11.8
 _ZN17Item_in_subselect8val_realEv@Base 10.11.8
 _ZN17Item_in_subselectC1EP3THDP4ItemP13st_select_lex@Base 10.11.8
 _ZN17Item_in_subselectC2EP3THDP4ItemP13st_select_lex@Base 10.11.8
 _ZN17Item_in_subselectD0Ev@Base 10.11.8
 _ZN17Item_in_subselectD1Ev@Base 10.11.8
 _ZN17Item_in_subselectD2Ev@Base 10.11.8
 _ZN17Item_insert_value10fix_fieldsEP3THDPP4Item@Base 10.11.8
 _ZN17Item_insert_value13save_in_fieldEP5Fieldb@Base 10.11.8
 _ZN17Item_insert_value21field_for_view_updateEv@Base 10.11.8
 _ZN17Item_insert_value21update_vcol_processorEPv@Base 10.11.8
 _ZN17Item_insert_value25check_vcol_func_processorEPv@Base 10.11.8
 _ZN17Item_insert_value30check_partition_func_processorEPv@Base 10.11.8
 _ZN17Item_insert_value4walkEM4ItemFbPvEbS1_@Base 10.11.8
 _ZN17Item_insert_value5printEP6String15enum_query_type@Base 10.11.8
 _ZN17Item_insert_valueD0Ev@Base 10.11.8
 _ZN17Item_insert_valueD1Ev@Base 10.11.8
 _ZN17Item_insert_valueD2Ev@Base 10.11.8
 _ZN17Item_int_with_ref10clone_itemEP3THD@Base 10.11.8
 _ZN17Item_int_with_ref13save_in_fieldEP5Fieldb@Base 10.11.8
 _ZN17Item_int_with_ref9real_itemEv@Base 10.11.8
 _ZN17Item_int_with_refD0Ev@Base 10.11.8
 _ZN17Item_int_with_refD1Ev@Base 10.11.8
 _ZN17Item_int_with_refD2Ev@Base 10.11.8
 _ZN17Item_iterator_row4nextEv@Base 10.11.8
 _ZN17Item_iterator_row4openEv@Base 10.11.8
 _ZN17Item_iterator_row5closeEv@Base 10.11.8
 _ZN17Item_iterator_rowD0Ev@Base 10.11.8
 _ZN17Item_iterator_rowD1Ev@Base 10.11.8
 _ZN17Item_iterator_rowD2Ev@Base 10.11.8
 _ZN17Item_nodeset_func18fix_length_and_decEP3THD@Base 10.11.8
 _ZN17Item_nodeset_func19create_tmp_field_exEP11st_mem_rootP5TABLEP13Tmp_field_srcPK15Tmp_field_param@Base 10.11.8
 _ZN17Item_nodeset_func25check_vcol_func_processorEPv@Base 10.11.8
 _ZN17Item_nodeset_func7val_strEP6String@Base 10.11.8
 _ZN17Item_nodeset_funcC1EP3THDP4ItemP6String@Base 10.11.8
 _ZN17Item_nodeset_funcC1EP3THDP4ItemS3_P6String@Base 10.11.8
 _ZN17Item_nodeset_funcC2EP3THDP4ItemP6String@Base 10.11.8
 _ZN17Item_nodeset_funcC2EP3THDP4ItemS3_P6String@Base 10.11.8
 _ZN17Item_result_field17get_tmp_field_srcEP13Tmp_field_srcPK15Tmp_field_param@Base 10.11.8
 _ZN17Item_result_field32create_tmp_field_ex_from_handlerEP11st_mem_rootP5TABLEP13Tmp_field_srcPK15Tmp_field_paramPK12Type_handler@Base 10.11.8
 _ZN17Item_result_field7cleanupEv@Base 10.11.8
 _ZN17Item_string_asciiD0Ev@Base 10.11.8
 _ZN17Item_string_asciiD1Ev@Base 10.11.8
 _ZN17Item_string_asciiD2Ev@Base 10.11.8
 _ZN17Item_sum_variance11reset_fieldEv@Base 10.11.8
 _ZN17Item_sum_variance11result_itemEP3THDP5Field@Base 10.11.8
 _ZN17Item_sum_variance12copy_or_sameEP3THD@Base 10.11.8
 _ZN17Item_sum_variance12update_fieldEv@Base 10.11.8
 _ZN17Item_sum_variance16create_tmp_fieldEP11st_mem_rootbP5TABLE@Base 10.11.8
 _ZN17Item_sum_variance17no_rows_in_resultEv@Base 10.11.8
 _ZN17Item_sum_variance18fix_length_and_decEP3THD@Base 10.11.8
 _ZN17Item_sum_variance25fix_length_and_dec_doubleEv@Base 10.11.8
 _ZN17Item_sum_variance26fix_length_and_dec_decimalEv@Base 10.11.8
 _ZN17Item_sum_variance3addEv@Base 10.11.8
 _ZN17Item_sum_variance5clearEv@Base 10.11.8
 _ZN17Item_sum_variance7cleanupEv@Base 10.11.8
 _ZN17Item_sum_variance8get_copyEP3THD@Base 10.11.8
 _ZN17Item_sum_variance8val_realEv@Base 10.11.8
 _ZN17Item_sum_varianceC1EP3THDPS_@Base 10.11.8
 _ZN17Item_sum_varianceC2EP3THDPS_@Base 10.11.8
 _ZN17Item_sum_varianceD0Ev@Base 10.11.8
 _ZN17Item_sum_varianceD1Ev@Base 10.11.8
 _ZN17Item_sum_varianceD2Ev@Base 10.11.8
 _ZN17Item_time_literal10clone_itemEP3THD@Base 10.11.8
 _ZN17Item_time_literal10val_nativeEP3THDP6Native@Base 10.11.8
 _ZN17Item_time_literal11val_decimalEP10my_decimal@Base 10.11.8
 _ZN17Item_time_literal15val_time_packedEP3THD@Base 10.11.8
 _ZN17Item_time_literal5printEP6String15enum_query_type@Base 10.11.8
 _ZN17Item_time_literal7val_intEv@Base 10.11.8
 _ZN17Item_time_literal7val_strEP6String@Base 10.11.8
 _ZN17Item_time_literal8get_copyEP3THD@Base 10.11.8
 _ZN17Item_time_literal8get_dateEP3THDP13st_mysql_time11date_mode_t@Base 10.11.8
 _ZN17Item_time_literal8val_realEv@Base 10.11.8
 _ZN17Item_time_literalD0Ev@Base 10.11.8
 _ZN17Item_time_literalD1Ev@Base 10.11.8
 _ZN17Item_time_literalD2Ev@Base 10.11.8
 _ZN17Item_xml_str_func10fix_fieldsEP3THDPP4Item@Base 10.11.8
 _ZN17Item_xml_str_func18fix_length_and_decEP3THD@Base 10.11.8
 _ZN17Item_xml_str_func3XML4nodeEj@Base 10.11.8
 _ZN17Item_xml_str_func3XML5parseEP6Stringb@Base 10.11.8
 _ZN17Item_xml_str_func3XML5parseEv@Base 10.11.8
 _ZN17JOIN_CACHE_HASHED10get_recordEv@Base 10.11.8
 _ZN17JOIN_CACHE_HASHED10key_searchEPhjPS0_@Base 10.11.8
 _ZN17JOIN_CACHE_HASHED10put_recordEv@Base 10.11.8
 _ZN17JOIN_CACHE_HASHED12get_next_keyEPPh@Base 10.11.8
 _ZN17JOIN_CACHE_HASHED14realloc_bufferEv@Base 10.11.8
 _ZN17JOIN_CACHE_HASHED15init_hash_tableEv@Base 10.11.8
 _ZN17JOIN_CACHE_HASHED15skip_if_matchedEv@Base 10.11.8
 _ZN17JOIN_CACHE_HASHED16extra_key_lengthEv@Base 10.11.8
 _ZN17JOIN_CACHE_HASHED17equal_keys_simpleEPhS0_j@Base 10.11.8
 _ZN17JOIN_CACHE_HASHED17get_prefix_lengthEv@Base 10.11.8
 _ZN17JOIN_CACHE_HASHED18cleanup_hash_tableEv@Base 10.11.8
 _ZN17JOIN_CACHE_HASHED18equal_keys_complexEPhS0_j@Base 10.11.8
 _ZN17JOIN_CACHE_HASHED19get_hash_idx_simpleEPhj@Base 10.11.8
 _ZN17JOIN_CACHE_HASHED20get_hash_idx_complexEPhj@Base 10.11.8
 _ZN17JOIN_CACHE_HASHED24skip_if_not_needed_matchEv@Base 10.11.8
 _ZN17JOIN_CACHE_HASHED29check_all_match_flags_for_keyEPh@Base 10.11.8
 _ZN17JOIN_CACHE_HASHED34get_max_key_addon_space_per_recordEv@Base 10.11.8
 _ZN17JOIN_CACHE_HASHED4initEb@Base 10.11.8
 _ZN17JOIN_CACHE_HASHED5resetEb@Base 10.11.8
 _ZN17JOIN_CACHE_HASHED9rem_spaceEv@Base 10.11.8
 _ZN17JOIN_TAB_SCAN_MRR13init_mrr_buffEv@Base 10.11.8
 _ZN17JOIN_TAB_SCAN_MRR15aux_buffer_incrEm@Base 10.11.8
 _ZN17JOIN_TAB_SCAN_MRR4nextEv@Base 10.11.8
 _ZN17JOIN_TAB_SCAN_MRR4openEv@Base 10.11.8
 _ZN17JOIN_TAB_SCAN_MRRD0Ev@Base 10.11.8
 _ZN17JOIN_TAB_SCAN_MRRD1Ev@Base 10.11.8
 _ZN17JOIN_TAB_SCAN_MRRD2Ev@Base 10.11.8
 _ZN17Json_table_column11On_response7respondEPS_P5Fieldj@Base 10.11.8
 _ZN17Json_table_column3setEP3THDNS_9enum_typeERK25st_mysql_const_lex_stringPK15charset_info_st@Base 10.11.8
 _ZN17Json_table_column3setEP3THDNS_9enum_typeERK25st_mysql_const_lex_stringRK45Lex_exact_charset_extended_collation_attrs_st@Base 10.11.8
 _ZN17Json_table_column5printEP3THDPP5FieldP6String@Base 10.11.8
 _ZN17Json_writer_arrayC1EP11Json_writerPKc@Base 10.11.8
 _ZN17Json_writer_arrayC2EP11Json_writerPKc@Base 10.11.8
 _ZN17Json_writer_arrayD0Ev@Base 10.11.8
 _ZN17Json_writer_arrayD1Ev@Base 10.11.8
 _ZN17Json_writer_arrayD2Ev@Base 10.11.8
 _ZN17Lex_field_type_st24set_handler_length_flagsEPK12Type_handlerRK21Lex_length_and_dec_stj@Base 10.11.8
 _ZN17Lex_prepared_stmt22get_dynamic_sql_stringEP3THDP25st_mysql_const_lex_stringP6String@Base 10.11.8
 _ZN17Opt_trace_context10flag_namesE@Base 10.11.8
 _ZN17Opt_trace_context10is_enabledEv@Base 10.11.8
 _ZN17Opt_trace_context13delete_tracesEv@Base 10.11.8
 _ZN17Opt_trace_context17missing_privilegeEv@Base 10.11.8
 _ZN17Opt_trace_context18remaining_mem_sizeEv@Base 10.11.8
 _ZN17Opt_trace_context20set_allowed_mem_sizeEm@Base 10.11.8
 _ZN17Opt_trace_context26enable_tracing_if_requiredEv@Base 10.11.8
 _ZN17Opt_trace_context27disable_tracing_if_requiredEv@Base 10.11.8
 _ZN17Opt_trace_context3endEv@Base 10.11.8
 _ZN17Opt_trace_context5startEP3THDP10TABLE_LIST16enum_sql_commandPKcmPK15charset_info_stm@Base 10.11.8
 _ZN17Opt_trace_context9set_queryEPKcmPK15charset_info_st@Base 10.11.8
 _ZN17Opt_trace_contextC1Ev@Base 10.11.8
 _ZN17Opt_trace_contextC2Ev@Base 10.11.8
 _ZN17Opt_trace_contextD1Ev@Base 10.11.8
 _ZN17Opt_trace_contextD2Ev@Base 10.11.8
 _ZN17Proc_table_intact12report_errorEjPKcz@Base 10.11.8
 _ZN17Proc_table_intactD0Ev@Base 10.11.8
 _ZN17Proc_table_intactD1Ev@Base 10.11.8
 _ZN17Proc_table_intactD2Ev@Base 10.11.8
 _ZN17QUICK_SELECT_DESC12make_reverseEj@Base 10.11.8
 _ZN17QUICK_SELECT_DESC14reverse_sortedEv@Base 10.11.8
 _ZN17QUICK_SELECT_DESC21range_reads_after_keyEP11QUICK_RANGE@Base 10.11.8
 _ZN17QUICK_SELECT_DESC5cloneEPb@Base 10.11.8
 _ZN17QUICK_SELECT_DESC5resetEv@Base 10.11.8
 _ZN17QUICK_SELECT_DESC8get_nextEv@Base 10.11.8
 _ZN17QUICK_SELECT_DESC8get_typeEv@Base 10.11.8
 _ZN17QUICK_SELECT_DESCC1EP18QUICK_RANGE_SELECTj@Base 10.11.8
 _ZN17QUICK_SELECT_DESCC2EP18QUICK_RANGE_SELECTj@Base 10.11.8
 _ZN17QUICK_SELECT_DESCD0Ev@Base 10.11.8
 _ZN17QUICK_SELECT_DESCD1Ev@Base 10.11.8
 _ZN17QUICK_SELECT_DESCD2Ev@Base 10.11.8
 _ZN17Query_cache_block11headers_lenEv@Base 10.11.8
 _ZN17Query_cache_block4dataEv@Base 10.11.8
 _ZN17Query_cache_block4initEm@Base 10.11.8
 _ZN17Query_cache_block5queryEv@Base 10.11.8
 _ZN17Query_cache_block5tableEj@Base 10.11.8
 _ZN17Query_cache_block5tableEv@Base 10.11.8
 _ZN17Query_cache_block6resultEv@Base 10.11.8
 _ZN17Query_cache_block7destroyEv@Base 10.11.8
 _ZN17Query_cache_query16try_lock_writingEv@Base 10.11.8
 _ZN17Query_cache_query16unlock_n_destroyEv@Base 10.11.8
 _ZN17Query_tables_list23reset_query_tables_listEb@Base 10.11.8
 _ZN17Query_tables_list25destroy_query_tables_listEv@Base 10.11.8
 _ZN17Query_tables_list26binlog_stmt_unsafe_errcodeE@Base 10.11.8
 _ZN17Querycache_stream10load_shortEv@Base 10.11.8
 _ZN17Querycache_stream10load_ucharEv@Base 10.11.8
 _ZN17Querycache_stream11load_columnEP11st_mem_rootPPc@Base 10.11.8
 _ZN17Querycache_stream11store_shortEt@Base 10.11.8
 _ZN17Querycache_stream11store_ucharEh@Base 10.11.8
 _ZN17Querycache_stream13load_safe_strEP11st_mem_rootPPcPj@Base 10.11.8
 _ZN17Querycache_stream13load_str_onlyEPcj@Base 10.11.8
 _ZN17Querycache_stream14store_safe_strEPKcj@Base 10.11.8
 _ZN17Querycache_stream14store_str_onlyEPKcj@Base 10.11.8
 _ZN17Querycache_stream7load_llEv@Base 10.11.8
 _ZN17Querycache_stream8load_intEv@Base 10.11.8
 _ZN17Querycache_stream8load_strEP11st_mem_rootPj@Base 10.11.8
 _ZN17Querycache_stream8store_llEy@Base 10.11.8
 _ZN17Querycache_stream9store_intEj@Base 10.11.8
 _ZN17Querycache_stream9store_strEPKcj@Base 10.11.8
 _ZN17Sys_var_lexstring13global_updateEP3THDP7set_var@Base 10.11.8
 _ZN17Sys_var_lexstringC1EPKcS1_ilm8CMD_LINES1_P8PolyLockN7sys_var18binlog_status_enumEPFbPS5_P3THDP7set_varEPFbS7_S9_13enum_var_typeES1_@Base 10.11.8
 _ZN17Sys_var_lexstringC2EPKcS1_ilm8CMD_LINES1_P8PolyLockN7sys_var18binlog_status_enumEPFbPS5_P3THDP7set_varEPFbS7_S9_13enum_var_typeES1_@Base 10.11.8
 _ZN17Sys_var_lexstringD0Ev@Base 10.11.8
 _ZN17Sys_var_lexstringD1Ev@Base 10.11.8
 _ZN17Sys_var_lexstringD2Ev@Base 10.11.8
 _ZN17Sys_var_on_accessI12Sys_var_enumL11privilege_t68719509504ELS1_68719509504EED0Ev@Base 10.11.8
 _ZN17Sys_var_on_accessI12Sys_var_enumL11privilege_t68719509504ELS1_68719509504EED1Ev@Base 10.11.8
 _ZN17Sys_var_on_accessI12Sys_var_enumL11privilege_t68719509504ELS1_68719509504EED2Ev@Base 10.11.8
 _ZN17Sys_var_on_accessI14Sys_var_myboolL11privilege_t68719509504ELS1_68719509504EED0Ev@Base 10.11.8
 _ZN17Sys_var_on_accessI14Sys_var_myboolL11privilege_t68719509504ELS1_68719509504EED1Ev@Base 10.11.8
 _ZN17Sys_var_on_accessI14Sys_var_myboolL11privilege_t68719509504ELS1_68719509504EED2Ev@Base 10.11.8
 _ZN17Sys_var_on_accessI15Sys_var_integerIjLm4EL20enum_mysql_show_type2EEL11privilege_t34359771136ELS3_137438986240EED0Ev@Base 10.11.8
 _ZN17Sys_var_on_accessI15Sys_var_integerIjLm4EL20enum_mysql_show_type2EEL11privilege_t34359771136ELS3_137438986240EED1Ev@Base 10.11.8
 _ZN17Sys_var_on_accessI15Sys_var_integerIjLm4EL20enum_mysql_show_type2EEL11privilege_t34359771136ELS3_137438986240EED2Ev@Base 10.11.8
 _ZN17Sys_var_on_accessI15Sys_var_integerImLm6EL20enum_mysql_show_type3EEL11privilege_t34359771136ELS3_137438986240EED0Ev@Base 10.11.8
 _ZN17Sys_var_on_accessI15Sys_var_integerImLm6EL20enum_mysql_show_type3EEL11privilege_t34359771136ELS3_137438986240EED1Ev@Base 10.11.8
 _ZN17Sys_var_on_accessI15Sys_var_integerImLm6EL20enum_mysql_show_type3EEL11privilege_t34359771136ELS3_137438986240EED2Ev@Base 10.11.8
 _ZN17Sys_var_timestamp13global_updateEP3THDP7set_var@Base 10.11.8
 _ZN17Sys_var_timestamp14session_updateEP3THDP7set_var@Base 10.11.8
 _ZN17Sys_var_timestamp18session_is_defaultEP3THD@Base 10.11.8
 _ZN17Sys_var_timestamp19global_save_defaultEP3THDP7set_var@Base 10.11.8
 _ZN17Sys_var_timestamp20session_save_defaultEP3THDP7set_var@Base 10.11.8
 _ZN17Sys_var_timestampC1EPKcS1_i8CMD_LINEddP8PolyLockN7sys_var18binlog_status_enumEPFbPS5_P3THDP7set_varE@Base 10.11.8
 _ZN17Sys_var_timestampC2EPKcS1_i8CMD_LINEddP8PolyLockN7sys_var18binlog_status_enumEPFbPS5_P3THDP7set_varE@Base 10.11.8
 _ZN17Sys_var_timestampD0Ev@Base 10.11.8
 _ZN17Sys_var_timestampD1Ev@Base 10.11.8
 _ZN17Sys_var_timestampD2Ev@Base 10.11.8
 _ZN17Sys_var_vers_asof13global_updateEP3THDP7set_var@Base 10.11.8
 _ZN17Sys_var_vers_asof14session_updateEP3THDP7set_var@Base 10.11.8
 _ZN17Sys_var_vers_asof18session_is_defaultEP3THD@Base 10.11.8
 _ZN17Sys_var_vers_asof19global_save_defaultEP3THDP7set_var@Base 10.11.8
 _ZN17Sys_var_vers_asof20session_save_defaultEP3THDP7set_var@Base 10.11.8
 _ZN17Sys_var_vers_asof8do_checkEP3THDP7set_var@Base 10.11.8
 _ZN17Sys_var_vers_asofD0Ev@Base 10.11.8
 _ZN17Sys_var_vers_asofD1Ev@Base 10.11.8
 _ZN17Sys_var_vers_asofD2Ev@Base 10.11.8
 _ZN17THD_list_iterator8iteratorEv@Base 10.11.8
 _ZN17TRP_GROUP_MIN_MAX10make_quickEP5PARAMbP11st_mem_root@Base 10.11.8
 _ZN17TRP_GROUP_MIN_MAXD0Ev@Base 10.11.8
 _ZN17TRP_GROUP_MIN_MAXD1Ev@Base 10.11.8
 _ZN17TRP_GROUP_MIN_MAXD2Ev@Base 10.11.8
 _ZN17TRP_ROR_INTERSECT10make_quickEP5PARAMbP11st_mem_root@Base 10.11.8
 _ZN17TRP_ROR_INTERSECTD0Ev@Base 10.11.8
 _ZN17TRP_ROR_INTERSECTD1Ev@Base 10.11.8
 _ZN17TRP_ROR_INTERSECTD2Ev@Base 10.11.8
 _ZN17Table_read_cursor5fetchEv@Base 10.11.8
 _ZN17Table_read_cursorD0Ev@Base 10.11.8
 _ZN17Table_read_cursorD1Ev@Base 10.11.8
 _ZN17Table_read_cursorD2Ev@Base 10.11.8
 _ZN17Type_handler_blobD0Ev@Base 10.11.8
 _ZN17Type_handler_blobD1Ev@Base 10.11.8
 _ZN17Type_handler_blobD2Ev@Base 10.11.8
 _ZN17Type_handler_boolD0Ev@Base 10.11.8
 _ZN17Type_handler_boolD1Ev@Base 10.11.8
 _ZN17Type_handler_boolD2Ev@Base 10.11.8
 _ZN17Type_handler_data4initEv@Base 10.11.8
 _ZN17Type_handler_dateD0Ev@Base 10.11.8
 _ZN17Type_handler_dateD1Ev@Base 10.11.8
 _ZN17Type_handler_dateD2Ev@Base 10.11.8
 _ZN17Type_handler_enumD0Ev@Base 10.11.8
 _ZN17Type_handler_enumD1Ev@Base 10.11.8
 _ZN17Type_handler_enumD2Ev@Base 10.11.8
 _ZN17Type_handler_longD0Ev@Base 10.11.8
 _ZN17Type_handler_longD1Ev@Base 10.11.8
 _ZN17Type_handler_longD2Ev@Base 10.11.8
 _ZN17Type_handler_nullD0Ev@Base 10.11.8
 _ZN17Type_handler_nullD1Ev@Base 10.11.8
 _ZN17Type_handler_nullD2Ev@Base 10.11.8
 _ZN17Type_handler_time13m_hires_bytesE@Base 10.11.8
 _ZN17Type_handler_timeD0Ev@Base 10.11.8
 _ZN17Type_handler_timeD1Ev@Base 10.11.8
 _ZN17Type_handler_timeD2Ev@Base 10.11.8
 _ZN17Type_handler_tinyD0Ev@Base 10.11.8
 _ZN17Type_handler_tinyD1Ev@Base 10.11.8
 _ZN17Type_handler_tinyD2Ev@Base 10.11.8
 _ZN17Type_handler_yearD0Ev@Base 10.11.8
 _ZN17Type_handler_yearD1Ev@Base 10.11.8
 _ZN17Type_handler_yearD2Ev@Base 10.11.8
 _ZN17Vcol_expr_context4initEv@Base 10.11.8
 _ZN17Vcol_expr_contextD1Ev@Base 10.11.8
 _ZN17Vcol_expr_contextD2Ev@Base 10.11.8
 _ZN17View_creation_ctx6createEP3THD@Base 10.11.8
 _ZN17View_creation_ctx6createEP3THDP10TABLE_LIST@Base 10.11.8
 _ZN17View_creation_ctxD0Ev@Base 10.11.8
 _ZN17View_creation_ctxD1Ev@Base 10.11.8
 _ZN17View_creation_ctxD2Ev@Base 10.11.8
 _ZN17Virtual_tmp_table20setup_field_pointersEv@Base 10.11.8
 _ZN17Virtual_tmp_table27sp_set_all_fields_from_itemEP3THDP4Item@Base 10.11.8
 _ZN17Virtual_tmp_table32sp_set_all_fields_from_item_listEP3THDR4ListI4ItemE@Base 10.11.8
 _ZN17Virtual_tmp_table3addER4ListI16Spvar_definitionE@Base 10.11.8
 _ZN17Virtual_tmp_table4initEj@Base 10.11.8
 _ZN17Virtual_tmp_table4openEv@Base 10.11.8
 _ZN17Virtual_tmp_tablenwEmP3THD@Base 10.11.8
 _ZN17Window_funcs_sort4execEP4JOINb@Base 10.11.8
 _ZN17Window_funcs_sort5setupEP3THDP10SQL_SELECTR13List_iteratorI16Item_window_funcEP13st_join_table@Base 10.11.8
 _ZN17XID_cache_element19lf_alloc_destructorEPh@Base 10.11.8
 _ZN17XID_cache_element19lf_hash_initializerEP10st_lf_hashPS_P24XID_cache_insert_element@Base 10.11.8
 _ZN17XID_cache_element20lf_alloc_constructorEPh@Base 10.11.8
 _ZN17XID_cache_element3keyEPKS_Pmc@Base 10.11.8
 _ZN17cmp_item_datetime11store_valueEP4Item@Base 10.11.8
 _ZN17cmp_item_datetime12cmp_not_nullEPK5Value@Base 10.11.8
 _ZN17cmp_item_datetime3cmpEP4Item@Base 10.11.8
 _ZN17cmp_item_datetime9make_sameEP3THD@Base 10.11.8
 _ZN17cmp_item_datetimeD0Ev@Base 10.11.8
 _ZN17cmp_item_datetimeD1Ev@Base 10.11.8
 _ZN17cmp_item_datetimeD2Ev@Base 10.11.8
 _ZN17cmp_item_temporal7compareEP8cmp_item@Base 10.11.8
 _ZN17sp_assignment_lexD0Ev@Base 10.11.8
 _ZN17sp_assignment_lexD1Ev@Base 10.11.8
 _ZN17sp_assignment_lexD2Ev@Base 10.11.8
 _ZN17sys_var_pluginvar13global_updateEP3THDP7set_var@Base 10.11.8
 _ZN17sys_var_pluginvar14cast_pluginvarEv@Base 10.11.8
 _ZN17sys_var_pluginvar14session_updateEP3THDP7set_var@Base 10.11.8
 _ZN17sys_var_pluginvar18session_is_defaultEP3THD@Base 10.11.8
 _ZN17sys_var_pluginvar19global_save_defaultEP3THDP7set_var@Base 10.11.8
 _ZN17sys_var_pluginvar20session_save_defaultEP3THDP7set_var@Base 10.11.8
 _ZN17sys_var_pluginvar8do_checkEP3THDP7set_var@Base 10.11.8
 _ZN17sys_var_pluginvarC1EP13sys_var_chainPKcP13st_plugin_intP16st_mysql_sys_varS3_@Base 10.11.8
 _ZN17sys_var_pluginvarC2EP13sys_var_chainPKcP13st_plugin_intP16st_mysql_sys_varS3_@Base 10.11.8
 _ZN17sys_var_pluginvarD0Ev@Base 10.11.8
 _ZN17sys_var_pluginvarD1Ev@Base 10.11.8
 _ZN17sys_var_pluginvarD2Ev@Base 10.11.8
 _ZN18Alter_inplace_infoC1EP14HA_CREATE_INFOP10Alter_infoP6st_keyjP14partition_infobb@Base 10.11.8
 _ZN18Alter_inplace_infoC2EP14HA_CREATE_INFOP10Alter_infoP6st_keyjP14partition_infobb@Base 10.11.8
 _ZN18Create_func_as_wkb11s_singletonE@Base 10.11.8
 _ZN18Create_func_as_wkb12create_1_argEP3THDP4Item@Base 10.11.8
 _ZN18Create_func_as_wkbD0Ev@Base 10.11.8
 _ZN18Create_func_as_wkbD1Ev@Base 10.11.8
 _ZN18Create_func_as_wkbD2Ev@Base 10.11.8
 _ZN18Create_func_as_wkt11s_singletonE@Base 10.11.8
 _ZN18Create_func_as_wkt12create_1_argEP3THDP4Item@Base 10.11.8
 _ZN18Create_func_as_wktD0Ev@Base 10.11.8
 _ZN18Create_func_as_wktD1Ev@Base 10.11.8
 _ZN18Create_func_as_wktD2Ev@Base 10.11.8
 _ZN18Create_func_buffer11s_singletonE@Base 10.11.8
 _ZN18Create_func_buffer12create_2_argEP3THDP4ItemS3_@Base 10.11.8
 _ZN18Create_func_bufferD0Ev@Base 10.11.8
 _ZN18Create_func_bufferD1Ev@Base 10.11.8
 _ZN18Create_func_bufferD2Ev@Base 10.11.8
 _ZN18Create_func_concat11s_singletonE@Base 10.11.8
 _ZN18Create_func_concat13create_nativeEP3THDPK25st_mysql_const_lex_stringP4ListI4ItemE@Base 10.11.8
 _ZN18Create_func_concatD0Ev@Base 10.11.8
 _ZN18Create_func_concatD1Ev@Base 10.11.8
 _ZN18Create_func_concatD2Ev@Base 10.11.8
 _ZN18Create_func_crc32c11s_singletonE@Base 10.11.8
 _ZN18Create_func_crc32c13create_nativeEP3THDPK25st_mysql_const_lex_stringP4ListI4ItemE@Base 10.11.8
 _ZN18Create_func_crc32cD0Ev@Base 10.11.8
 _ZN18Create_func_crc32cD1Ev@Base 10.11.8
 _ZN18Create_func_crc32cD2Ev@Base 10.11.8
 _ZN18Create_func_decode11s_singletonE@Base 10.11.8
 _ZN18Create_func_decode13create_nativeEP3THDPK25st_mysql_const_lex_stringP4ListI4ItemE@Base 10.11.8
 _ZN18Create_func_decodeD0Ev@Base 10.11.8
 _ZN18Create_func_decodeD1Ev@Base 10.11.8
 _ZN18Create_func_decodeD2Ev@Base 10.11.8
 _ZN18Create_func_encode11s_singletonE@Base 10.11.8
 _ZN18Create_func_encode12create_2_argEP3THDP4ItemS3_@Base 10.11.8
 _ZN18Create_func_encodeD0Ev@Base 10.11.8
 _ZN18Create_func_encodeD1Ev@Base 10.11.8
 _ZN18Create_func_encodeD2Ev@Base 10.11.8
 _ZN18Create_func_equals11s_singletonE@Base 10.11.8
 _ZN18Create_func_equals12create_2_argEP3THDP4ItemS3_@Base 10.11.8
 _ZN18Create_func_equalsD0Ev@Base 10.11.8
 _ZN18Create_func_equalsD1Ev@Base 10.11.8
 _ZN18Create_func_equalsD2Ev@Base 10.11.8
 _ZN18Create_func_format11s_singletonE@Base 10.11.8
 _ZN18Create_func_format13create_nativeEP3THDPK25st_mysql_const_lex_stringP4ListI4ItemE@Base 10.11.8
 _ZN18Create_func_formatD0Ev@Base 10.11.8
 _ZN18Create_func_formatD1Ev@Base 10.11.8
 _ZN18Create_func_formatD2Ev@Base 10.11.8
 _ZN18Create_func_ifnull11s_singletonE@Base 10.11.8
 _ZN18Create_func_ifnull12create_2_argEP3THDP4ItemS3_@Base 10.11.8
 _ZN18Create_func_ifnullD0Ev@Base 10.11.8
 _ZN18Create_func_ifnullD1Ev@Base 10.11.8
 _ZN18Create_func_ifnullD2Ev@Base 10.11.8
 _ZN18Create_func_isnull11s_singletonE@Base 10.11.8
 _ZN18Create_func_isnull12create_1_argEP3THDP4Item@Base 10.11.8
 _ZN18Create_func_isnullD0Ev@Base 10.11.8
 _ZN18Create_func_isnullD1Ev@Base 10.11.8
 _ZN18Create_func_isnullD2Ev@Base 10.11.8
 _ZN18Create_func_isring11s_singletonE@Base 10.11.8
 _ZN18Create_func_isring12create_1_argEP3THDP4Item@Base 10.11.8
 _ZN18Create_func_isringD0Ev@Base 10.11.8
 _ZN18Create_func_isringD1Ev@Base 10.11.8
 _ZN18Create_func_isringD2Ev@Base 10.11.8
 _ZN18Create_func_length11s_singletonE@Base 10.11.8
 _ZN18Create_func_length12create_1_argEP3THDP4Item@Base 10.11.8
 _ZN18Create_func_lengthD0Ev@Base 10.11.8
 _ZN18Create_func_lengthD1Ev@Base 10.11.8
 _ZN18Create_func_lengthD2Ev@Base 10.11.8
 _ZN18Create_func_locate11s_singletonE@Base 10.11.8
 _ZN18Create_func_locate13create_nativeEP3THDPK25st_mysql_const_lex_stringP4ListI4ItemE@Base 10.11.8
 _ZN18Create_func_locateD0Ev@Base 10.11.8
 _ZN18Create_func_locateD1Ev@Base 10.11.8
 _ZN18Create_func_locateD2Ev@Base 10.11.8
 _ZN18Create_func_nullif11s_singletonE@Base 10.11.8
 _ZN18Create_func_nullif12create_2_argEP3THDP4ItemS3_@Base 10.11.8
 _ZN18Create_func_nullifD0Ev@Base 10.11.8
 _ZN18Create_func_nullifD1Ev@Base 10.11.8
 _ZN18Create_func_nullifD2Ev@Base 10.11.8
 _ZN18Create_func_pointn11s_singletonE@Base 10.11.8
 _ZN18Create_func_pointn12create_2_argEP3THDP4ItemS3_@Base 10.11.8
 _ZN18Create_func_pointnD0Ev@Base 10.11.8
 _ZN18Create_func_pointnD1Ev@Base 10.11.8
 _ZN18Create_func_pointnD2Ev@Base 10.11.8
 _ZN18Create_func_relate11s_singletonE@Base 10.11.8
 _ZN18Create_func_relate12create_3_argEP3THDP4ItemS3_S3_@Base 10.11.8
 _ZN18Create_func_relateD0Ev@Base 10.11.8
 _ZN18Create_func_relateD1Ev@Base 10.11.8
 _ZN18Create_func_relateD2Ev@Base 10.11.8
 _ZN18Create_func_strcmp11s_singletonE@Base 10.11.8
 _ZN18Create_func_strcmp12create_2_argEP3THDP4ItemS3_@Base 10.11.8
 _ZN18Create_func_strcmpD0Ev@Base 10.11.8
 _ZN18Create_func_strcmpD1Ev@Base 10.11.8
 _ZN18Create_func_strcmpD2Ev@Base 10.11.8
 _ZN18Create_func_within11s_singletonE@Base 10.11.8
 _ZN18Create_func_within12create_2_argEP3THDP4ItemS3_@Base 10.11.8
 _ZN18Create_func_withinD0Ev@Base 10.11.8
 _ZN18Create_func_withinD1Ev@Base 10.11.8
 _ZN18Create_func_withinD2Ev@Base 10.11.8
 _ZN18Create_native_func11create_funcEP3THDPK25st_mysql_const_lex_stringP4ListI4ItemE@Base 10.11.8
 _ZN18Explain_basic_join13get_select_idEv@Base 10.11.8
 _ZN18Explain_basic_join13print_explainEP13Explain_queryP18select_result_sinkhb@Base 10.11.8
 _ZN18Explain_basic_join18print_explain_jsonEP13Explain_queryP11Json_writerb@Base 10.11.8
 _ZN18Explain_basic_join26print_explain_json_internsEP13Explain_queryP11Json_writerb@Base 10.11.8
 _ZN18Explain_basic_join8get_typeEv@Base 10.11.8
 _ZN18Explain_basic_join9add_tableEP20Explain_table_accessP13Explain_query@Base 10.11.8
 _ZN18Explain_basic_joinD0Ev@Base 10.11.8
 _ZN18Explain_basic_joinD1Ev@Base 10.11.8
 _ZN18Explain_basic_joinD2Ev@Base 10.11.8
 _ZN18Incident_log_event13get_data_sizeEv@Base 10.11.8
 _ZN18Incident_log_event13get_type_codeEv@Base 10.11.8
 _ZN18Incident_log_event15write_data_bodyEv@Base 10.11.8
 _ZN18Incident_log_event17write_data_headerEv@Base 10.11.8
 _ZN18Incident_log_event9pack_infoEP8Protocol@Base 10.11.8
 _ZN18Incident_log_eventC1EPKhjPK28Format_description_log_event@Base 10.11.8
 _ZN18Incident_log_eventC2EPKhjPK28Format_description_log_event@Base 10.11.8
 _ZN18Incident_log_eventD0Ev@Base 10.11.8
 _ZN18Incident_log_eventD1Ev@Base 10.11.8
 _ZN18Incident_log_eventD2Ev@Base 10.11.8
 _ZN18Interruptible_wait20m_interrupt_intervalE@Base 10.11.8
 _ZN18Interruptible_wait4waitEP13st_mysql_condP14st_mysql_mutex@Base 10.11.8
 _ZN18Item_aggregate_ref5printEP6String15enum_query_type@Base 10.11.8
 _ZN18Item_aggregate_ref8ref_typeEv@Base 10.11.8
 _ZN18Item_aggregate_refD0Ev@Base 10.11.8
 _ZN18Item_aggregate_refD1Ev@Base 10.11.8
 _ZN18Item_aggregate_refD2Ev@Base 10.11.8
 _ZN18Item_cache_decimal11cache_valueEv@Base 10.11.8
 _ZN18Item_cache_decimal11val_decimalEP10my_decimal@Base 10.11.8
 _ZN18Item_cache_decimal27convert_to_basic_const_itemEP3THD@Base 10.11.8
 _ZN18Item_cache_decimal7val_intEv@Base 10.11.8
 _ZN18Item_cache_decimal7val_strEP6String@Base 10.11.8
 _ZN18Item_cache_decimal8get_copyEP3THD@Base 10.11.8
 _ZN18Item_cache_decimal8get_dateEP3THDP13st_mysql_time11date_mode_t@Base 10.11.8
 _ZN18Item_cache_decimal8val_realEv@Base 10.11.8
 _ZN18Item_cache_decimalD0Ev@Base 10.11.8
 _ZN18Item_cache_decimalD1Ev@Base 10.11.8
 _ZN18Item_cache_decimalD2Ev@Base 10.11.8
 _ZN18Item_cache_wrapper10check_colsEj@Base 10.11.8
 _ZN18Item_cache_wrapper10fix_fieldsEP3THDPP4Item@Base 10.11.8
 _ZN18Item_cache_wrapper10val_nativeEP3THDP6Native@Base 10.11.8
 _ZN18Item_cache_wrapper11bring_valueEv@Base 10.11.8
 _ZN18Item_cache_wrapper11build_cloneEP3THD@Base 10.11.8
 _ZN18Item_cache_wrapper11check_cacheEv@Base 10.11.8
 _ZN18Item_cache_wrapper11null_insideEv@Base 10.11.8
 _ZN18Item_cache_wrapper11val_decimalEP10my_decimal@Base 10.11.8
 _ZN18Item_cache_wrapper12init_trackerEP11st_mem_root@Base 10.11.8
 _ZN18Item_cache_wrapper12is_expensiveEv@Base 10.11.8
 _ZN18Item_cache_wrapper13element_indexEj@Base 10.11.8
 _ZN18Item_cache_wrapper13save_in_fieldEP5Fieldb@Base 10.11.8
 _ZN18Item_cache_wrapper14init_on_demandEv@Base 10.11.8
 _ZN18Item_cache_wrapper15make_send_fieldEP3THDP10Send_field@Base 10.11.8
 _ZN18Item_cache_wrapper17fix_after_pulloutEP13st_select_lexPP4Itemb@Base 10.11.8
 _ZN18Item_cache_wrapper17save_org_in_fieldEP5FieldPFiS1_S1_E@Base 10.11.8
 _ZN18Item_cache_wrapper18get_tmp_table_itemEP3THD@Base 10.11.8
 _ZN18Item_cache_wrapper18update_used_tablesEv@Base 10.11.8
 _ZN18Item_cache_wrapper20save_in_result_fieldEb@Base 10.11.8
 _ZN18Item_cache_wrapper21field_for_view_updateEv@Base 10.11.8
 _ZN18Item_cache_wrapper22is_expensive_processorEPv@Base 10.11.8
 _ZN18Item_cache_wrapper25check_vcol_func_processorEPv@Base 10.11.8
 _ZN18Item_cache_wrapper30enumerate_field_refs_processorEPv@Base 10.11.8
 _ZN18Item_cache_wrapper4addrEj@Base 10.11.8
 _ZN18Item_cache_wrapper4sendEP8ProtocolP8st_value@Base 10.11.8
 _ZN18Item_cache_wrapper4walkEM4ItemFbPvEbS1_@Base 10.11.8
 _ZN18Item_cache_wrapper5printEP6String15enum_query_type@Base 10.11.8
 _ZN18Item_cache_wrapper7cleanupEv@Base 10.11.8
 _ZN18Item_cache_wrapper7is_nullEv@Base 10.11.8
 _ZN18Item_cache_wrapper7val_intEv@Base 10.11.8
 _ZN18Item_cache_wrapper7val_strEP6String@Base 10.11.8
 _ZN18Item_cache_wrapper8get_copyEP3THD@Base 10.11.8
 _ZN18Item_cache_wrapper8get_dateEP3THDP13st_mysql_time11date_mode_t@Base 10.11.8
 _ZN18Item_cache_wrapper8save_valEP5Field@Base 10.11.8
 _ZN18Item_cache_wrapper8val_boolEv@Base 10.11.8
 _ZN18Item_cache_wrapper8val_realEv@Base 10.11.8
 _ZN18Item_cache_wrapper9set_cacheEP3THD@Base 10.11.8
 _ZN18Item_cache_wrapperC1EP3THDP4Item@Base 10.11.8
 _ZN18Item_cache_wrapperC2EP3THDP4Item@Base 10.11.8
 _ZN18Item_cache_wrapperD0Ev@Base 10.11.8
 _ZN18Item_cache_wrapperD1Ev@Base 10.11.8
 _ZN18Item_cache_wrapperD2Ev@Base 10.11.8
 _ZN18Item_change_recordD0Ev@Base 10.11.8
 _ZN18Item_change_recordD1Ev@Base 10.11.8
 _ZN18Item_change_recordD2Ev@Base 10.11.8
 _ZN18Item_char_typecast15val_str_genericEP6String@Base 10.11.8
 _ZN18Item_char_typecast18fix_length_and_decEP3THD@Base 10.11.8
 _ZN18Item_char_typecast22fix_length_and_dec_strEv@Base 10.11.8
 _ZN18Item_char_typecast25adjusted_length_with_warnEj@Base 10.11.8
 _ZN18Item_char_typecast26check_truncation_with_warnEP6Stringm@Base 10.11.8
 _ZN18Item_char_typecast26fix_length_and_dec_genericEv@Base 10.11.8
 _ZN18Item_char_typecast26fix_length_and_dec_numericEv@Base 10.11.8
 _ZN18Item_char_typecast26val_str_binary_from_nativeEP6String@Base 10.11.8
 _ZN18Item_char_typecast27fix_length_and_dec_internalEPK15charset_info_st@Base 10.11.8
 _ZN18Item_char_typecast27need_parentheses_in_defaultEv@Base 10.11.8
 _ZN18Item_char_typecast35fix_length_and_dec_native_to_binaryEj@Base 10.11.8
 _ZN18Item_char_typecast4copyEP6StringPK15charset_info_st@Base 10.11.8
 _ZN18Item_char_typecast5printEP6String15enum_query_type@Base 10.11.8
 _ZN18Item_char_typecast5reuseEP6Stringm@Base 10.11.8
 _ZN18Item_char_typecast8get_copyEP3THD@Base 10.11.8
 _ZN18Item_char_typecastD0Ev@Base 10.11.8
 _ZN18Item_char_typecastD1Ev@Base 10.11.8
 _ZN18Item_char_typecastD2Ev@Base 10.11.8
 _ZN18Item_date_typecast18fix_length_and_decEP3THD@Base 10.11.8
 _ZN18Item_date_typecast5printEP6String15enum_query_type@Base 10.11.8
 _ZN18Item_date_typecast8get_copyEP3THD@Base 10.11.8
 _ZN18Item_date_typecast8get_dateEP3THDP13st_mysql_time11date_mode_t@Base 10.11.8
 _ZN18Item_date_typecastD0Ev@Base 10.11.8
 _ZN18Item_date_typecastD1Ev@Base 10.11.8
 _ZN18Item_date_typecastD2Ev@Base 10.11.8
 _ZN18Item_default_value10fix_fieldsEP3THDPP4Item@Base 10.11.8
 _ZN18Item_default_value10str_resultEP6String@Base 10.11.8
 _ZN18Item_default_value10val_nativeEP3THDP6Native@Base 10.11.8
 _ZN18Item_default_value10val_resultEv@Base 10.11.8
 _ZN18Item_default_value11val_decimalEP10my_decimal@Base 10.11.8
 _ZN18Item_default_value13save_in_fieldEP5Fieldb@Base 10.11.8
 _ZN18Item_default_value13save_in_paramEP3THDP10Item_param@Base 10.11.8
 _ZN18Item_default_value14is_null_resultEv@Base 10.11.8
 _ZN18Item_default_value14val_int_resultEv@Base 10.11.8
 _ZN18Item_default_value15get_date_resultEP3THDP13st_mysql_time11date_mode_t@Base 10.11.8
 _ZN18Item_default_value15val_bool_resultEv@Base 10.11.8
 _ZN18Item_default_value15val_time_packedEP3THD@Base 10.11.8
 _ZN18Item_default_value17val_native_resultEP3THDP6Native@Base 10.11.8
 _ZN18Item_default_value18get_tmp_table_itemEP3THD@Base 10.11.8
 _ZN18Item_default_value18update_used_tablesEv@Base 10.11.8
 _ZN18Item_default_value18val_decimal_resultEP10my_decimal@Base 10.11.8
 _ZN18Item_default_value19create_tmp_field_exEP11st_mem_rootP5TABLEP13Tmp_field_srcPK15Tmp_field_param@Base 10.11.8
 _ZN18Item_default_value19val_datetime_packedEP3THD@Base 10.11.8
 _ZN18Item_default_value20save_in_result_fieldEb@Base 10.11.8
 _ZN18Item_default_value21field_for_view_updateEv@Base 10.11.8
 _ZN18Item_default_value21update_vcol_processorEPv@Base 10.11.8
 _ZN18Item_default_value26register_field_in_read_mapEPv@Base 10.11.8
 _ZN18Item_default_value27associate_with_target_fieldEP3THDP10Item_field@Base 10.11.8
 _ZN18Item_default_value28check_func_default_processorEPv@Base 10.11.8
 _ZN18Item_default_value29update_func_default_processorEPv@Base 10.11.8
 _ZN18Item_default_value32check_field_expression_processorEPv@Base 10.11.8
 _ZN18Item_default_value4sendEP8ProtocolP8st_value@Base 10.11.8
 _ZN18Item_default_value4walkEM4ItemFbPvEbS1_@Base 10.11.8
 _ZN18Item_default_value5printEP6String15enum_query_type@Base 10.11.8
 _ZN18Item_default_value7cleanupEv@Base 10.11.8
 _ZN18Item_default_value7val_intEv@Base 10.11.8
 _ZN18Item_default_value7val_strEP6String@Base 10.11.8
 _ZN18Item_default_value8get_dateEP3THDP13st_mysql_time11date_mode_t@Base 10.11.8
 _ZN18Item_default_value8val_realEv@Base 10.11.8
 _ZN18Item_default_value9calculateEv@Base 10.11.8
 _ZN18Item_default_value9tie_fieldEP3THD@Base 10.11.8
 _ZN18Item_default_value9transformEP3THDM4ItemFPS2_S1_PhES4_@Base 10.11.8
 _ZN18Item_default_valueD0Ev@Base 10.11.8
 _ZN18Item_default_valueD1Ev@Base 10.11.8
 _ZN18Item_default_valueD2Ev@Base 10.11.8
 _ZN18Item_func_add_time18fix_length_and_decEP3THD@Base 10.11.8
 _ZN18Item_func_add_time8get_copyEP3THD@Base 10.11.8
 _ZN18Item_func_add_timeD0Ev@Base 10.11.8
 _ZN18Item_func_add_timeD1Ev@Base 10.11.8
 _ZN18Item_func_add_timeD2Ev@Base 10.11.8
 _ZN18Item_func_boundary11Transporter10start_lineEv@Base 10.11.8
 _ZN18Item_func_boundary11Transporter10start_polyEv@Base 10.11.8
 _ZN18Item_func_boundary11Transporter10start_ringEv@Base 10.11.8
 _ZN18Item_func_boundary11Transporter12single_pointEdd@Base 10.11.8
 _ZN18Item_func_boundary11Transporter13complete_lineEv@Base 10.11.8
 _ZN18Item_func_boundary11Transporter13complete_polyEv@Base 10.11.8
 _ZN18Item_func_boundary11Transporter13complete_ringEv@Base 10.11.8
 _ZN18Item_func_boundary11Transporter16start_collectionEi@Base 10.11.8
 _ZN18Item_func_boundary11Transporter9add_pointEdd@Base 10.11.8
 _ZN18Item_func_boundary11TransporterD0Ev@Base 10.11.8
 _ZN18Item_func_boundary11TransporterD1Ev@Base 10.11.8
 _ZN18Item_func_boundary11TransporterD2Ev@Base 10.11.8
 _ZN18Item_func_boundary7val_strEP6String@Base 10.11.8
 _ZN18Item_func_boundary8get_copyEP3THD@Base 10.11.8
 _ZN18Item_func_boundaryD0Ev@Base 10.11.8
 _ZN18Item_func_boundaryD1Ev@Base 10.11.8
 _ZN18Item_func_boundaryD2Ev@Base 10.11.8
 _ZN18Item_func_centroid7val_strEP6String@Base 10.11.8
 _ZN18Item_func_centroid8get_copyEP3THD@Base 10.11.8
 _ZN18Item_func_centroidD0Ev@Base 10.11.8
 _ZN18Item_func_centroidD1Ev@Base 10.11.8
 _ZN18Item_func_centroidD2Ev@Base 10.11.8
 _ZN18Item_func_coalesce10decimal_opEP10my_decimal@Base 10.11.8
 _ZN18Item_func_coalesce18fix_length_and_decEP3THD@Base 10.11.8
 _ZN18Item_func_coalesce6int_opEv@Base 10.11.8
 _ZN18Item_func_coalesce6str_opEP6String@Base 10.11.8
 _ZN18Item_func_coalesce7date_opEP3THDP13st_mysql_time11date_mode_t@Base 10.11.8
 _ZN18Item_func_coalesce7real_opEv@Base 10.11.8
 _ZN18Item_func_coalesce7time_opEP3THDP13st_mysql_time@Base 10.11.8
 _ZN18Item_func_coalesce8get_copyEP3THD@Base 10.11.8
 _ZN18Item_func_coalesce9native_opEP3THDP6Native@Base 10.11.8
 _ZN18Item_func_coalesceD0Ev@Base 10.11.8
 _ZN18Item_func_coalesceD1Ev@Base 10.11.8
 _ZN18Item_func_coalesceD2Ev@Base 10.11.8
 _ZN18Item_func_compress18fix_length_and_decEP3THD@Base 10.11.8
 _ZN18Item_func_compress7val_strEP6String@Base 10.11.8
 _ZN18Item_func_compress8get_copyEP3THD@Base 10.11.8
 _ZN18Item_func_compressD0Ev@Base 10.11.8
 _ZN18Item_func_compressD1Ev@Base 10.11.8
 _ZN18Item_func_compressD2Ev@Base 10.11.8
 _ZN18Item_func_database18fix_length_and_decEP3THD@Base 10.11.8
 _ZN18Item_func_database7val_strEP6String@Base 10.11.8
 _ZN18Item_func_database8get_copyEP3THD@Base 10.11.8
 _ZN18Item_func_databaseD0Ev@Base 10.11.8
 _ZN18Item_func_databaseD1Ev@Base 10.11.8
 _ZN18Item_func_databaseD2Ev@Base 10.11.8
 _ZN18Item_func_distance8get_copyEP3THD@Base 10.11.8
 _ZN18Item_func_distance8val_realEv@Base 10.11.8
 _ZN18Item_func_distanceD0Ev@Base 10.11.8
 _ZN18Item_func_distanceD1Ev@Base 10.11.8
 _ZN18Item_func_distanceD2Ev@Base 10.11.8
 _ZN18Item_func_envelope7val_strEP6String@Base 10.11.8
 _ZN18Item_func_envelope8get_copyEP3THD@Base 10.11.8
 _ZN18Item_func_envelopeD0Ev@Base 10.11.8
 _ZN18Item_func_envelopeD1Ev@Base 10.11.8
 _ZN18Item_func_envelopeD2Ev@Base 10.11.8
 _ZN18Item_func_get_lock18fix_length_and_decEP3THD@Base 10.11.8
 _ZN18Item_func_get_lock7val_intEv@Base 10.11.8
 _ZN18Item_func_get_lock8get_copyEP3THD@Base 10.11.8
 _ZN18Item_func_get_lockD0Ev@Base 10.11.8
 _ZN18Item_func_get_lockD1Ev@Base 10.11.8
 _ZN18Item_func_get_lockD2Ev@Base 10.11.8
 _ZN18Item_func_interval10fix_fieldsEP3THDPP4Item@Base 10.11.8
 _ZN18Item_func_interval18fix_length_and_decEP3THD@Base 10.11.8
 _ZN18Item_func_interval5printEP6String15enum_query_type@Base 10.11.8
 _ZN18Item_func_interval7val_intEv@Base 10.11.8
 _ZN18Item_func_interval8get_copyEP3THD@Base 10.11.8
 _ZN18Item_func_intervalD0Ev@Base 10.11.8
 _ZN18Item_func_intervalD1Ev@Base 10.11.8
 _ZN18Item_func_intervalD2Ev@Base 10.11.8
 _ZN18Item_func_isclosed18fix_length_and_decEP3THD@Base 10.11.8
 _ZN18Item_func_isclosed7val_intEv@Base 10.11.8
 _ZN18Item_func_isclosed8get_copyEP3THD@Base 10.11.8
 _ZN18Item_func_isclosedD0Ev@Base 10.11.8
 _ZN18Item_func_isclosedD1Ev@Base 10.11.8
 _ZN18Item_func_isclosedD2Ev@Base 10.11.8
 _ZN18Item_func_issimple18fix_length_and_decEP3THD@Base 10.11.8
 _ZN18Item_func_issimple7val_intEv@Base 10.11.8
 _ZN18Item_func_issimple8get_copyEP3THD@Base 10.11.8
 _ZN18Item_func_issimpleD0Ev@Base 10.11.8
 _ZN18Item_func_issimpleD1Ev@Base 10.11.8
 _ZN18Item_func_issimpleD2Ev@Base 10.11.8
 _ZN18Item_func_last_day8get_copyEP3THD@Base 10.11.8
 _ZN18Item_func_last_day8get_dateEP3THDP13st_mysql_time11date_mode_t@Base 10.11.8
 _ZN18Item_func_last_dayD0Ev@Base 10.11.8
 _ZN18Item_func_last_dayD1Ev@Base 10.11.8
 _ZN18Item_func_last_dayD2Ev@Base 10.11.8
 _ZN18Item_func_make_set18fix_length_and_decEP3THD@Base 10.11.8
 _ZN18Item_func_make_set7val_strEP6String@Base 10.11.8
 _ZN18Item_func_make_set8get_copyEP3THD@Base 10.11.8
 _ZN18Item_func_make_setD0Ev@Base 10.11.8
 _ZN18Item_func_make_setD1Ev@Base 10.11.8
 _ZN18Item_func_make_setD2Ev@Base 10.11.8
 _ZN18Item_func_makedate8get_copyEP3THD@Base 10.11.8
 _ZN18Item_func_makedate8get_dateEP3THDP13st_mysql_time11date_mode_t@Base 10.11.8
 _ZN18Item_func_makedateD0Ev@Base 10.11.8
 _ZN18Item_func_makedateD1Ev@Base 10.11.8
 _ZN18Item_func_makedateD2Ev@Base 10.11.8
 _ZN18Item_func_maketime18fix_length_and_decEP3THD@Base 10.11.8
 _ZN18Item_func_maketime8get_copyEP3THD@Base 10.11.8
 _ZN18Item_func_maketime8get_dateEP3THDP13st_mysql_time11date_mode_t@Base 10.11.8
 _ZN18Item_func_maketimeD0Ev@Base 10.11.8
 _ZN18Item_func_maketimeD1Ev@Base 10.11.8
 _ZN18Item_func_maketimeD2Ev@Base 10.11.8
 _ZN18Item_func_password10fix_fieldsEP3THDPP4Item@Base 10.11.8
 _ZN18Item_func_password13val_str_asciiEP6String@Base 10.11.8
 _ZN18Item_func_password18fix_length_and_decEP3THD@Base 10.11.8
 _ZN18Item_func_password5allocEP3THDPKcmNS_6PW_AlgE@Base 10.11.8
 _ZN18Item_func_password8get_copyEP3THD@Base 10.11.8
 _ZN18Item_func_passwordD0Ev@Base 10.11.8
 _ZN18Item_func_passwordD1Ev@Base 10.11.8
 _ZN18Item_func_passwordD2Ev@Base 10.11.8
 _ZN18Item_func_sysconst22safe_charset_converterEP3THDPK15charset_info_st@Base 10.11.8
 _ZN18Item_func_sysconst25check_vcol_func_processorEPv@Base 10.11.8
 _ZN18Item_func_timediff18fix_length_and_decEP3THD@Base 10.11.8
 _ZN18Item_func_timediff8get_copyEP3THD@Base 10.11.8
 _ZN18Item_func_timediff8get_dateEP3THDP13st_mysql_time11date_mode_t@Base 10.11.8
 _ZN18Item_func_timediffD0Ev@Base 10.11.8
 _ZN18Item_func_timediffD1Ev@Base 10.11.8
 _ZN18Item_func_timediffD2Ev@Base 10.11.8
 _ZN18Item_func_unsigned18fix_length_and_decEP3THD@Base 10.11.8
 _ZN18Item_func_unsigned5printEP6String15enum_query_type@Base 10.11.8
 _ZN18Item_func_unsigned7val_intEv@Base 10.11.8
 _ZN18Item_func_unsigned8get_copyEP3THD@Base 10.11.8
 _ZN18Item_func_unsignedD0Ev@Base 10.11.8
 _ZN18Item_func_unsignedD1Ev@Base 10.11.8
 _ZN18Item_func_unsignedD2Ev@Base 10.11.8
 _ZN18Item_func_user_var19create_tmp_field_exEP11st_mem_rootP5TABLEP13Tmp_field_srcPK15Tmp_field_param@Base 10.11.8
 _ZN18Item_func_user_var25check_vcol_func_processorEPv@Base 10.11.8
 _ZN18Item_func_user_var30create_field_for_create_selectEP11st_mem_rootP5TABLE@Base 10.11.8
 _ZN18Item_func_user_var8get_dateEP3THDP13st_mysql_time11date_mode_t@Base 10.11.8
 _ZN18Item_func_yearweek18fix_length_and_decEP3THD@Base 10.11.8
 _ZN18Item_func_yearweek25check_vcol_func_processorEPv@Base 10.11.8
 _ZN18Item_func_yearweek30check_partition_func_processorEPv@Base 10.11.8
 _ZN18Item_func_yearweek31check_valid_arguments_processorEPv@Base 10.11.8
 _ZN18Item_func_yearweek7val_intEv@Base 10.11.8
 _ZN18Item_func_yearweek8get_copyEP3THD@Base 10.11.8
 _ZN18Item_func_yearweekD0Ev@Base 10.11.8
 _ZN18Item_func_yearweekD1Ev@Base 10.11.8
 _ZN18Item_func_yearweekD2Ev@Base 10.11.8
 _ZN18Item_geometry_func18fix_length_and_decEP3THD@Base 10.11.8
 _ZN18Item_iterator_list4nextEv@Base 10.11.8
 _ZN18Item_iterator_list4openEv@Base 10.11.8
 _ZN18Item_iterator_list5closeEv@Base 10.11.8
 _ZN18Item_iterator_listD0Ev@Base 10.11.8
 _ZN18Item_iterator_listD1Ev@Base 10.11.8
 _ZN18Item_iterator_listD2Ev@Base 10.11.8
 _ZN18Item_real_typecast22val_real_with_truncateEd@Base 10.11.8
 _ZN18Item_real_typecast27need_parentheses_in_defaultEv@Base 10.11.8
 _ZN18Item_real_typecast5printEP6String15enum_query_type@Base 10.11.8
 _ZN18Item_sum_cume_dist11reset_fieldEv@Base 10.11.8
 _ZN18Item_sum_cume_dist12update_fieldEv@Base 10.11.8
 _ZN18Item_sum_cume_dist18fix_length_and_decEP3THD@Base 10.11.8
 _ZN18Item_sum_cume_dist23set_partition_row_countEy@Base 10.11.8
 _ZN18Item_sum_cume_dist3addEv@Base 10.11.8
 _ZN18Item_sum_cume_dist5clearEv@Base 10.11.8
 _ZN18Item_sum_cume_dist8get_copyEP3THD@Base 10.11.8
 _ZN18Item_sum_cume_dist8val_realEv@Base 10.11.8
 _ZN18Item_sum_cume_distD0Ev@Base 10.11.8
 _ZN18Item_sum_cume_distD1Ev@Base 10.11.8
 _ZN18Item_sum_cume_distD2Ev@Base 10.11.8
 _ZN18Item_sum_nth_value8get_copyEP3THD@Base 10.11.8
 _ZN18Item_sum_nth_valueD0Ev@Base 10.11.8
 _ZN18Item_sum_nth_valueD1Ev@Base 10.11.8
 _ZN18Item_sum_nth_valueD2Ev@Base 10.11.8
 _ZN18Item_sum_udf_float11val_decimalEP10my_decimal@Base 10.11.8
 _ZN18Item_sum_udf_float12copy_or_sameEP3THD@Base 10.11.8
 _ZN18Item_sum_udf_float18fix_length_and_decEP3THD@Base 10.11.8
 _ZN18Item_sum_udf_float7val_intEv@Base 10.11.8
 _ZN18Item_sum_udf_float7val_strEP6String@Base 10.11.8
 _ZN18Item_sum_udf_float8get_copyEP3THD@Base 10.11.8
 _ZN18Item_sum_udf_float8val_realEv@Base 10.11.8
 _ZN18Item_sum_udf_floatD0Ev@Base 10.11.8
 _ZN18Item_sum_udf_floatD1Ev@Base 10.11.8
 _ZN18Item_sum_udf_floatD2Ev@Base 10.11.8
 _ZN18Item_time_typecast18fix_length_and_decEP3THD@Base 10.11.8
 _ZN18Item_time_typecast5printEP6String15enum_query_type@Base 10.11.8
 _ZN18Item_time_typecast8get_copyEP3THD@Base 10.11.8
 _ZN18Item_time_typecast8get_dateEP3THDP13st_mysql_time11date_mode_t@Base 10.11.8
 _ZN18Item_time_typecastD0Ev@Base 10.11.8
 _ZN18Item_time_typecastD1Ev@Base 10.11.8
 _ZN18Item_time_typecastD2Ev@Base 10.11.8
 _ZN18Item_trigger_field10fix_fieldsEP3THDPP4Item@Base 10.11.8
 _ZN18Item_trigger_field11setup_fieldEP3THDP5TABLEP13st_grant_info@Base 10.11.8
 _ZN18Item_trigger_field12copy_or_sameEP3THD@Base 10.11.8
 _ZN18Item_trigger_field18get_tmp_table_itemEP3THD@Base 10.11.8
 _ZN18Item_trigger_field19get_tmp_table_fieldEv@Base 10.11.8
 _ZN18Item_trigger_field22set_required_privilegeEb@Base 10.11.8
 _ZN18Item_trigger_field25check_vcol_func_processorEPv@Base 10.11.8
 _ZN18Item_trigger_field25unknown_splocal_processorEPv@Base 10.11.8
 _ZN18Item_trigger_field30get_settable_routine_parameterEv@Base 10.11.8
 _ZN18Item_trigger_field5printEP6String15enum_query_type@Base 10.11.8
 _ZN18Item_trigger_field7cleanupEv@Base 10.11.8
 _ZN18Item_trigger_field9set_valueEP3THDP11sp_rcontextPP4Item@Base 10.11.8
 _ZN18Item_trigger_fieldD0Ev@Base 10.11.8
 _ZN18Item_trigger_fieldD1Ev@Base 10.11.8
 _ZN18Item_trigger_fieldD2Ev@Base 10.11.8
 _ZN18Json_writer_object17add_select_numberEj@Base 10.11.8
 _ZN18Json_writer_object3addEPKcS1_@Base 10.11.8
 _ZN18Json_writer_object3addEPKcd@Base 10.11.8
 _ZN18Json_writer_objectC1EP11Json_writerPKc@Base 10.11.8
 _ZN18Json_writer_objectC2EP11Json_writerPKc@Base 10.11.8
 _ZN18Json_writer_objectD0Ev@Base 10.11.8
 _ZN18Json_writer_objectD1Ev@Base 10.11.8
 _ZN18Json_writer_objectD2Ev@Base 10.11.8
 _ZN18Locked_tables_list12restore_lockEP3THDP10TABLE_LISTP5TABLEP13st_mysql_lock@Base 10.11.8
 _ZN18Locked_tables_list13reopen_tablesEP3THDb@Base 10.11.8
 _ZN18Locked_tables_list16unlink_from_listEP3THDP10TABLE_LISTb@Base 10.11.8
 _ZN18Locked_tables_list18init_locked_tablesEP3THD@Base 10.11.8
 _ZN18Locked_tables_list19unlock_locked_tableEP3THDP10MDL_ticket@Base 10.11.8
 _ZN18Locked_tables_list20unlock_locked_tablesEP3THD@Base 10.11.8
 _ZN18Locked_tables_list21mark_table_for_reopenEP5TABLE@Base 10.11.8
 _ZN18Locked_tables_list24unlink_all_closed_tablesEP3THDP13st_mysql_lockm@Base 10.11.8
 _ZN18Locked_tables_list26add_back_last_deleted_lockEP10TABLE_LIST@Base 10.11.8
 _ZN18Locked_tables_list5resetEv@Base 10.11.8
 _ZN18Named_type_handlerI16Type_handler_bitED0Ev@Base 10.11.8
 _ZN18Named_type_handlerI16Type_handler_bitED1Ev@Base 10.11.8
 _ZN18Named_type_handlerI16Type_handler_bitED2Ev@Base 10.11.8
 _ZN18Named_type_handlerI16Type_handler_rowED0Ev@Base 10.11.8
 _ZN18Named_type_handlerI16Type_handler_rowED1Ev@Base 10.11.8
 _ZN18Named_type_handlerI16Type_handler_rowED2Ev@Base 10.11.8
 _ZN18Named_type_handlerI16Type_handler_setED0Ev@Base 10.11.8
 _ZN18Named_type_handlerI16Type_handler_setED1Ev@Base 10.11.8
 _ZN18Named_type_handlerI16Type_handler_setED2Ev@Base 10.11.8
 _ZN18Named_type_handlerI17Type_handler_blobED0Ev@Base 10.11.8
 _ZN18Named_type_handlerI17Type_handler_blobED1Ev@Base 10.11.8
 _ZN18Named_type_handlerI17Type_handler_blobED2Ev@Base 10.11.8
 _ZN18Named_type_handlerI17Type_handler_boolED0Ev@Base 10.11.8
 _ZN18Named_type_handlerI17Type_handler_boolED1Ev@Base 10.11.8
 _ZN18Named_type_handlerI17Type_handler_boolED2Ev@Base 10.11.8
 _ZN18Named_type_handlerI17Type_handler_dateED0Ev@Base 10.11.8
 _ZN18Named_type_handlerI17Type_handler_dateED1Ev@Base 10.11.8
 _ZN18Named_type_handlerI17Type_handler_dateED2Ev@Base 10.11.8
 _ZN18Named_type_handlerI17Type_handler_enumED0Ev@Base 10.11.8
 _ZN18Named_type_handlerI17Type_handler_enumED1Ev@Base 10.11.8
 _ZN18Named_type_handlerI17Type_handler_enumED2Ev@Base 10.11.8
 _ZN18Named_type_handlerI17Type_handler_longED0Ev@Base 10.11.8
 _ZN18Named_type_handlerI17Type_handler_longED1Ev@Base 10.11.8
 _ZN18Named_type_handlerI17Type_handler_longED2Ev@Base 10.11.8
 _ZN18Named_type_handlerI17Type_handler_nullED0Ev@Base 10.11.8
 _ZN18Named_type_handlerI17Type_handler_nullED1Ev@Base 10.11.8
 _ZN18Named_type_handlerI17Type_handler_nullED2Ev@Base 10.11.8
 _ZN18Named_type_handlerI17Type_handler_timeED0Ev@Base 10.11.8
 _ZN18Named_type_handlerI17Type_handler_timeED1Ev@Base 10.11.8
 _ZN18Named_type_handlerI17Type_handler_timeED2Ev@Base 10.11.8
 _ZN18Named_type_handlerI17Type_handler_tinyED0Ev@Base 10.11.8
 _ZN18Named_type_handlerI17Type_handler_tinyED1Ev@Base 10.11.8
 _ZN18Named_type_handlerI17Type_handler_tinyED2Ev@Base 10.11.8
 _ZN18Named_type_handlerI17Type_handler_yearED0Ev@Base 10.11.8
 _ZN18Named_type_handlerI17Type_handler_yearED1Ev@Base 10.11.8
 _ZN18Named_type_handlerI17Type_handler_yearED2Ev@Base 10.11.8
 _ZN18Named_type_handlerI18Type_handler_floatED0Ev@Base 10.11.8
 _ZN18Named_type_handlerI18Type_handler_floatED1Ev@Base 10.11.8
 _ZN18Named_type_handlerI18Type_handler_floatED2Ev@Base 10.11.8
 _ZN18Named_type_handlerI18Type_handler_int24ED0Ev@Base 10.11.8
 _ZN18Named_type_handlerI18Type_handler_int24ED1Ev@Base 10.11.8
 _ZN18Named_type_handlerI18Type_handler_int24ED2Ev@Base 10.11.8
 _ZN18Named_type_handlerI18Type_handler_pointED0Ev@Base 10.11.8
 _ZN18Named_type_handlerI18Type_handler_pointED1Ev@Base 10.11.8
 _ZN18Named_type_handlerI18Type_handler_pointED2Ev@Base 10.11.8
 _ZN18Named_type_handlerI18Type_handler_shortED0Ev@Base 10.11.8
 _ZN18Named_type_handlerI18Type_handler_shortED1Ev@Base 10.11.8
 _ZN18Named_type_handlerI18Type_handler_shortED2Ev@Base 10.11.8
 _ZN18Named_type_handlerI18Type_handler_time2ED0Ev@Base 10.11.8
 _ZN18Named_type_handlerI18Type_handler_time2ED1Ev@Base 10.11.8
 _ZN18Named_type_handlerI18Type_handler_time2ED2Ev@Base 10.11.8
 _ZN18Named_type_handlerI18Type_handler_ulongED0Ev@Base 10.11.8
 _ZN18Named_type_handlerI18Type_handler_ulongED1Ev@Base 10.11.8
 _ZN18Named_type_handlerI18Type_handler_ulongED2Ev@Base 10.11.8
 _ZN18Named_type_handlerI18Type_handler_utinyED0Ev@Base 10.11.8
 _ZN18Named_type_handlerI18Type_handler_utinyED1Ev@Base 10.11.8
 _ZN18Named_type_handlerI18Type_handler_utinyED2Ev@Base 10.11.8
 _ZN18Named_type_handlerI19Type_handler_doubleED0Ev@Base 10.11.8
 _ZN18Named_type_handlerI19Type_handler_doubleED1Ev@Base 10.11.8
 _ZN18Named_type_handlerI19Type_handler_doubleED2Ev@Base 10.11.8
 _ZN18Named_type_handlerI19Type_handler_stringED0Ev@Base 10.11.8
 _ZN18Named_type_handlerI19Type_handler_stringED1Ev@Base 10.11.8
 _ZN18Named_type_handlerI19Type_handler_stringED2Ev@Base 10.11.8
 _ZN18Named_type_handlerI19Type_handler_uint24ED0Ev@Base 10.11.8
 _ZN18Named_type_handlerI19Type_handler_uint24ED1Ev@Base 10.11.8
 _ZN18Named_type_handlerI19Type_handler_uint24ED2Ev@Base 10.11.8
 _ZN18Named_type_handlerI19Type_handler_ushortED0Ev@Base 10.11.8
 _ZN18Named_type_handlerI19Type_handler_ushortED1Ev@Base 10.11.8
 _ZN18Named_type_handlerI19Type_handler_ushortED2Ev@Base 10.11.8
 _ZN18Named_type_handlerI20Type_handler_newdateED0Ev@Base 10.11.8
 _ZN18Named_type_handlerI20Type_handler_newdateED1Ev@Base 10.11.8
 _ZN18Named_type_handlerI20Type_handler_newdateED2Ev@Base 10.11.8
 _ZN18Named_type_handlerI20Type_handler_polygonED0Ev@Base 10.11.8
 _ZN18Named_type_handlerI20Type_handler_polygonED1Ev@Base 10.11.8
 _ZN18Named_type_handlerI20Type_handler_polygonED2Ev@Base 10.11.8
 _ZN18Named_type_handlerI20Type_handler_varcharED0Ev@Base 10.11.8
 _ZN18Named_type_handlerI20Type_handler_varcharED1Ev@Base 10.11.8
 _ZN18Named_type_handlerI20Type_handler_varcharED2Ev@Base 10.11.8
 _ZN18Named_type_handlerI21Type_handler_datetimeED0Ev@Base 10.11.8
 _ZN18Named_type_handlerI21Type_handler_datetimeED1Ev@Base 10.11.8
 _ZN18Named_type_handlerI21Type_handler_datetimeED2Ev@Base 10.11.8
 _ZN18Named_type_handlerI21Type_handler_geometryED0Ev@Base 10.11.8
 _ZN18Named_type_handlerI21Type_handler_geometryED1Ev@Base 10.11.8
 _ZN18Named_type_handlerI21Type_handler_geometryED2Ev@Base 10.11.8
 _ZN18Named_type_handlerI21Type_handler_long_ge0ED0Ev@Base 10.11.8
 _ZN18Named_type_handlerI21Type_handler_long_ge0ED1Ev@Base 10.11.8
 _ZN18Named_type_handlerI21Type_handler_long_ge0ED2Ev@Base 10.11.8
 _ZN18Named_type_handlerI21Type_handler_longlongED0Ev@Base 10.11.8
 _ZN18Named_type_handlerI21Type_handler_longlongED1Ev@Base 10.11.8
 _ZN18Named_type_handlerI21Type_handler_longlongED2Ev@Base 10.11.8
 _ZN18Named_type_handlerI22Type_handler_blob_jsonED0Ev@Base 10.11.8
 _ZN18Named_type_handlerI22Type_handler_blob_jsonED1Ev@Base 10.11.8
 _ZN18Named_type_handlerI22Type_handler_blob_jsonED2Ev@Base 10.11.8
 _ZN18Named_type_handlerI22Type_handler_datetime2ED0Ev@Base 10.11.8
 _ZN18Named_type_handlerI22Type_handler_datetime2ED1Ev@Base 10.11.8
 _ZN18Named_type_handlerI22Type_handler_datetime2ED2Ev@Base 10.11.8
 _ZN18Named_type_handlerI22Type_handler_long_blobED0Ev@Base 10.11.8
 _ZN18Named_type_handlerI22Type_handler_long_blobED1Ev@Base 10.11.8
 _ZN18Named_type_handlerI22Type_handler_long_blobED2Ev@Base 10.11.8
 _ZN18Named_type_handlerI22Type_handler_timestampED0Ev@Base 10.11.8
 _ZN18Named_type_handlerI22Type_handler_timestampED1Ev@Base 10.11.8
 _ZN18Named_type_handlerI22Type_handler_timestampED2Ev@Base 10.11.8
 _ZN18Named_type_handlerI22Type_handler_tiny_blobED0Ev@Base 10.11.8
 _ZN18Named_type_handlerI22Type_handler_tiny_blobED1Ev@Base 10.11.8
 _ZN18Named_type_handlerI22Type_handler_tiny_blobED2Ev@Base 10.11.8
 _ZN18Named_type_handlerI22Type_handler_ulonglongED0Ev@Base 10.11.8
 _ZN18Named_type_handlerI22Type_handler_ulonglongED1Ev@Base 10.11.8
 _ZN18Named_type_handlerI22Type_handler_ulonglongED2Ev@Base 10.11.8
 _ZN18Named_type_handlerI23Type_handler_hex_hybridED0Ev@Base 10.11.8
 _ZN18Named_type_handlerI23Type_handler_hex_hybridED1Ev@Base 10.11.8
 _ZN18Named_type_handlerI23Type_handler_hex_hybridED2Ev@Base 10.11.8
 _ZN18Named_type_handlerI23Type_handler_linestringED0Ev@Base 10.11.8
 _ZN18Named_type_handlerI23Type_handler_linestringED1Ev@Base 10.11.8
 _ZN18Named_type_handlerI23Type_handler_linestringED2Ev@Base 10.11.8
 _ZN18Named_type_handlerI23Type_handler_multipointED0Ev@Base 10.11.8
 _ZN18Named_type_handlerI23Type_handler_multipointED1Ev@Base 10.11.8
 _ZN18Named_type_handlerI23Type_handler_multipointED2Ev@Base 10.11.8
 _ZN18Named_type_handlerI23Type_handler_newdecimalED0Ev@Base 10.11.8
 _ZN18Named_type_handlerI23Type_handler_newdecimalED1Ev@Base 10.11.8
 _ZN18Named_type_handlerI23Type_handler_newdecimalED2Ev@Base 10.11.8
 _ZN18Named_type_handlerI23Type_handler_olddecimalED0Ev@Base 10.11.8
 _ZN18Named_type_handlerI23Type_handler_olddecimalED1Ev@Base 10.11.8
 _ZN18Named_type_handlerI23Type_handler_olddecimalED2Ev@Base 10.11.8
 _ZN18Named_type_handlerI23Type_handler_timestamp2ED0Ev@Base 10.11.8
 _ZN18Named_type_handlerI23Type_handler_timestamp2ED1Ev@Base 10.11.8
 _ZN18Named_type_handlerI23Type_handler_timestamp2ED2Ev@Base 10.11.8
 _ZN18Named_type_handlerI23Type_handler_var_stringED0Ev@Base 10.11.8
 _ZN18Named_type_handlerI23Type_handler_var_stringED1Ev@Base 10.11.8
 _ZN18Named_type_handlerI23Type_handler_var_stringED2Ev@Base 10.11.8
 _ZN18Named_type_handlerI24Type_handler_medium_blobED0Ev@Base 10.11.8
 _ZN18Named_type_handlerI24Type_handler_medium_blobED1Ev@Base 10.11.8
 _ZN18Named_type_handlerI24Type_handler_medium_blobED2Ev@Base 10.11.8
 _ZN18Named_type_handlerI24Type_handler_string_jsonED0Ev@Base 10.11.8
 _ZN18Named_type_handlerI24Type_handler_string_jsonED1Ev@Base 10.11.8
 _ZN18Named_type_handlerI24Type_handler_string_jsonED2Ev@Base 10.11.8
 _ZN18Named_type_handlerI24Type_handler_vers_trx_idED0Ev@Base 10.11.8
 _ZN18Named_type_handlerI24Type_handler_vers_trx_idED1Ev@Base 10.11.8
 _ZN18Named_type_handlerI24Type_handler_vers_trx_idED2Ev@Base 10.11.8
 _ZN18Named_type_handlerI25Type_handler_multipolygonED0Ev@Base 10.11.8
 _ZN18Named_type_handlerI25Type_handler_multipolygonED1Ev@Base 10.11.8
 _ZN18Named_type_handlerI25Type_handler_multipolygonED2Ev@Base 10.11.8
 _ZN18Named_type_handlerI25Type_handler_varchar_jsonED0Ev@Base 10.11.8
 _ZN18Named_type_handlerI25Type_handler_varchar_jsonED1Ev@Base 10.11.8
 _ZN18Named_type_handlerI25Type_handler_varchar_jsonED2Ev@Base 10.11.8
 _ZN18Named_type_handlerI27Type_handler_long_blob_jsonED0Ev@Base 10.11.8
 _ZN18Named_type_handlerI27Type_handler_long_blob_jsonED1Ev@Base 10.11.8
 _ZN18Named_type_handlerI27Type_handler_long_blob_jsonED2Ev@Base 10.11.8
 _ZN18Named_type_handlerI27Type_handler_tiny_blob_jsonED0Ev@Base 10.11.8
 _ZN18Named_type_handlerI27Type_handler_tiny_blob_jsonED1Ev@Base 10.11.8
 _ZN18Named_type_handlerI27Type_handler_tiny_blob_jsonED2Ev@Base 10.11.8
 _ZN18Named_type_handlerI28Type_handler_blob_compressedED0Ev@Base 10.11.8
 _ZN18Named_type_handlerI28Type_handler_blob_compressedED1Ev@Base 10.11.8
 _ZN18Named_type_handlerI28Type_handler_blob_compressedED2Ev@Base 10.11.8
 _ZN18Named_type_handlerI28Type_handler_multilinestringED0Ev@Base 10.11.8
 _ZN18Named_type_handlerI28Type_handler_multilinestringED1Ev@Base 10.11.8
 _ZN18Named_type_handlerI28Type_handler_multilinestringED2Ev@Base 10.11.8
 _ZN18Named_type_handlerI29Type_handler_medium_blob_jsonED0Ev@Base 10.11.8
 _ZN18Named_type_handlerI29Type_handler_medium_blob_jsonED1Ev@Base 10.11.8
 _ZN18Named_type_handlerI29Type_handler_medium_blob_jsonED2Ev@Base 10.11.8
 _ZN18Named_type_handlerI31Type_handler_geometrycollectionED0Ev@Base 10.11.8
 _ZN18Named_type_handlerI31Type_handler_geometrycollectionED1Ev@Base 10.11.8
 _ZN18Named_type_handlerI31Type_handler_geometrycollectionED2Ev@Base 10.11.8
 _ZN18Named_type_handlerI31Type_handler_varchar_compressedED0Ev@Base 10.11.8
 _ZN18Named_type_handlerI31Type_handler_varchar_compressedED1Ev@Base 10.11.8
 _ZN18Named_type_handlerI31Type_handler_varchar_compressedED2Ev@Base 10.11.8
 _ZN18Open_table_context22request_backoff_actionENS_22enum_open_table_actionEP10TABLE_LIST@Base 10.11.8
 _ZN18Open_table_context24recover_from_failed_openEv@Base 10.11.8
 _ZN18Open_table_contextC1EP3THDj@Base 10.11.8
 _ZN18Open_table_contextC2EP3THDj@Base 10.11.8
 _ZN18Prepared_statement10deallocateEv@Base 10.11.8
 _ZN18Prepared_statement12cleanup_stmtEb@Base 10.11.8
 _ZN18Prepared_statement12execute_loopEP6StringbPhS2_@Base 10.11.8
 _ZN18Prepared_statement14set_parametersEP6StringPhS2_@Base 10.11.8
 _ZN18Prepared_statement16setup_set_paramsEv@Base 10.11.8
 _ZN18Prepared_statement17execute_bulk_loopEP6StringbPhS2_@Base 10.11.8
 _ZN18Prepared_statement17execute_immediateEPKcj@Base 10.11.8
 _ZN18Prepared_statement17validate_metadataEPS_@Base 10.11.8
 _ZN18Prepared_statement19set_bulk_parametersEb@Base 10.11.8
 _ZN18Prepared_statement20deallocate_immediateEv@Base 10.11.8
 _ZN18Prepared_statement23execute_server_runnableEP15Server_runnable@Base 10.11.8
 _ZN18Prepared_statement23swap_prepared_statementEPS_@Base 10.11.8
 _ZN18Prepared_statement6set_dbEPK25st_mysql_const_lex_string@Base 10.11.8
 _ZN18Prepared_statement7executeEP6Stringb@Base 10.11.8
 _ZN18Prepared_statement7prepareEPKcj@Base 10.11.8
 _ZN18Prepared_statement8set_nameEPK25st_mysql_const_lex_string@Base 10.11.8
 _ZN18Prepared_statement9reprepareEv@Base 10.11.8
 _ZN18Prepared_statementC1EP3THD@Base 10.11.8
 _ZN18Prepared_statementC2EP3THD@Base 10.11.8
 _ZN18Prepared_statementD0Ev@Base 10.11.8
 _ZN18Prepared_statementD1Ev@Base 10.11.8
 _ZN18Prepared_statementD2Ev@Base 10.11.8
 _ZN18QUICK_RANGE_SELECT11get_explainEP11st_mem_root@Base 10.11.8
 _ZN18QUICK_RANGE_SELECT12make_reverseEj@Base 10.11.8
 _ZN18QUICK_RANGE_SELECT13row_in_rangesEv@Base 10.11.8
 _ZN18QUICK_RANGE_SELECT13save_last_posEv@Base 10.11.8
 _ZN18QUICK_RANGE_SELECT14reverse_sortedEv@Base 10.11.8
 _ZN18QUICK_RANGE_SELECT15get_next_prefixEjjPh@Base 10.11.8
 _ZN18QUICK_RANGE_SELECT15replace_handlerEP7handler@Base 10.11.8
 _ZN18QUICK_RANGE_SELECT16unique_key_rangeEv@Base 10.11.8
 _ZN18QUICK_RANGE_SELECT18need_sorted_outputEv@Base 10.11.8
 _ZN18QUICK_RANGE_SELECT20add_keys_and_lengthsEP6StringS1_@Base 10.11.8
 _ZN18QUICK_RANGE_SELECT20init_ror_merged_scanEbP11st_mem_root@Base 10.11.8
 _ZN18QUICK_RANGE_SELECT24add_used_key_part_to_setEv@Base 10.11.8
 _ZN18QUICK_RANGE_SELECT4initEv@Base 10.11.8
 _ZN18QUICK_RANGE_SELECT5cloneEPb@Base 10.11.8
 _ZN18QUICK_RANGE_SELECT5resetEv@Base 10.11.8
 _ZN18QUICK_RANGE_SELECT8cmp_nextEP11QUICK_RANGE@Base 10.11.8
 _ZN18QUICK_RANGE_SELECT8cmp_prevEP11QUICK_RANGE@Base 10.11.8
 _ZN18QUICK_RANGE_SELECT8get_nextEv@Base 10.11.8
 _ZN18QUICK_RANGE_SELECT8get_typeEv@Base 10.11.8
 _ZN18QUICK_RANGE_SELECT9range_endEv@Base 10.11.8
 _ZN18QUICK_RANGE_SELECTC1EP3THDP5TABLEjbP11st_mem_rootPb@Base 10.11.8
 _ZN18QUICK_RANGE_SELECTC2EP3THDP5TABLEjbP11st_mem_rootPb@Base 10.11.8
 _ZN18QUICK_RANGE_SELECTD0Ev@Base 10.11.8
 _ZN18QUICK_RANGE_SELECTD1Ev@Base 10.11.8
 _ZN18QUICK_RANGE_SELECTD2Ev@Base 10.11.8
 _ZN18Range_rowid_filter5buildEv@Base 10.11.8
 _ZN18Range_rowid_filter5checkEPc@Base 10.11.8
 _ZN18Range_rowid_filterD0Ev@Base 10.11.8
 _ZN18Range_rowid_filterD1Ev@Base 10.11.8
 _ZN18Range_rowid_filterD2Ev@Base 10.11.8
 _ZN18Reprepare_observer12report_errorEP3THD@Base 10.11.8
 _ZN18Select_materialize24send_result_set_metadataER4ListI4ItemEj@Base 10.11.8
 _ZN18Select_materialize8send_eofEv@Base 10.11.8
 _ZN18Select_materializeD0Ev@Base 10.11.8
 _ZN18Select_materializeD1Ev@Base 10.11.8
 _ZN18Select_materializeD2Ev@Base 10.11.8
 _ZN18Server_side_cursor16export_structureEP3THDP19Row_definition_list@Base 10.11.8
 _ZN18Server_side_cursorD0Ev@Base 10.11.8
 _ZN18Server_side_cursorD1Ev@Base 10.11.8
 _ZN18Server_side_cursorD2Ev@Base 10.11.8
 _ZN18Server_side_cursordlEPvm@Base 10.11.8
 _ZN18Sp_handler_triggerD0Ev@Base 10.11.8
 _ZN18Sp_handler_triggerD1Ev@Base 10.11.8
 _ZN18Sp_handler_triggerD2Ev@Base 10.11.8
 _ZN18Start_log_event_v313get_data_sizeEv@Base 10.11.8
 _ZN18Start_log_event_v313get_type_codeEv@Base 10.11.8
 _ZN18Start_log_event_v314get_header_lenEy@Base 10.11.8
 _ZN18Start_log_event_v35writeEv@Base 10.11.8
 _ZN18Start_log_event_v3C1EPKhjPK28Format_description_log_event@Base 10.11.8
 _ZN18Start_log_event_v3C1Ev@Base 10.11.8
 _ZN18Start_log_event_v3C2EPKhjPK28Format_description_log_event@Base 10.11.8
 _ZN18Start_log_event_v3C2Ev@Base 10.11.8
 _ZN18Start_log_event_v3D0Ev@Base 10.11.8
 _ZN18Start_log_event_v3D1Ev@Base 10.11.8
 _ZN18Start_log_event_v3D2Ev@Base 10.11.8
 _ZN18Sys_var_proxy_user13global_updateEP3THDP7set_var@Base 10.11.8
 _ZN18Sys_var_proxy_user14session_updateEP3THDP7set_var@Base 10.11.8
 _ZN18Sys_var_proxy_user19global_save_defaultEP3THDP7set_var@Base 10.11.8
 _ZN18Sys_var_proxy_user20session_save_defaultEP3THDP7set_var@Base 10.11.8
 _ZN18Sys_var_proxy_user8do_checkEP3THDP7set_var@Base 10.11.8
 _ZN18Sys_var_proxy_userC1EPKcS1_@Base 10.11.8
 _ZN18Sys_var_proxy_userC2EPKcS1_@Base 10.11.8
 _ZN18Sys_var_proxy_userD0Ev@Base 10.11.8
 _ZN18Sys_var_proxy_userD1Ev@Base 10.11.8
 _ZN18Sys_var_proxy_userD2Ev@Base 10.11.8
 _ZN18Table_check_intact5checkEP5TABLEPK18st_table_field_def@Base 10.11.8
 _ZN18Temporal_with_date14make_from_itemEP3THDP4Item11date_mode_t@Base 10.11.8
 _ZN18Temporal_with_date24check_date_or_invalidateEPi16date_conv_mode_t@Base 10.11.8
 _ZN18Type_handler_floatD0Ev@Base 10.11.8
 _ZN18Type_handler_floatD1Ev@Base 10.11.8
 _ZN18Type_handler_floatD2Ev@Base 10.11.8
 _ZN18Type_handler_int24D0Ev@Base 10.11.8
 _ZN18Type_handler_int24D1Ev@Base 10.11.8
 _ZN18Type_handler_int24D2Ev@Base 10.11.8
 _ZN18Type_handler_pointD0Ev@Base 10.11.8
 _ZN18Type_handler_pointD1Ev@Base 10.11.8
 _ZN18Type_handler_pointD2Ev@Base 10.11.8
 _ZN18Type_handler_shortD0Ev@Base 10.11.8
 _ZN18Type_handler_shortD1Ev@Base 10.11.8
 _ZN18Type_handler_shortD2Ev@Base 10.11.8
 _ZN18Type_handler_time2D0Ev@Base 10.11.8
 _ZN18Type_handler_time2D1Ev@Base 10.11.8
 _ZN18Type_handler_time2D2Ev@Base 10.11.8
 _ZN18Type_handler_ulongD0Ev@Base 10.11.8
 _ZN18Type_handler_ulongD1Ev@Base 10.11.8
 _ZN18Type_handler_ulongD2Ev@Base 10.11.8
 _ZN18Type_handler_utinyD0Ev@Base 10.11.8
 _ZN18Type_handler_utinyD1Ev@Base 10.11.8
 _ZN18Type_handler_utinyD2Ev@Base 10.11.8
 _ZN18User_var_log_event13get_type_codeEv@Base 10.11.8
 _ZN18User_var_log_event5writeEv@Base 10.11.8
 _ZN18User_var_log_eventC1EPKhjPK28Format_description_log_event@Base 10.11.8
 _ZN18User_var_log_eventC2EPKhjPK28Format_description_log_event@Base 10.11.8
 _ZN18User_var_log_eventD0Ev@Base 10.11.8
 _ZN18User_var_log_eventD1Ev@Base 10.11.8
 _ZN18User_var_log_eventD2Ev@Base 10.11.8
 _ZN18Vers_history_point10check_unitEP3THD@Base 10.11.8
 _ZN18Vers_history_point8fix_itemEv@Base 10.11.8
 _ZN18Window_frame_bound5printEP6String15enum_query_type@Base 10.11.8
 _ZN18Window_func_runner19add_function_to_runEP16Item_window_func@Base 10.11.8
 _ZN18Window_func_runner4execEP3THDP5TABLEP9SORT_INFO@Base 10.11.8
 _ZN18base_list_iterator6removeEv@Base 10.11.8
 _ZN18cmp_item_timestamp11store_valueEP4Item@Base 10.11.8
 _ZN18cmp_item_timestamp12cmp_not_nullEPK5Value@Base 10.11.8
 _ZN18cmp_item_timestamp3cmpEP4Item@Base 10.11.8
 _ZN18cmp_item_timestamp7compareEP8cmp_item@Base 10.11.8
 _ZN18cmp_item_timestamp9make_sameEP3THD@Base 10.11.8
 _ZN18cmp_item_timestampD0Ev@Base 10.11.8
 _ZN18cmp_item_timestampD1Ev@Base 10.11.8
 _ZN18cmp_item_timestampD2Ev@Base 10.11.8
 _ZN18st_parsing_options5resetEv@Base 10.11.8
 _ZN18st_select_lex_node12fast_excludeEv@Base 10.11.8
 _ZN18st_select_lex_node12include_downEPS_@Base 10.11.8
 _ZN18st_select_lex_node13attach_singleEPS_@Base 10.11.8
 _ZN18st_select_lex_node13move_as_slaveEPS_@Base 10.11.8
 _ZN18st_select_lex_node14include_globalEPPS_@Base 10.11.8
 _ZN18st_select_lex_node15link_chain_downEPS_@Base 10.11.8
 _ZN18st_select_lex_node17exclude_from_treeEv@Base 10.11.8
 _ZN18st_select_lex_node17include_neighbourEPS_@Base 10.11.8
 _ZN18st_select_lex_node17init_query_commonEv@Base 10.11.8
 _ZN18st_select_lex_node18include_standaloneEPS_PS0_@Base 10.11.8
 _ZN18st_select_lex_node18substitute_in_treeEPS_@Base 10.11.8
 _ZN18st_select_lex_node19insert_chain_beforeEPPS_S0_@Base 10.11.8
 _ZN18st_select_lex_node7excludeEv@Base 10.11.8
 _ZN18st_select_lex_unit10init_queryEv@Base 10.11.8
 _ZN18st_select_lex_unit12fix_distinctEv@Base 10.11.8
 _ZN18st_select_lex_unit12prepare_joinEP3THDP13st_select_lexP13select_resultyb@Base 10.11.8
 _ZN18st_select_lex_unit13can_be_mergedEv@Base 10.11.8
 _ZN18st_select_lex_unit13change_resultEP25select_result_interceptorS1_@Base 10.11.8
 _ZN18st_select_lex_unit13exclude_levelEv@Base 10.11.8
 _ZN18st_select_lex_unit14exec_recursiveEv@Base 10.11.8
 _ZN18st_select_lex_unit14reset_distinctEv@Base 10.11.8
 _ZN18st_select_lex_unit14set_nest_levelEi@Base 10.11.8
 _ZN18st_select_lex_unit15set_with_clauseEP11With_clause@Base 10.11.8
 _ZN18st_select_lex_unit16check_parametersEP13st_select_lex@Base 10.11.8
 _ZN18st_select_lex_unit16get_column_typesEb@Base 10.11.8
 _ZN18st_select_lex_unit18save_union_explainEP13Explain_query@Base 10.11.8
 _ZN18st_select_lex_unit18set_unique_excludeEv@Base 10.11.8
 _ZN18st_select_lex_unit19add_fake_select_lexEP3THD@Base 10.11.8
 _ZN18st_select_lex_unit21join_union_item_typesEP3THDR4ListI4ItemEj@Base 10.11.8
 _ZN18st_select_lex_unit21register_select_chainEP13st_select_lex@Base 10.11.8
 _ZN18st_select_lex_unit21reinit_exec_mechanismEv@Base 10.11.8
 _ZN18st_select_lex_unit21union_needs_tmp_tableEv@Base 10.11.8
 _ZN18st_select_lex_unit22optimize_bag_operationEb@Base 10.11.8
 _ZN18st_select_lex_unit23check_distinct_in_unionEv@Base 10.11.8
 _ZN18st_select_lex_unit24join_union_type_handlersEP3THDP11Type_holderj@Base 10.11.8
 _ZN18st_select_lex_unit24save_union_explain_part2EP13Explain_query@Base 10.11.8
 _ZN18st_select_lex_unit26join_union_type_attributesEP3THDP11Type_holderj@Base 10.11.8
 _ZN18st_select_lex_unit27set_lock_to_the_last_selectE15Lex_select_lock@Base 10.11.8
 _ZN18st_select_lex_unit28init_prepare_fake_select_lexEP3THDb@Base 10.11.8
 _ZN18st_select_lex_unit4execEv@Base 10.11.8
 _ZN18st_select_lex_unit5printEP6String15enum_query_type@Base 10.11.8
 _ZN18st_select_lex_unit7cleanupEv@Base 10.11.8
 _ZN18st_select_lex_unit7prepareEP10TABLE_LISTP13select_resulty@Base 10.11.8
 _ZN18st_select_lex_unit8optimizeEv@Base 10.11.8
 _ZN18st_select_lex_unit9common_opEv@Base 10.11.8
 _ZN18st_select_lex_unit9set_limitEP13st_select_lex@Base 10.11.8
 _ZN18table_value_constr11walk_valuesEM4ItemFbPvEbS1_@Base 10.11.8
 _ZN18table_value_constr24save_explain_data_internEP3THDP13Explain_query@Base 10.11.8
 _ZN18table_value_constr26to_be_wrapped_as_with_tailEv@Base 10.11.8
 _ZN18table_value_constr4execEP13st_select_lex@Base 10.11.8
 _ZN18table_value_constr5printEP3THDP6String15enum_query_type@Base 10.11.8
 _ZN18table_value_constr7prepareEP3THDP13st_select_lexP13select_resultP18st_select_lex_unit@Base 10.11.8
 _ZN18table_value_constr8optimizeEP3THD@Base 10.11.8
 _ZN19Aggregator_distinct11arg_is_nullEb@Base 10.11.8
 _ZN19Aggregator_distinct12arg_val_realEv@Base 10.11.8
 _ZN19Aggregator_distinct15arg_val_decimalEP10my_decimal@Base 10.11.8
 _ZN19Aggregator_distinct17composite_key_cmpEPvPhS1_@Base 10.11.8
 _ZN19Aggregator_distinct20unique_walk_functionEPv@Base 10.11.8
 _ZN19Aggregator_distinct30unique_walk_function_for_countEPv@Base 10.11.8
 _ZN19Aggregator_distinct3addEv@Base 10.11.8
 _ZN19Aggregator_distinct5clearEv@Base 10.11.8
 _ZN19Aggregator_distinct5endupEv@Base 10.11.8
 _ZN19Aggregator_distinct5setupEP3THD@Base 10.11.8
 _ZN19Aggregator_distinct8AggrtypeEv@Base 10.11.8
 _ZN19Aggregator_distinctD0Ev@Base 10.11.8
 _ZN19Aggregator_distinctD1Ev@Base 10.11.8
 _ZN19Aggregator_distinctD2Ev@Base 10.11.8
 _ZN19Cached_item_decimal13cmp_read_onlyEv@Base 10.11.8
 _ZN19Cached_item_decimal3cmpEv@Base 10.11.8
 _ZN19Cached_item_decimalC1EP4Item@Base 10.11.8
 _ZN19Cached_item_decimalC2EP4Item@Base 10.11.8
 _ZN19Cached_item_decimalD0Ev@Base 10.11.8
 _ZN19Cached_item_decimalD1Ev@Base 10.11.8
 _ZN19Cached_item_decimalD2Ev@Base 10.11.8
 _ZN19Create_func_addtime11s_singletonE@Base 10.11.8
 _ZN19Create_func_addtime12create_2_argEP3THDP4ItemS3_@Base 10.11.8
 _ZN19Create_func_addtimeD0Ev@Base 10.11.8
 _ZN19Create_func_addtimeD1Ev@Base 10.11.8
 _ZN19Create_func_addtimeD2Ev@Base 10.11.8
 _ZN19Create_func_ceiling11s_singletonE@Base 10.11.8
 _ZN19Create_func_ceiling12create_1_argEP3THDP4Item@Base 10.11.8
 _ZN19Create_func_ceilingD0Ev@Base 10.11.8
 _ZN19Create_func_ceilingD1Ev@Base 10.11.8
 _ZN19Create_func_ceilingD2Ev@Base 10.11.8
 _ZN19Create_func_crosses11s_singletonE@Base 10.11.8
 _ZN19Create_func_crosses12create_2_argEP3THDP4ItemS3_@Base 10.11.8
 _ZN19Create_func_crossesD0Ev@Base 10.11.8
 _ZN19Create_func_crossesD1Ev@Base 10.11.8
 _ZN19Create_func_crossesD2Ev@Base 10.11.8
 _ZN19Create_func_dayname11s_singletonE@Base 10.11.8
 _ZN19Create_func_dayname12create_1_argEP3THDP4Item@Base 10.11.8
 _ZN19Create_func_daynameD0Ev@Base 10.11.8
 _ZN19Create_func_daynameD1Ev@Base 10.11.8
 _ZN19Create_func_daynameD2Ev@Base 10.11.8
 _ZN19Create_func_degrees11s_singletonE@Base 10.11.8
 _ZN19Create_func_degrees12create_1_argEP3THDP4Item@Base 10.11.8
 _ZN19Create_func_degreesD0Ev@Base 10.11.8
 _ZN19Create_func_degreesD1Ev@Base 10.11.8
 _ZN19Create_func_degreesD2Ev@Base 10.11.8
 _ZN19Create_func_encrypt11s_singletonE@Base 10.11.8
 _ZN19Create_func_encrypt13create_nativeEP3THDPK25st_mysql_const_lex_stringP4ListI4ItemE@Base 10.11.8
 _ZN19Create_func_encryptD0Ev@Base 10.11.8
 _ZN19Create_func_encryptD1Ev@Base 10.11.8
 _ZN19Create_func_encryptD2Ev@Base 10.11.8
 _ZN19Create_func_glength11s_singletonE@Base 10.11.8
 _ZN19Create_func_glength12create_1_argEP3THDP4Item@Base 10.11.8
 _ZN19Create_func_glengthD0Ev@Base 10.11.8
 _ZN19Create_func_glengthD1Ev@Base 10.11.8
 _ZN19Create_func_glengthD2Ev@Base 10.11.8
 _ZN19Create_func_isempty11s_singletonE@Base 10.11.8
 _ZN19Create_func_isempty12create_1_argEP3THDP4Item@Base 10.11.8
 _ZN19Create_func_isemptyD0Ev@Base 10.11.8
 _ZN19Create_func_isemptyD1Ev@Base 10.11.8
 _ZN19Create_func_isemptyD2Ev@Base 10.11.8
 _ZN19Create_func_quarter11s_singletonE@Base 10.11.8
 _ZN19Create_func_quarter12create_1_argEP3THDP4Item@Base 10.11.8
 _ZN19Create_func_quarterD0Ev@Base 10.11.8
 _ZN19Create_func_quarterD1Ev@Base 10.11.8
 _ZN19Create_func_quarterD2Ev@Base 10.11.8
 _ZN19Create_func_radians11s_singletonE@Base 10.11.8
 _ZN19Create_func_radians12create_1_argEP3THDP4Item@Base 10.11.8
 _ZN19Create_func_radiansD0Ev@Base 10.11.8
 _ZN19Create_func_radiansD1Ev@Base 10.11.8
 _ZN19Create_func_radiansD2Ev@Base 10.11.8
 _ZN19Create_func_reverse11s_singletonE@Base 10.11.8
 _ZN19Create_func_reverse12create_1_argEP3THDP4Item@Base 10.11.8
 _ZN19Create_func_reverseD0Ev@Base 10.11.8
 _ZN19Create_func_reverseD1Ev@Base 10.11.8
 _ZN19Create_func_reverseD2Ev@Base 10.11.8
 _ZN19Create_func_sformat11s_singletonE@Base 10.11.8
 _ZN19Create_func_sformat13create_nativeEP3THDPK25st_mysql_const_lex_stringP4ListI4ItemE@Base 10.11.8
 _ZN19Create_func_sformatD0Ev@Base 10.11.8
 _ZN19Create_func_sformatD1Ev@Base 10.11.8
 _ZN19Create_func_sformatD2Ev@Base 10.11.8
 _ZN19Create_func_soundex11s_singletonE@Base 10.11.8
 _ZN19Create_func_soundex12create_1_argEP3THDP4Item@Base 10.11.8
 _ZN19Create_func_soundexD0Ev@Base 10.11.8
 _ZN19Create_func_soundexD1Ev@Base 10.11.8
 _ZN19Create_func_soundexD2Ev@Base 10.11.8
 _ZN19Create_func_subtime11s_singletonE@Base 10.11.8
 _ZN19Create_func_subtime12create_2_argEP3THDP4ItemS3_@Base 10.11.8
 _ZN19Create_func_subtimeD0Ev@Base 10.11.8
 _ZN19Create_func_subtimeD1Ev@Base 10.11.8
 _ZN19Create_func_subtimeD2Ev@Base 10.11.8
 _ZN19Create_func_to_char11s_singletonE@Base 10.11.8
 _ZN19Create_func_to_char13create_nativeEP3THDPK25st_mysql_const_lex_stringP4ListI4ItemE@Base 10.11.8
 _ZN19Create_func_to_charD0Ev@Base 10.11.8
 _ZN19Create_func_to_charD1Ev@Base 10.11.8
 _ZN19Create_func_to_charD2Ev@Base 10.11.8
 _ZN19Create_func_to_days11s_singletonE@Base 10.11.8
 _ZN19Create_func_to_days12create_1_argEP3THDP4Item@Base 10.11.8
 _ZN19Create_func_to_daysD0Ev@Base 10.11.8
 _ZN19Create_func_to_daysD1Ev@Base 10.11.8
 _ZN19Create_func_to_daysD2Ev@Base 10.11.8
 _ZN19Create_func_touches11s_singletonE@Base 10.11.8
 _ZN19Create_func_touches12create_2_argEP3THDP4ItemS3_@Base 10.11.8
 _ZN19Create_func_touchesD0Ev@Base 10.11.8
 _ZN19Create_func_touchesD1Ev@Base 10.11.8
 _ZN19Create_func_touchesD2Ev@Base 10.11.8
 _ZN19Create_func_version11s_singletonE@Base 10.11.8
 _ZN19Create_func_version14create_builderEP3THD@Base 10.11.8
 _ZN19Create_func_versionD0Ev@Base 10.11.8
 _ZN19Create_func_versionD1Ev@Base 10.11.8
 _ZN19Create_func_versionD2Ev@Base 10.11.8
 _ZN19Create_func_weekday11s_singletonE@Base 10.11.8
 _ZN19Create_func_weekday12create_1_argEP3THDP4Item@Base 10.11.8
 _ZN19Create_func_weekdayD0Ev@Base 10.11.8
 _ZN19Create_func_weekdayD1Ev@Base 10.11.8
 _ZN19Create_func_weekdayD2Ev@Base 10.11.8
 _ZN19DTCollation_numeric9singletonEv@Base 10.11.8
 _ZN19Dummy_error_handler16handle_conditionEP3THDjPKcPN21Sql_state_errno_level18enum_warning_levelES3_PP13Sql_condition@Base 10.11.8
 _ZN19Dummy_error_handlerD0Ev@Base 10.11.8
 _ZN19Dummy_error_handlerD1Ev@Base 10.11.8
 _ZN19Dummy_error_handlerD2Ev@Base 10.11.8
 _ZN19Field_iterator_view11create_itemEP3THD@Base 10.11.8
 _ZN19Field_iterator_view13end_of_fieldsEv@Base 10.11.8
 _ZN19Field_iterator_view3setEP10TABLE_LIST@Base 10.11.8
 _ZN19Field_iterator_view4nameEv@Base 10.11.8
 _ZN19Field_iterator_view4nextEv@Base 10.11.8
 _ZN19Field_iterator_view5fieldEv@Base 10.11.8
 _ZN19Field_iterator_viewD0Ev@Base 10.11.8
 _ZN19Field_iterator_viewD1Ev@Base 10.11.8
 _ZN19Field_iterator_viewD2Ev@Base 10.11.8
 _ZN19Field_time_with_dec15make_send_fieldEP10Send_field@Base 10.11.8
 _ZN19Field_time_with_dec7val_intEv@Base 10.11.8
 _ZN19Field_time_with_dec8val_realEv@Base 10.11.8
 _ZN19Gcalc_scan_iterator11add_eq_nodeEPN10Gcalc_heap4InfoEPNS_5pointE@Base 10.11.8
 _ZN19Gcalc_scan_iterator13arrange_eventEii@Base 10.11.8
 _ZN19Gcalc_scan_iterator15get_pure_doubleEPKji@Base 10.11.8
 _ZN19Gcalc_scan_iterator15insert_top_nodeEv@Base 10.11.8
 _ZN19Gcalc_scan_iterator16add_intersectionEPNS_5pointES1_PN10Gcalc_heap4InfoE@Base 10.11.8
 _ZN19Gcalc_scan_iterator17intersection_info9do_calc_tEv@Base 10.11.8
 _ZN19Gcalc_scan_iterator17intersection_info9do_calc_xEv@Base 10.11.8
 _ZN19Gcalc_scan_iterator17intersection_info9do_calc_yEv@Base 10.11.8
 _ZN19Gcalc_scan_iterator17intersection_scanEv@Base 10.11.8
 _ZN19Gcalc_scan_iterator18remove_bottom_nodeEv@Base 10.11.8
 _ZN19Gcalc_scan_iterator19add_events_for_nodeEPNS_5pointE@Base 10.11.8
 _ZN19Gcalc_scan_iterator4initEP10Gcalc_heap@Base 10.11.8
 _ZN19Gcalc_scan_iterator4stepEv@Base 10.11.8
 _ZN19Gcalc_scan_iterator5point9cmp_dx_dyEPKN10Gcalc_heap4InfoES4_S4_S4_@Base 10.11.8
 _ZN19Gcalc_scan_iterator5point9cmp_dx_dyEPKjS2_S2_S2_@Base 10.11.8
 _ZN19Gcalc_scan_iterator5resetEv@Base 10.11.8
 _ZN19Gcalc_scan_iterator7eq_scanEv@Base 10.11.8
 _ZN19Gcalc_scan_iterator9node_scanEv@Base 10.11.8
 _ZN19Gcalc_scan_iteratorC1Em@Base 10.11.8
 _ZN19Gcalc_scan_iteratorC2Em@Base 10.11.8
 _ZN19Group_bound_trackerC1EP3THDP10SQL_I_ListI8st_orderE@Base 10.11.8
 _ZN19Group_bound_trackerC2EP3THDP10SQL_I_ListI8st_orderE@Base 10.11.8
 _ZN19Gtid_list_log_event13get_data_sizeEv@Base 10.11.8
 _ZN19Gtid_list_log_event13get_type_codeEv@Base 10.11.8
 _ZN19Gtid_list_log_event4peekEPKcm24enum_binlog_checksum_algPP8rpl_gtidPjPK28Format_description_log_event@Base 10.11.8
 _ZN19Gtid_list_log_eventC1EP16rpl_binlog_statej@Base 10.11.8
 _ZN19Gtid_list_log_eventC1EP22slave_connection_statej@Base 10.11.8
 _ZN19Gtid_list_log_eventC1EPKhjPK28Format_description_log_event@Base 10.11.8
 _ZN19Gtid_list_log_eventC2EP16rpl_binlog_statej@Base 10.11.8
 _ZN19Gtid_list_log_eventC2EP22slave_connection_statej@Base 10.11.8
 _ZN19Gtid_list_log_eventC2EPKhjPK28Format_description_log_event@Base 10.11.8
 _ZN19Gtid_list_log_eventD0Ev@Base 10.11.8
 _ZN19Gtid_list_log_eventD1Ev@Base 10.11.8
 _ZN19Gtid_list_log_eventD2Ev@Base 10.11.8
 _ZN19Ignorable_log_event13get_data_sizeEv@Base 10.11.8
 _ZN19Ignorable_log_event13get_type_codeEv@Base 10.11.8
 _ZN19Ignorable_log_event9pack_infoEP8Protocol@Base 10.11.8
 _ZN19Ignorable_log_eventC1EPKhPK28Format_description_log_eventPKc@Base 10.11.8
 _ZN19Ignorable_log_eventC2EPKhPK28Format_description_log_eventPKc@Base 10.11.8
 _ZN19Ignorable_log_eventD0Ev@Base 10.11.8
 _ZN19Ignorable_log_eventD1Ev@Base 10.11.8
 _ZN19Ignorable_log_eventD2Ev@Base 10.11.8
 _ZN19Interval_DDhhmmssff11m_type_nameE@Base 10.11.8
 _ZN19Interval_DDhhmmssff17str_to_DDhhmmssffEP20st_mysql_time_statusPKcmPK15charset_info_stm@Base 10.11.8
 _ZN19Interval_DDhhmmssff37push_warning_wrong_or_truncated_valueEP3THDRK7ErrConvi@Base 10.11.8
 _ZN19Interval_DDhhmmssff3fspEP3THDP4Item@Base 10.11.8
 _ZN19Interval_DDhhmmssffC1EP3THDPN8Temporal6StatusEbP4Itemm17time_round_mode_tj@Base 10.11.8
 _ZN19Interval_DDhhmmssffC2EP3THDPN8Temporal6StatusEbP4Itemm17time_round_mode_tj@Base 10.11.8
 _ZN19Item_cache_datetime11val_decimalEP10my_decimal@Base 10.11.8
 _ZN19Item_cache_datetime12make_literalEP3THD@Base 10.11.8
 _ZN19Item_cache_datetime15val_time_packedEP3THD@Base 10.11.8
 _ZN19Item_cache_datetime19val_datetime_packedEP3THD@Base 10.11.8
 _ZN19Item_cache_datetime7val_intEv@Base 10.11.8
 _ZN19Item_cache_datetime7val_strEP6String@Base 10.11.8
 _ZN19Item_cache_datetime8get_copyEP3THD@Base 10.11.8
 _ZN19Item_cache_datetime8val_realEv@Base 10.11.8
 _ZN19Item_cache_datetimeD0Ev@Base 10.11.8
 _ZN19Item_cache_datetimeD1Ev@Base 10.11.8
 _ZN19Item_cache_datetimeD2Ev@Base 10.11.8
 _ZN19Item_cache_temporal10clone_itemEP3THD@Base 10.11.8
 _ZN19Item_cache_temporal11cache_valueEv@Base 10.11.8
 _ZN19Item_cache_temporal12store_packedExP4Item@Base 10.11.8
 _ZN19Item_cache_temporal13save_in_fieldEP5Fieldb@Base 10.11.8
 _ZN19Item_cache_temporal27convert_to_basic_const_itemEP3THD@Base 10.11.8
 _ZN19Item_cache_temporal5setupEP3THDP4Item@Base 10.11.8
 _ZN19Item_cache_temporal8get_dateEP3THDP13st_mysql_time11date_mode_t@Base 10.11.8
 _ZN19Item_cache_temporalC1EP3THDPK12Type_handler@Base 10.11.8
 _ZN19Item_cache_temporalC2EP3THDPK12Type_handler@Base 10.11.8
 _ZN19Item_copy_timestamp10val_nativeEP3THDP6Native@Base 10.11.8
 _ZN19Item_copy_timestamp11val_decimalEP10my_decimal@Base 10.11.8
 _ZN19Item_copy_timestamp13save_in_fieldEP5Fieldb@Base 10.11.8
 _ZN19Item_copy_timestamp4copyEv@Base 10.11.8
 _ZN19Item_copy_timestamp7val_intEv@Base 10.11.8
 _ZN19Item_copy_timestamp7val_strEP6String@Base 10.11.8
 _ZN19Item_copy_timestamp8get_copyEP3THD@Base 10.11.8
 _ZN19Item_copy_timestamp8get_dateEP3THDP13st_mysql_time11date_mode_t@Base 10.11.8
 _ZN19Item_copy_timestamp8val_realEv@Base 10.11.8
 _ZN19Item_copy_timestampD0Ev@Base 10.11.8
 _ZN19Item_copy_timestampD1Ev@Base 10.11.8
 _ZN19Item_copy_timestampD2Ev@Base 10.11.8
 _ZN19Item_float_typecast18fix_length_and_decEP3THD@Base 10.11.8
 _ZN19Item_float_typecast7val_strEP6String@Base 10.11.8
 _ZN19Item_float_typecast8get_copyEP3THD@Base 10.11.8
 _ZN19Item_float_typecast8val_realEv@Base 10.11.8
 _ZN19Item_float_typecastD0Ev@Base 10.11.8
 _ZN19Item_float_typecastD1Ev@Base 10.11.8
 _ZN19Item_float_typecastD2Ev@Base 10.11.8
 _ZN19Item_func_benchmark18fix_length_and_decEP3THD@Base 10.11.8
 _ZN19Item_func_benchmark25check_vcol_func_processorEPv@Base 10.11.8
 _ZN19Item_func_benchmark5printEP6String15enum_query_type@Base 10.11.8
 _ZN19Item_func_benchmark7val_intEv@Base 10.11.8
 _ZN19Item_func_benchmark8get_copyEP3THD@Base 10.11.8
 _ZN19Item_func_benchmarkD0Ev@Base 10.11.8
 _ZN19Item_func_benchmarkD1Ev@Base 10.11.8
 _ZN19Item_func_benchmarkD2Ev@Base 10.11.8
 _ZN19Item_func_bit_count18fix_length_and_decEP3THD@Base 10.11.8
 _ZN19Item_func_bit_count8get_copyEP3THD@Base 10.11.8
 _ZN19Item_func_bit_countD0Ev@Base 10.11.8
 _ZN19Item_func_bit_countD1Ev@Base 10.11.8
 _ZN19Item_func_bit_countD2Ev@Base 10.11.8
 _ZN19Item_func_collation7val_strEP6String@Base 10.11.8
 _ZN19Item_func_collation8get_copyEP3THD@Base 10.11.8
 _ZN19Item_func_collationD0Ev@Base 10.11.8
 _ZN19Item_func_collationD1Ev@Base 10.11.8
 _ZN19Item_func_collationD2Ev@Base 10.11.8
 _ZN19Item_func_concat_ws18fix_length_and_decEP3THD@Base 10.11.8
 _ZN19Item_func_concat_ws7val_strEP6String@Base 10.11.8
 _ZN19Item_func_concat_ws8get_copyEP3THD@Base 10.11.8
 _ZN19Item_func_concat_wsD0Ev@Base 10.11.8
 _ZN19Item_func_concat_wsD1Ev@Base 10.11.8
 _ZN19Item_func_concat_wsD2Ev@Base 10.11.8
 _ZN19Item_func_dayofyear18fix_length_and_decEP3THD@Base 10.11.8
 _ZN19Item_func_dayofyear25check_vcol_func_processorEPv@Base 10.11.8
 _ZN19Item_func_dayofyear30check_partition_func_processorEPv@Base 10.11.8
 _ZN19Item_func_dayofyear31check_valid_arguments_processorEPv@Base 10.11.8
 _ZN19Item_func_dayofyear7val_intEv@Base 10.11.8
 _ZN19Item_func_dayofyear8get_copyEP3THD@Base 10.11.8
 _ZN19Item_func_dayofyearD0Ev@Base 10.11.8
 _ZN19Item_func_dayofyearD1Ev@Base 10.11.8
 _ZN19Item_func_dayofyearD2Ev@Base 10.11.8
 _ZN19Item_func_dimension18fix_length_and_decEP3THD@Base 10.11.8
 _ZN19Item_func_dimension7val_intEv@Base 10.11.8
 _ZN19Item_func_dimension8get_copyEP3THD@Base 10.11.8
 _ZN19Item_func_dimensionD0Ev@Base 10.11.8
 _ZN19Item_func_dimensionD1Ev@Base 10.11.8
 _ZN19Item_func_dimensionD2Ev@Base 10.11.8
 _ZN19Item_func_from_days25check_vcol_func_processorEPv@Base 10.11.8
 _ZN19Item_func_from_days30check_partition_func_processorEPv@Base 10.11.8
 _ZN19Item_func_from_days31check_valid_arguments_processorEPv@Base 10.11.8
 _ZN19Item_func_from_days8get_copyEP3THD@Base 10.11.8
 _ZN19Item_func_from_days8get_dateEP3THDP13st_mysql_time11date_mode_t@Base 10.11.8
 _ZN19Item_func_from_daysD0Ev@Base 10.11.8
 _ZN19Item_func_from_daysD1Ev@Base 10.11.8
 _ZN19Item_func_from_daysD2Ev@Base 10.11.8
 _ZN19Item_func_isnotnull15neg_transformerEP3THD@Base 10.11.8
 _ZN19Item_func_isnotnull5printEP6String15enum_query_type@Base 10.11.8
 _ZN19Item_func_isnotnull7val_intEv@Base 10.11.8
 _ZN19Item_func_isnotnull8get_copyEP3THD@Base 10.11.8
 _ZN19Item_func_isnotnullD0Ev@Base 10.11.8
 _ZN19Item_func_isnotnullD1Ev@Base 10.11.8
 _ZN19Item_func_isnotnullD2Ev@Base 10.11.8
 _ZN19Item_func_isnottrue20eval_not_null_tablesEPv@Base 10.11.8
 _ZN19Item_func_isnottrue20find_not_null_fieldsEy@Base 10.11.8
 _ZN19Item_func_isnottrue8get_copyEP3THD@Base 10.11.8
 _ZN19Item_func_isnottrueD0Ev@Base 10.11.8
 _ZN19Item_func_isnottrueD1Ev@Base 10.11.8
 _ZN19Item_func_isnottrueD2Ev@Base 10.11.8
 _ZN19Item_func_json_keys18fix_length_and_decEP3THD@Base 10.11.8
 _ZN19Item_func_json_keys7val_strEP6String@Base 10.11.8
 _ZN19Item_func_json_keys8get_copyEP3THD@Base 10.11.8
 _ZN19Item_func_json_keysD0Ev@Base 10.11.8
 _ZN19Item_func_json_keysD1Ev@Base 10.11.8
 _ZN19Item_func_json_keysD2Ev@Base 10.11.8
 _ZN19Item_func_json_type18fix_length_and_decEP3THD@Base 10.11.8
 _ZN19Item_func_json_type7val_strEP6String@Base 10.11.8
 _ZN19Item_func_json_type8get_copyEP3THD@Base 10.11.8
 _ZN19Item_func_json_typeD0Ev@Base 10.11.8
 _ZN19Item_func_json_typeD1Ev@Base 10.11.8
 _ZN19Item_func_json_typeD2Ev@Base 10.11.8
 _ZN19Item_func_monthname18fix_length_and_decEP3THD@Base 10.11.8
 _ZN19Item_func_monthname25check_vcol_func_processorEPv@Base 10.11.8
 _ZN19Item_func_monthname30check_partition_func_processorEPv@Base 10.11.8
 _ZN19Item_func_monthname31check_valid_arguments_processorEPv@Base 10.11.8
 _ZN19Item_func_monthname7val_strEP6String@Base 10.11.8
 _ZN19Item_func_monthname8get_copyEP3THD@Base 10.11.8
 _ZN19Item_func_monthnameD0Ev@Base 10.11.8
 _ZN19Item_func_monthnameD1Ev@Base 10.11.8
 _ZN19Item_func_monthnameD2Ev@Base 10.11.8
 _ZN19Item_func_now_local13save_in_fieldEP5Fieldb@Base 10.11.8
 _ZN19Item_func_now_local17store_now_in_TIMEEP3THDP13st_mysql_time@Base 10.11.8
 _ZN19Item_func_now_local8get_copyEP3THD@Base 10.11.8
 _ZN19Item_func_now_localD0Ev@Base 10.11.8
 _ZN19Item_func_now_localD1Ev@Base 10.11.8
 _ZN19Item_func_now_localD2Ev@Base 10.11.8
 _ZN19Item_func_numhybrid6str_opEP6String@Base 10.11.8
 _ZN19Item_func_numhybrid7date_opEP3THDP13st_mysql_time11date_mode_t@Base 10.11.8
 _ZN19Item_func_numhybrid7time_opEP3THDP13st_mysql_time@Base 10.11.8
 _ZN19Item_func_numhybrid9native_opEP3THDP6Native@Base 10.11.8
 _ZN19Item_func_numpoints18fix_length_and_decEP3THD@Base 10.11.8
 _ZN19Item_func_numpoints7val_intEv@Base 10.11.8
 _ZN19Item_func_numpoints8get_copyEP3THD@Base 10.11.8
 _ZN19Item_func_numpointsD0Ev@Base 10.11.8
 _ZN19Item_func_numpointsD1Ev@Base 10.11.8
 _ZN19Item_func_numpointsD2Ev@Base 10.11.8
 _ZN19Item_func_row_count18fix_length_and_decEP3THD@Base 10.11.8
 _ZN19Item_func_row_count25check_vcol_func_processorEPv@Base 10.11.8
 _ZN19Item_func_row_count7val_intEv@Base 10.11.8
 _ZN19Item_func_row_count8get_copyEP3THD@Base 10.11.8
 _ZN19Item_func_row_countD0Ev@Base 10.11.8
 _ZN19Item_func_row_countD1Ev@Base 10.11.8
 _ZN19Item_func_row_countD2Ev@Base 10.11.8
 _ZN19Item_func_timestamp18fix_length_and_decEP3THD@Base 10.11.8
 _ZN19Item_func_timestamp8get_copyEP3THD@Base 10.11.8
 _ZN19Item_func_timestamp8get_dateEP3THDP13st_mysql_time11date_mode_t@Base 10.11.8
 _ZN19Item_func_timestampD0Ev@Base 10.11.8
 _ZN19Item_func_timestampD1Ev@Base 10.11.8
 _ZN19Item_func_timestampD2Ev@Base 10.11.8
 _ZN19Item_func_to_base6413val_str_asciiEP6String@Base 10.11.8
 _ZN19Item_func_to_base6418fix_length_and_decEP3THD@Base 10.11.8
 _ZN19Item_func_to_base648get_copyEP3THD@Base 10.11.8
 _ZN19Item_func_to_base64D0Ev@Base 10.11.8
 _ZN19Item_func_to_base64D1Ev@Base 10.11.8
 _ZN19Item_func_to_base64D2Ev@Base 10.11.8
 _ZN19Item_func_trig_cond14add_key_fieldsEP4JOINPP9KEY_FIELDPjyPP14SARGABLE_PARAM@Base 10.11.8
 _ZN19Item_func_trig_cond7val_intEv@Base 10.11.8
 _ZN19Item_func_trig_cond8get_copyEP3THD@Base 10.11.8
 _ZN19Item_func_trig_condD0Ev@Base 10.11.8
 _ZN19Item_func_trig_condD1Ev@Base 10.11.8
 _ZN19Item_func_trig_condD2Ev@Base 10.11.8
 _ZN19Item_func_udf_float11val_decimalEP10my_decimal@Base 10.11.8
 _ZN19Item_func_udf_float18fix_length_and_decEP3THD@Base 10.11.8
 _ZN19Item_func_udf_float7val_intEv@Base 10.11.8
 _ZN19Item_func_udf_float7val_strEP6String@Base 10.11.8
 _ZN19Item_func_udf_float8get_copyEP3THD@Base 10.11.8
 _ZN19Item_func_udf_float8val_realEv@Base 10.11.8
 _ZN19Item_func_udf_floatD0Ev@Base 10.11.8
 _ZN19Item_func_udf_floatD1Ev@Base 10.11.8
 _ZN19Item_func_udf_floatD2Ev@Base 10.11.8
 _ZN19Item_func_xpath_sum8get_copyEP3THD@Base 10.11.8
 _ZN19Item_func_xpath_sum8val_realEv@Base 10.11.8
 _ZN19Item_func_xpath_sumD0Ev@Base 10.11.8
 _ZN19Item_func_xpath_sumD1Ev@Base 10.11.8
 _ZN19Item_func_xpath_sumD2Ev@Base 10.11.8
 _ZN19Item_sum_dense_rank11reset_fieldEv@Base 10.11.8
 _ZN19Item_sum_dense_rank12update_fieldEv@Base 10.11.8
 _ZN19Item_sum_dense_rank17setup_window_funcEP3THDP11Window_spec@Base 10.11.8
 _ZN19Item_sum_dense_rank3addEv@Base 10.11.8
 _ZN19Item_sum_dense_rank5clearEv@Base 10.11.8
 _ZN19Item_sum_dense_rank7cleanupEv@Base 10.11.8
 _ZN19Item_sum_dense_rank7val_intEv@Base 10.11.8
 _ZN19Item_sum_dense_rank8get_copyEP3THD@Base 10.11.8
 _ZN19Item_sum_dense_rankD0Ev@Base 10.11.8
 _ZN19Item_sum_dense_rankD1Ev@Base 10.11.8
 _ZN19Item_sum_dense_rankD2Ev@Base 10.11.8
 _ZN19Item_sum_last_value8get_copyEP3THD@Base 10.11.8
 _ZN19Item_sum_last_valueD0Ev@Base 10.11.8
 _ZN19Item_sum_last_valueD1Ev@Base 10.11.8
 _ZN19Item_sum_last_valueD2Ev@Base 10.11.8
 _ZN19Item_sum_row_number11reset_fieldEv@Base 10.11.8
 _ZN19Item_sum_row_number12update_fieldEv@Base 10.11.8
 _ZN19Item_sum_row_number3addEv@Base 10.11.8
 _ZN19Item_sum_row_number5clearEv@Base 10.11.8
 _ZN19Item_sum_row_number7val_intEv@Base 10.11.8
 _ZN19Item_sum_row_number8get_copyEP3THD@Base 10.11.8
 _ZN19Item_sum_row_numberD0Ev@Base 10.11.8
 _ZN19Item_sum_row_numberD1Ev@Base 10.11.8
 _ZN19Item_sum_row_numberD2Ev@Base 10.11.8
 _ZN19Item_variance_field11val_decimalEP10my_decimal@Base 10.11.8
 _ZN19Item_variance_field7is_nullEv@Base 10.11.8
 _ZN19Item_variance_field7val_intEv@Base 10.11.8
 _ZN19Item_variance_field7val_strEP6String@Base 10.11.8
 _ZN19Item_variance_field8get_copyEP3THD@Base 10.11.8
 _ZN19Item_variance_field8val_realEv@Base 10.11.8
 _ZN19Item_variance_fieldD0Ev@Base 10.11.8
 _ZN19Item_variance_fieldD1Ev@Base 10.11.8
 _ZN19Item_variance_fieldD2Ev@Base 10.11.8
 _ZN19Json_path_extractor7extractEP6StringP4ItemS3_PK15charset_info_st@Base 10.11.8
 _ZN19Log_event_data_type26unpack_optional_attributesEPKcS1_@Base 10.11.8
 _ZN19Materialized_cursor16export_structureEP3THDP19Row_definition_list@Base 10.11.8
 _ZN19Materialized_cursor22on_table_fill_finishedEv@Base 10.11.8
 _ZN19Materialized_cursor24send_result_set_metadataEP3THDR4ListI4ItemE@Base 10.11.8
 _ZN19Materialized_cursor4openEP4JOIN@Base 10.11.8
 _ZN19Materialized_cursor5closeEv@Base 10.11.8
 _ZN19Materialized_cursor5fetchEm@Base 10.11.8
 _ZN19Materialized_cursorC1EP13select_resultP5TABLE@Base 10.11.8
 _ZN19Materialized_cursorC2EP13select_resultP5TABLE@Base 10.11.8
 _ZN19Materialized_cursorD0Ev@Base 10.11.8
 _ZN19Materialized_cursorD1Ev@Base 10.11.8
 _ZN19Materialized_cursorD2Ev@Base 10.11.8
 _ZN19Natural_join_column11create_itemEP3THD@Base 10.11.8
 _ZN19Natural_join_column12safe_db_nameEv@Base 10.11.8
 _ZN19Natural_join_column15safe_table_nameEv@Base 10.11.8
 _ZN19Natural_join_column4nameEv@Base 10.11.8
 _ZN19Natural_join_column5fieldEv@Base 10.11.8
 _ZN19Natural_join_column5grantEv@Base 10.11.8
 _ZN19Natural_join_columnC1EP10Item_fieldP10TABLE_LIST@Base 10.11.8
 _ZN19Natural_join_columnC1EP16Field_translatorP10TABLE_LIST@Base 10.11.8
 _ZN19Natural_join_columnC2EP10Item_fieldP10TABLE_LIST@Base 10.11.8
 _ZN19Natural_join_columnC2EP16Field_translatorP10TABLE_LIST@Base 10.11.8
 _ZN19Object_creation_ctx11restore_envEP3THDPS_@Base 10.11.8
 _ZN19Object_creation_ctx12set_n_backupEP3THD@Base 10.11.8
 _ZN19Prelocking_strategy10handle_endEP3THD@Base 10.11.8
 _ZN19Prelocking_strategy5resetEP3THD@Base 10.11.8
 _ZN19Query_arena_memrootD0Ev@Base 10.11.8
 _ZN19Query_arena_memrootD1Ev@Base 10.11.8
 _ZN19Query_arena_memrootD2Ev@Base 10.11.8
 _ZN19Row_definition_list11append_uniqEP11st_mem_rootP16Spvar_definition@Base 10.11.8
 _ZN19Row_definition_list17resolve_type_refsEP3THD@Base 10.11.8
 _ZN19Row_definition_list37adjust_formal_params_to_actual_paramsEP3THDP4ListI4ItemE@Base 10.11.8
 _ZN19Row_definition_list37adjust_formal_params_to_actual_paramsEP3THDPP4Itemj@Base 10.11.8
 _ZN19Row_definition_list4makeEP11st_mem_rootP16Spvar_definition@Base 10.11.8
 _ZN19SEQUENCE_LAST_VALUE11set_versionEP5TABLE@Base 10.11.8
 _ZN19SEQUENCE_LAST_VALUE13check_versionEP5TABLE@Base 10.11.8
 _ZN19Sp_handler_functionD0Ev@Base 10.11.8
 _ZN19Sp_handler_functionD1Ev@Base 10.11.8
 _ZN19Sp_handler_functionD2Ev@Base 10.11.8
 _ZN19Sql_cmd_alter_table26option_storage_engine_nameEv@Base 10.11.8
 _ZN19Sql_cmd_alter_table7executeEP3THD@Base 10.11.8
 _ZN19Sql_cmd_alter_tableD0Ev@Base 10.11.8
 _ZN19Sql_cmd_alter_tableD1Ev@Base 10.11.8
 _ZN19Sql_cmd_alter_tableD2Ev@Base 10.11.8
 _ZN19Sql_cmd_check_table7executeEP3THD@Base 10.11.8
 _ZN19Sql_cmd_check_tableD0Ev@Base 10.11.8
 _ZN19Sql_cmd_check_tableD1Ev@Base 10.11.8
 _ZN19Sql_cmd_check_tableD2Ev@Base 10.11.8
 _ZN19Sql_cmd_grant_proxy7executeEP3THD@Base 10.11.8
 _ZN19Sql_cmd_grant_proxyD0Ev@Base 10.11.8
 _ZN19Sql_cmd_grant_proxyD1Ev@Base 10.11.8
 _ZN19Sql_cmd_grant_proxyD2Ev@Base 10.11.8
 _ZN19Sql_cmd_grant_table7executeEP3THD@Base 10.11.8
 _ZN19Sql_cmd_grant_tableD0Ev@Base 10.11.8
 _ZN19Sql_cmd_grant_tableD1Ev@Base 10.11.8
 _ZN19Sql_cmd_grant_tableD2Ev@Base 10.11.8
 _ZN19Sql_condition_itemsD1Ev@Base 10.11.8
 _ZN19Sql_condition_itemsD2Ev@Base 10.11.8
 _ZN19Storage_engine_name33resolve_storage_engine_with_errorEP3THDPP10handlertonb@Base 10.11.8
 _ZN19TABLE_STATISTICS_CB21update_stats_in_tableEP5TABLE@Base 10.11.8
 _ZN19TABLE_STATISTICS_CBC1Ev@Base 10.11.8
 _ZN19TABLE_STATISTICS_CBC2Ev@Base 10.11.8
 _ZN19TABLE_STATISTICS_CBD1Ev@Base 10.11.8
 _ZN19TABLE_STATISTICS_CBD2Ev@Base 10.11.8
 _ZN19TRP_INDEX_INTERSECT10make_quickEP5PARAMbP11st_mem_root@Base 10.11.8
 _ZN19TRP_INDEX_INTERSECTD0Ev@Base 10.11.8
 _ZN19TRP_INDEX_INTERSECTD1Ev@Base 10.11.8
 _ZN19TRP_INDEX_INTERSECTD2Ev@Base 10.11.8
 _ZN19Table_map_log_event13get_data_sizeEv@Base 10.11.8
 _ZN19Table_map_log_event13get_type_codeEv@Base 10.11.8
 _ZN19Table_map_log_event13logged_statusEv@Base 10.11.8
 _ZN19Table_map_log_event15write_data_bodyEv@Base 10.11.8
 _ZN19Table_map_log_event16is_part_of_groupEv@Base 10.11.8
 _ZN19Table_map_log_event17write_data_headerEv@Base 10.11.8
 _ZN19Table_map_log_event18init_charset_fieldEPFbP16Binlog_type_infoP5FieldENS_28Optional_metadata_field_typeES6_@Base 10.11.8
 _ZN19Table_map_log_event19save_field_metadataEv@Base 10.11.8
 _ZN19Table_map_log_event20init_metadata_fieldsEv@Base 10.11.8
 _ZN19Table_map_log_event21init_signedness_fieldEv@Base 10.11.8
 _ZN19Table_map_log_event22init_column_name_fieldEv@Base 10.11.8
 _ZN19Table_map_log_event22init_primary_key_fieldEv@Base 10.11.8
 _ZN19Table_map_log_event24Optional_metadata_fieldsC1EPhj@Base 10.11.8
 _ZN19Table_map_log_event24Optional_metadata_fieldsC2EPhj@Base 10.11.8
 _ZN19Table_map_log_event24init_geometry_type_fieldEv@Base 10.11.8
 _ZN19Table_map_log_event24init_set_str_value_fieldEv@Base 10.11.8
 _ZN19Table_map_log_event25init_enum_str_value_fieldEv@Base 10.11.8
 _ZN19Table_map_log_event6get_dbEv@Base 10.11.8
 _ZN19Table_map_log_eventC1EP3THDP5TABLEyb@Base 10.11.8
 _ZN19Table_map_log_eventC2EP3THDP5TABLEyb@Base 10.11.8
 _ZN19Table_map_log_eventD0Ev@Base 10.11.8
 _ZN19Table_map_log_eventD1Ev@Base 10.11.8
 _ZN19Table_map_log_eventD2Ev@Base 10.11.8
 _ZN19Table_triggers_list11add_triggerE14trg_event_type20trg_action_time_type18trigger_order_typeP25st_mysql_const_lex_stringP7Trigger@Base 10.11.8
 _ZN19Table_triggers_list11empty_listsEv@Base 10.11.8
 _ZN19Table_triggers_list12check_n_loadEP3THDPK25st_mysql_const_lex_stringS4_P5TABLEb@Base 10.11.8
 _ZN19Table_triggers_list12drop_triggerEP3THDP10TABLE_LISTP25st_mysql_const_lex_stringP6StringP16st_ddl_log_state@Base 10.11.8
 _ZN19Table_triggers_list12find_triggerEPK25st_mysql_const_lex_stringb@Base 10.11.8
 _ZN19Table_triggers_list14create_triggerEP3THDP10TABLE_LISTP6StringP16st_ddl_log_stateS7_@Base 10.11.8
 _ZN19Table_triggers_list16for_all_triggersEM7TriggerFbPvES1_@Base 10.11.8
 _ZN19Table_triggers_list16mark_fields_usedE14trg_event_type@Base 10.11.8
 _ZN19Table_triggers_list16process_triggersEP3THD14trg_event_type20trg_action_time_typeb@Base 10.11.8
 _ZN19Table_triggers_list17change_table_nameEP3THDP20TRIGGER_RENAME_PARAMPK25st_mysql_const_lex_stringS6_S6_S6_S6_@Base 10.11.8
 _ZN19Table_triggers_list17drop_all_triggersEP3THDPK25st_mysql_const_lex_stringS4_m@Base 10.11.8
 _ZN19Table_triggers_list17save_trigger_fileEP3THDPK25st_mysql_const_lex_stringS4_@Base 10.11.8
 _ZN19Table_triggers_list18prepare_for_renameEP3THDP20TRIGGER_RENAME_PARAMPK25st_mysql_const_lex_stringS6_S6_S6_S6_@Base 10.11.8
 _ZN19Table_triggers_list23set_parse_error_messageEPc@Base 10.11.8
 _ZN19Table_triggers_list24prepare_record_accessorsEP5TABLE@Base 10.11.8
 _ZN19Table_triggers_list29change_table_name_in_triggersEP3THDPK25st_mysql_const_lex_stringS4_S4_S4_@Base 10.11.8
 _ZN19Table_triggers_list29create_lists_needed_for_filesEP11st_mem_root@Base 10.11.8
 _ZN19Table_triggers_list30change_table_name_in_trignamesEPK25st_mysql_const_lex_stringS2_S2_P7Trigger@Base 10.11.8
 _ZN19Table_triggers_list36add_tables_and_routines_for_triggersEP3THDP17Query_tables_listP10TABLE_LIST@Base 10.11.8
 _ZN19Table_triggers_listD1Ev@Base 10.11.8
 _ZN19Table_triggers_listD2Ev@Base 10.11.8
 _ZN19TemporalAsciiBufferC1EPKcmPK15charset_info_st@Base 10.11.8
 _ZN19TemporalAsciiBufferC2EPKcmPK15charset_info_st@Base 10.11.8
 _ZN19Type_collection_row4initEP17Type_handler_data@Base 10.11.8
 _ZN19Type_collection_rowD0Ev@Base 10.11.8
 _ZN19Type_collection_rowD1Ev@Base 10.11.8
 _ZN19Type_collection_rowD2Ev@Base 10.11.8
 _ZN19Type_collection_stdD0Ev@Base 10.11.8
 _ZN19Type_collection_stdD1Ev@Base 10.11.8
 _ZN19Type_collection_stdD2Ev@Base 10.11.8
 _ZN19Type_handler_doubleD0Ev@Base 10.11.8
 _ZN19Type_handler_doubleD1Ev@Base 10.11.8
 _ZN19Type_handler_doubleD2Ev@Base 10.11.8
 _ZN19Type_handler_stringD0Ev@Base 10.11.8
 _ZN19Type_handler_stringD1Ev@Base 10.11.8
 _ZN19Type_handler_stringD2Ev@Base 10.11.8
 _ZN19Type_handler_uint24D0Ev@Base 10.11.8
 _ZN19Type_handler_uint24D1Ev@Base 10.11.8
 _ZN19Type_handler_uint24D2Ev@Base 10.11.8
 _ZN19Type_handler_ushortD0Ev@Base 10.11.8
 _ZN19Type_handler_ushortD1Ev@Base 10.11.8
 _ZN19Type_handler_ushortD2Ev@Base 10.11.8
 _ZN19Type_std_attributes19agg_item_collationsER11DTCollationRK25st_mysql_const_lex_stringPP4Itemjji@Base 10.11.8
 _ZN19Type_std_attributes22agg_item_set_converterERK11DTCollationRK25st_mysql_const_lex_stringPP4ItemjjiPKNS_15Single_coll_errE@Base 10.11.8
 _ZN19Type_std_attributes27aggregate_attributes_stringERK25st_mysql_const_lex_stringPP4Itemj@Base 10.11.8
 _ZN19Vers_type_timestampD0Ev@Base 10.11.8
 _ZN19Vers_type_timestampD1Ev@Base 10.11.8
 _ZN19Vers_type_timestampD2Ev@Base 10.11.8
 _ZN19Virtual_column_info16fix_session_exprEP3THD@Base 10.11.8
 _ZN19Virtual_column_info18fix_and_check_exprEP3THDP5TABLE@Base 10.11.8
 _ZN19Virtual_column_info20cleanup_session_exprEv@Base 10.11.8
 _ZN19Virtual_column_info5cloneEP3THD@Base 10.11.8
 _ZN19Virtual_column_info8fix_exprEP3THD@Base 10.11.8
 _ZN19engine_option_value10frm_lengthEv@Base 10.11.8
 _ZN19engine_option_value4linkEPPS_S1_@Base 10.11.8
 _ZN19engine_option_value8frm_readEPKhS1_PPS_S3_P11st_mem_root@Base 10.11.8
 _ZN19engine_option_value9frm_imageEPh@Base 10.11.8
 _ZN19my_var_sp_row_field3setEP3THDP4Item@Base 10.11.8
 _ZN19my_var_sp_row_fieldD0Ev@Base 10.11.8
 _ZN19my_var_sp_row_fieldD1Ev@Base 10.11.8
 _ZN19my_var_sp_row_fieldD2Ev@Base 10.11.8
 _ZN19select_send_analyze16abort_result_setEv@Base 10.11.8
 _ZN19select_send_analyze24send_result_set_metadataER4ListI4ItemEj@Base 10.11.8
 _ZN19select_send_analyze8send_eofEv@Base 10.11.8
 _ZN19select_send_analyzeD0Ev@Base 10.11.8
 _ZN19select_send_analyzeD1Ev@Base 10.11.8
 _ZN19select_send_analyzeD2Ev@Base 10.11.8
 _ZN19select_union_direct13begin_datasetEv@Base 10.11.8
 _ZN19select_union_direct13change_resultEP13select_result@Base 10.11.8
 _ZN19select_union_direct16abort_result_setEv@Base 10.11.8
 _ZN19select_union_direct17initialize_tablesEP4JOIN@Base 10.11.8
 _ZN19select_union_direct17postponed_prepareER4ListI4ItemE@Base 10.11.8
 _ZN19select_union_direct24send_result_set_metadataER4ListI4ItemEj@Base 10.11.8
 _ZN19select_union_direct5flushEv@Base 10.11.8
 _ZN19select_union_direct7cleanupEv@Base 10.11.8
 _ZN19select_union_direct8send_eofEv@Base 10.11.8
 _ZN19select_union_direct9send_dataER4ListI4ItemE@Base 10.11.8
 _ZN19select_union_directD0Ev@Base 10.11.8
 _ZN19select_union_directD1Ev@Base 10.11.8
 _ZN19select_union_directD2Ev@Base 10.11.8
 _ZN19sequence_definition11read_fieldsEP5TABLE@Base 10.11.8
 _ZN19sequence_definition12store_fieldsEP5TABLE@Base 10.11.8
 _ZN19sequence_definition13adjust_valuesEx@Base 10.11.8
 _ZN19sequence_definition16check_and_adjustEb@Base 10.11.8
 _ZN19sequence_definition22write_initial_sequenceEP5TABLE@Base 10.11.8
 _ZN19sequence_definition5writeEP5TABLEb@Base 10.11.8
 _ZN19sp_instr_agg_cfetch12get_psi_infoEv@Base 10.11.8
 _ZN19sp_instr_agg_cfetch5printEP6String@Base 10.11.8
 _ZN19sp_instr_agg_cfetch7executeEP3THDPj@Base 10.11.8
 _ZN19sp_instr_agg_cfetch8psi_infoE@Base 10.11.8
 _ZN19sp_instr_agg_cfetchD0Ev@Base 10.11.8
 _ZN19sp_instr_agg_cfetchD1Ev@Base 10.11.8
 _ZN19sp_instr_agg_cfetchD2Ev@Base 10.11.8
 _ZN19sp_instr_hpush_jump12get_psi_infoEv@Base 10.11.8
 _ZN19sp_instr_hpush_jump17opt_shortcut_jumpEP7sp_headP8sp_instr@Base 10.11.8
 _ZN19sp_instr_hpush_jump5printEP6String@Base 10.11.8
 _ZN19sp_instr_hpush_jump7executeEP3THDPj@Base 10.11.8
 _ZN19sp_instr_hpush_jump8opt_markEP7sp_headP4ListI8sp_instrE@Base 10.11.8
 _ZN19sp_instr_hpush_jump8psi_infoE@Base 10.11.8
 _ZN19sp_instr_hpush_jump9backpatchEjP11sp_pcontext@Base 10.11.8
 _ZN19sp_instr_hpush_jumpD0Ev@Base 10.11.8
 _ZN19sp_instr_hpush_jumpD1Ev@Base 10.11.8
 _ZN19sp_instr_hpush_jumpD2Ev@Base 10.11.8
 _ZN19vers_select_conds_t11check_unitsEP3THD@Base 10.11.8
 _ZN19vers_select_conds_t16init_from_sysvarEP3THD@Base 10.11.8
 _ZN20Bad_db_error_handler16handle_conditionEP3THDjPKcPN21Sql_state_errno_level18enum_warning_levelES3_PP13Sql_condition@Base 10.11.8
 _ZN20Bad_db_error_handlerD0Ev@Base 10.11.8
 _ZN20Bad_db_error_handlerD1Ev@Base 10.11.8
 _ZN20Bad_db_error_handlerD2Ev@Base 10.11.8
 _ZN20Count_distinct_field3addEv@Base 10.11.8
 _ZN20Count_distinct_fieldD0Ev@Base 10.11.8
 _ZN20Count_distinct_fieldD1Ev@Base 10.11.8
 _ZN20Count_distinct_fieldD2Ev@Base 10.11.8
 _ZN20Create_func_boundary11s_singletonE@Base 10.11.8
 _ZN20Create_func_boundary12create_1_argEP3THDP4Item@Base 10.11.8
 _ZN20Create_func_boundaryD0Ev@Base 10.11.8
 _ZN20Create_func_boundaryD1Ev@Base 10.11.8
 _ZN20Create_func_boundaryD2Ev@Base 10.11.8
 _ZN20Create_func_centroid11s_singletonE@Base 10.11.8
 _ZN20Create_func_centroid12create_1_argEP3THDP4Item@Base 10.11.8
 _ZN20Create_func_centroidD0Ev@Base 10.11.8
 _ZN20Create_func_centroidD1Ev@Base 10.11.8
 _ZN20Create_func_centroidD2Ev@Base 10.11.8
 _ZN20Create_func_coalesce11s_singletonE@Base 10.11.8
 _ZN20Create_func_coalesce13create_nativeEP3THDPK25st_mysql_const_lex_stringP4ListI4ItemE@Base 10.11.8
 _ZN20Create_func_coalesceD0Ev@Base 10.11.8
 _ZN20Create_func_coalesceD1Ev@Base 10.11.8
 _ZN20Create_func_coalesceD2Ev@Base 10.11.8
 _ZN20Create_func_compress11s_singletonE@Base 10.11.8
 _ZN20Create_func_compress12create_1_argEP3THDP4Item@Base 10.11.8
 _ZN20Create_func_compressD0Ev@Base 10.11.8
 _ZN20Create_func_compressD1Ev@Base 10.11.8
 _ZN20Create_func_compressD2Ev@Base 10.11.8
 _ZN20Create_func_contains11s_singletonE@Base 10.11.8
 _ZN20Create_func_contains12create_2_argEP3THDP4ItemS3_@Base 10.11.8
 _ZN20Create_func_containsD0Ev@Base 10.11.8
 _ZN20Create_func_containsD1Ev@Base 10.11.8
 _ZN20Create_func_containsD2Ev@Base 10.11.8
 _ZN20Create_func_database11s_singletonE@Base 10.11.8
 _ZN20Create_func_database14create_builderEP3THD@Base 10.11.8
 _ZN20Create_func_databaseD0Ev@Base 10.11.8
 _ZN20Create_func_databaseD1Ev@Base 10.11.8
 _ZN20Create_func_databaseD2Ev@Base 10.11.8
 _ZN20Create_func_datediff11s_singletonE@Base 10.11.8
 _ZN20Create_func_datediff12create_2_argEP3THDP4ItemS3_@Base 10.11.8
 _ZN20Create_func_datediffD0Ev@Base 10.11.8
 _ZN20Create_func_datediffD1Ev@Base 10.11.8
 _ZN20Create_func_datediffD2Ev@Base 10.11.8
 _ZN20Create_func_disjoint11s_singletonE@Base 10.11.8
 _ZN20Create_func_disjoint12create_2_argEP3THDP4ItemS3_@Base 10.11.8
 _ZN20Create_func_disjointD0Ev@Base 10.11.8
 _ZN20Create_func_disjointD1Ev@Base 10.11.8
 _ZN20Create_func_disjointD2Ev@Base 10.11.8
 _ZN20Create_func_distance11s_singletonE@Base 10.11.8
 _ZN20Create_func_distance12create_2_argEP3THDP4ItemS3_@Base 10.11.8
 _ZN20Create_func_distanceD0Ev@Base 10.11.8
 _ZN20Create_func_distanceD1Ev@Base 10.11.8
 _ZN20Create_func_distanceD2Ev@Base 10.11.8
 _ZN20Create_func_endpoint11s_singletonE@Base 10.11.8
 _ZN20Create_func_endpoint12create_1_argEP3THDP4Item@Base 10.11.8
 _ZN20Create_func_endpointD0Ev@Base 10.11.8
 _ZN20Create_func_endpointD1Ev@Base 10.11.8
 _ZN20Create_func_endpointD2Ev@Base 10.11.8
 _ZN20Create_func_envelope11s_singletonE@Base 10.11.8
 _ZN20Create_func_envelope12create_1_argEP3THDP4Item@Base 10.11.8
 _ZN20Create_func_envelopeD0Ev@Base 10.11.8
 _ZN20Create_func_envelopeD1Ev@Base 10.11.8
 _ZN20Create_func_envelopeD2Ev@Base 10.11.8
 _ZN20Create_func_get_lock11s_singletonE@Base 10.11.8
 _ZN20Create_func_get_lock12create_2_argEP3THDP4ItemS3_@Base 10.11.8
 _ZN20Create_func_get_lockD0Ev@Base 10.11.8
 _ZN20Create_func_get_lockD1Ev@Base 10.11.8
 _ZN20Create_func_get_lockD2Ev@Base 10.11.8
 _ZN20Create_func_greatest11s_singletonE@Base 10.11.8
 _ZN20Create_func_greatest13create_nativeEP3THDPK25st_mysql_const_lex_stringP4ListI4ItemE@Base 10.11.8
 _ZN20Create_func_greatestD0Ev@Base 10.11.8
 _ZN20Create_func_greatestD1Ev@Base 10.11.8
 _ZN20Create_func_greatestD2Ev@Base 10.11.8
 _ZN20Create_func_isclosed11s_singletonE@Base 10.11.8
 _ZN20Create_func_isclosed12create_1_argEP3THDP4Item@Base 10.11.8
 _ZN20Create_func_isclosedD0Ev@Base 10.11.8
 _ZN20Create_func_isclosedD1Ev@Base 10.11.8
 _ZN20Create_func_isclosedD2Ev@Base 10.11.8
 _ZN20Create_func_issimple11s_singletonE@Base 10.11.8
 _ZN20Create_func_issimple12create_1_argEP3THDP4Item@Base 10.11.8
 _ZN20Create_func_issimpleD0Ev@Base 10.11.8
 _ZN20Create_func_issimpleD1Ev@Base 10.11.8
 _ZN20Create_func_issimpleD2Ev@Base 10.11.8
 _ZN20Create_func_json_set11s_singletonE@Base 10.11.8
 _ZN20Create_func_json_set13create_nativeEP3THDPK25st_mysql_const_lex_stringP4ListI4ItemE@Base 10.11.8
 _ZN20Create_func_json_setD0Ev@Base 10.11.8
 _ZN20Create_func_json_setD1Ev@Base 10.11.8
 _ZN20Create_func_json_setD2Ev@Base 10.11.8
 _ZN20Create_func_last_day11s_singletonE@Base 10.11.8
 _ZN20Create_func_last_day12create_1_argEP3THDP4Item@Base 10.11.8
 _ZN20Create_func_last_dayD0Ev@Base 10.11.8
 _ZN20Create_func_last_dayD1Ev@Base 10.11.8
 _ZN20Create_func_last_dayD2Ev@Base 10.11.8
 _ZN20Create_func_make_set11s_singletonE@Base 10.11.8
 _ZN20Create_func_make_set13create_nativeEP3THDPK25st_mysql_const_lex_stringP4ListI4ItemE@Base 10.11.8
 _ZN20Create_func_make_setD0Ev@Base 10.11.8
 _ZN20Create_func_make_setD1Ev@Base 10.11.8
 _ZN20Create_func_make_setD2Ev@Base 10.11.8
 _ZN20Create_func_makedate11s_singletonE@Base 10.11.8
 _ZN20Create_func_makedate12create_2_argEP3THDP4ItemS3_@Base 10.11.8
 _ZN20Create_func_makedateD0Ev@Base 10.11.8
 _ZN20Create_func_makedateD1Ev@Base 10.11.8
 _ZN20Create_func_makedateD2Ev@Base 10.11.8
 _ZN20Create_func_maketime11s_singletonE@Base 10.11.8
 _ZN20Create_func_maketime12create_3_argEP3THDP4ItemS3_S3_@Base 10.11.8
 _ZN20Create_func_maketimeD0Ev@Base 10.11.8
 _ZN20Create_func_maketimeD1Ev@Base 10.11.8
 _ZN20Create_func_maketimeD2Ev@Base 10.11.8
 _ZN20Create_func_overlaps11s_singletonE@Base 10.11.8
 _ZN20Create_func_overlaps12create_2_argEP3THDP4ItemS3_@Base 10.11.8
 _ZN20Create_func_overlapsD0Ev@Base 10.11.8
 _ZN20Create_func_overlapsD1Ev@Base 10.11.8
 _ZN20Create_func_overlapsD2Ev@Base 10.11.8
 _ZN20Create_func_password11s_singletonE@Base 10.11.8
 _ZN20Create_func_password12create_1_argEP3THDP4Item@Base 10.11.8
 _ZN20Create_func_passwordD0Ev@Base 10.11.8
 _ZN20Create_func_passwordD1Ev@Base 10.11.8
 _ZN20Create_func_passwordD2Ev@Base 10.11.8
 _ZN20Create_func_timediff11s_singletonE@Base 10.11.8
 _ZN20Create_func_timediff12create_2_argEP3THDP4ItemS3_@Base 10.11.8
 _ZN20Create_func_timediffD0Ev@Base 10.11.8
 _ZN20Create_func_timediffD1Ev@Base 10.11.8
 _ZN20Create_func_timediffD2Ev@Base 10.11.8
 _ZN20Dep_analysis_context15get_field_valueEP5Field@Base 10.11.8
 _ZN20Dep_analysis_context18create_table_valueEP10TABLE_LIST@Base 10.11.8
 _ZN20Dep_analysis_context18find_field_in_listER4ListI4ItemEPS1_@Base 10.11.8
 _ZN20Dep_analysis_context27setup_equality_modules_depsEP4ListI10Dep_moduleE@Base 10.11.8
 _ZN20Dep_analysis_context34create_unique_pseudo_key_if_neededEP10TABLE_LISTP15Dep_value_table@Base 10.11.8
 _ZN20Dep_analysis_context8run_waveEP4ListI10Dep_moduleE@Base 10.11.8
 _ZN20Explain_quick_select10print_jsonEP11Json_writer@Base 10.11.8
 _ZN20Explain_quick_select11print_extraEP6String@Base 10.11.8
 _ZN20Explain_quick_select13print_key_lenEP6String@Base 10.11.8
 _ZN20Explain_quick_select16get_name_by_typeEv@Base 10.11.8
 _ZN20Explain_quick_select21print_extra_recursiveEP6String@Base 10.11.8
 _ZN20Explain_quick_select9print_keyEP6String@Base 10.11.8
 _ZN20Explain_rowid_filter18print_explain_jsonEP13Explain_queryP11Json_writerb@Base 10.11.8
 _ZN20Explain_table_access10push_extraE17explain_extra_tag@Base 10.11.8
 _ZN20Explain_table_access11tag_to_jsonEP11Json_writer17explain_extra_tag@Base 10.11.8
 _ZN20Explain_table_access13print_explainEP18select_result_sinkhbjPKcbb@Base 10.11.8
 _ZN20Explain_table_access14get_r_filteredEv@Base 10.11.8
 _ZN20Explain_table_access15append_tag_nameEP6String17explain_extra_tag@Base 10.11.8
 _ZN20Explain_table_access18print_explain_jsonEP13Explain_queryP11Json_writerb@Base 10.11.8
 _ZN20Field_datetime_hires10store_TIMEEPK13st_mysql_time@Base 10.11.8
 _ZN20Field_datetime_hires8get_dateEP13st_mysql_time11date_mode_t@Base 10.11.8
 _ZN20Field_datetime_hiresD0Ev@Base 10.11.8
 _ZN20Field_datetime_hiresD1Ev@Base 10.11.8
 _ZN20Field_datetime_hiresD2Ev@Base 10.11.8
 _ZN20Field_iterator_table11create_itemEP3THD@Base 10.11.8
 _ZN20Field_iterator_table13end_of_fieldsEv@Base 10.11.8
 _ZN20Field_iterator_table3setEP10TABLE_LIST@Base 10.11.8
 _ZN20Field_iterator_table4nameEv@Base 10.11.8
 _ZN20Field_iterator_table4nextEv@Base 10.11.8
 _ZN20Field_iterator_table5fieldEv@Base 10.11.8
 _ZN20Field_iterator_tableD0Ev@Base 10.11.8
 _ZN20Field_iterator_tableD1Ev@Base 10.11.8
 _ZN20Field_iterator_tableD2Ev@Base 10.11.8
 _ZN20Frame_range_n_bottom12pre_next_rowEv@Base 10.11.8
 _ZN20Frame_range_n_bottom14next_partitionEy@Base 10.11.8
 _ZN20Frame_range_n_bottom18pre_next_partitionEy@Base 10.11.8
 _ZN20Frame_range_n_bottom4initEP11READ_RECORD@Base 10.11.8
 _ZN20Frame_range_n_bottom8next_rowEv@Base 10.11.8
 _ZN20Frame_range_n_bottomD0Ev@Base 10.11.8
 _ZN20Frame_range_n_bottomD1Ev@Base 10.11.8
 _ZN20Frame_range_n_bottomD2Ev@Base 10.11.8
 _ZN20Item_cache_timestamp10val_nativeEP3THDP6Native@Base 10.11.8
 _ZN20Item_cache_timestamp11cache_valueEv@Base 10.11.8
 _ZN20Item_cache_timestamp11to_datetimeEP3THD@Base 10.11.8
 _ZN20Item_cache_timestamp11val_decimalEP10my_decimal@Base 10.11.8
 _ZN20Item_cache_timestamp13save_in_fieldEP5Fieldb@Base 10.11.8
 _ZN20Item_cache_timestamp15val_time_packedEP3THD@Base 10.11.8
 _ZN20Item_cache_timestamp19val_datetime_packedEP3THD@Base 10.11.8
 _ZN20Item_cache_timestamp7val_intEv@Base 10.11.8
 _ZN20Item_cache_timestamp7val_strEP6String@Base 10.11.8
 _ZN20Item_cache_timestamp8get_copyEP3THD@Base 10.11.8
 _ZN20Item_cache_timestamp8get_dateEP3THDP13st_mysql_time11date_mode_t@Base 10.11.8
 _ZN20Item_cache_timestamp8val_realEv@Base 10.11.8
 _ZN20Item_cache_timestampD0Ev@Base 10.11.8
 _ZN20Item_cache_timestampD1Ev@Base 10.11.8
 _ZN20Item_cache_timestampD2Ev@Base 10.11.8
 _ZN20Item_direct_view_ref10fix_fieldsEP3THDPP4Item@Base 10.11.8
 _ZN20Item_direct_view_ref10str_resultEP6String@Base 10.11.8
 _ZN20Item_direct_view_ref10val_nativeEP3THDP6Native@Base 10.11.8
 _ZN20Item_direct_view_ref10val_resultEv@Base 10.11.8
 _ZN20Item_direct_view_ref11val_decimalEP10my_decimal@Base 10.11.8
 _ZN20Item_direct_view_ref13save_in_fieldEP5Fieldb@Base 10.11.8
 _ZN20Item_direct_view_ref14get_item_equalEv@Base 10.11.8
 _ZN20Item_direct_view_ref14set_item_equalEP10Item_equal@Base 10.11.8
 _ZN20Item_direct_view_ref14val_int_resultEv@Base 10.11.8
 _ZN20Item_direct_view_ref15find_item_equalEP10COND_EQUAL@Base 10.11.8
 _ZN20Item_direct_view_ref15val_bool_resultEv@Base 10.11.8
 _ZN20Item_direct_view_ref15val_time_packedEP3THD@Base 10.11.8
 _ZN20Item_direct_view_ref17excl_dep_on_tableEy@Base 10.11.8
 _ZN20Item_direct_view_ref17save_org_in_fieldEP5FieldPFiS1_S1_E@Base 10.11.8
 _ZN20Item_direct_view_ref18get_tmp_table_itemEP3THD@Base 10.11.8
 _ZN20Item_direct_view_ref18update_used_tablesEv@Base 10.11.8
 _ZN20Item_direct_view_ref18val_decimal_resultEP10my_decimal@Base 10.11.8
 _ZN20Item_direct_view_ref19replace_equal_fieldEP3THDPh@Base 10.11.8
 _ZN20Item_direct_view_ref19val_datetime_packedEP3THD@Base 10.11.8
 _ZN20Item_direct_view_ref20save_in_result_fieldEb@Base 10.11.8
 _ZN20Item_direct_view_ref22propagate_equal_fieldsEP3THDRKN12Value_source7ContextEP10COND_EQUAL@Base 10.11.8
 _ZN20Item_direct_view_ref22remove_item_direct_refEv@Base 10.11.8
 _ZN20Item_direct_view_ref26view_used_tables_processorEPv@Base 10.11.8
 _ZN20Item_direct_view_ref27excl_dep_on_grouping_fieldsEP13st_select_lex@Base 10.11.8
 _ZN20Item_direct_view_ref29excl_dep_on_in_subq_left_partEP17Item_in_subselect@Base 10.11.8
 _ZN20Item_direct_view_ref35derived_field_transformer_for_whereEP3THDPh@Base 10.11.8
 _ZN20Item_direct_view_ref35in_subq_field_transformer_for_whereEP3THDPh@Base 10.11.8
 _ZN20Item_direct_view_ref36derived_field_transformer_for_havingEP3THDPh@Base 10.11.8
 _ZN20Item_direct_view_ref36grouping_field_transformer_for_whereEP3THDPh@Base 10.11.8
 _ZN20Item_direct_view_ref36in_subq_field_transformer_for_havingEP3THDPh@Base 10.11.8
 _ZN20Item_direct_view_ref37field_transformer_for_having_pushdownEP3THDPh@Base 10.11.8
 _ZN20Item_direct_view_ref4sendEP8ProtocolP8st_value@Base 10.11.8
 _ZN20Item_direct_view_ref4walkEM4ItemFbPvEbS1_@Base 10.11.8
 _ZN20Item_direct_view_ref7cleanupEv@Base 10.11.8
 _ZN20Item_direct_view_ref7is_nullEv@Base 10.11.8
 _ZN20Item_direct_view_ref7val_intEv@Base 10.11.8
 _ZN20Item_direct_view_ref7val_strEP6String@Base 10.11.8
 _ZN20Item_direct_view_ref8get_copyEP3THD@Base 10.11.8
 _ZN20Item_direct_view_ref8get_dateEP3THDP13st_mysql_time11date_mode_t@Base 10.11.8
 _ZN20Item_direct_view_ref8ref_typeEv@Base 10.11.8
 _ZN20Item_direct_view_ref8save_valEP5Field@Base 10.11.8
 _ZN20Item_direct_view_ref8val_boolEv@Base 10.11.8
 _ZN20Item_direct_view_ref8val_realEv@Base 10.11.8
 _ZN20Item_direct_view_refD0Ev@Base 10.11.8
 _ZN20Item_direct_view_refD1Ev@Base 10.11.8
 _ZN20Item_direct_view_refD2Ev@Base 10.11.8
 _ZN20Item_double_typecast18fix_length_and_decEP3THD@Base 10.11.8
 _ZN20Item_double_typecast8get_copyEP3THD@Base 10.11.8
 _ZN20Item_double_typecast8val_realEv@Base 10.11.8
 _ZN20Item_double_typecastD0Ev@Base 10.11.8
 _ZN20Item_double_typecastD1Ev@Base 10.11.8
 _ZN20Item_double_typecastD2Ev@Base 10.11.8
 _ZN20Item_func_as_geojson13val_str_asciiEP6String@Base 10.11.8
 _ZN20Item_func_as_geojson18fix_length_and_decEP3THD@Base 10.11.8
 _ZN20Item_func_as_geojson8get_copyEP3THD@Base 10.11.8
 _ZN20Item_func_as_geojsonD0Ev@Base 10.11.8
 _ZN20Item_func_as_geojsonD1Ev@Base 10.11.8
 _ZN20Item_func_as_geojsonD2Ev@Base 10.11.8
 _ZN20Item_func_bit_length18fix_length_and_decEP3THD@Base 10.11.8
 _ZN20Item_func_bit_length7val_intEv@Base 10.11.8
 _ZN20Item_func_bit_length8get_copyEP3THD@Base 10.11.8
 _ZN20Item_func_bit_lengthD0Ev@Base 10.11.8
 _ZN20Item_func_bit_lengthD1Ev@Base 10.11.8
 _ZN20Item_func_bit_lengthD2Ev@Base 10.11.8
 _ZN20Item_func_convert_tz18fix_length_and_decEP3THD@Base 10.11.8
 _ZN20Item_func_convert_tz7cleanupEv@Base 10.11.8
 _ZN20Item_func_convert_tz8get_copyEP3THD@Base 10.11.8
 _ZN20Item_func_convert_tz8get_dateEP3THDP13st_mysql_time11date_mode_t@Base 10.11.8
 _ZN20Item_func_convert_tzD0Ev@Base 10.11.8
 _ZN20Item_func_convert_tzD1Ev@Base 10.11.8
 _ZN20Item_func_convert_tzD2Ev@Base 10.11.8
 _ZN20Item_func_convexhull16add_node_to_lineEPPNS_7ch_nodeEiPKN10Gcalc_heap4InfoE@Base 10.11.8
 _ZN20Item_func_convexhull7val_strEP6String@Base 10.11.8
 _ZN20Item_func_convexhull8get_copyEP3THD@Base 10.11.8
 _ZN20Item_func_convexhullD0Ev@Base 10.11.8
 _ZN20Item_func_convexhullD1Ev@Base 10.11.8
 _ZN20Item_func_convexhullD2Ev@Base 10.11.8
 _ZN20Item_func_dayofmonth18fix_length_and_decEP3THD@Base 10.11.8
 _ZN20Item_func_dayofmonth25check_vcol_func_processorEPv@Base 10.11.8
 _ZN20Item_func_dayofmonth30check_partition_func_processorEPv@Base 10.11.8
 _ZN20Item_func_dayofmonth31check_valid_arguments_processorEPv@Base 10.11.8
 _ZN20Item_func_dayofmonth7val_intEv@Base 10.11.8
 _ZN20Item_func_dayofmonth8get_copyEP3THD@Base 10.11.8
 _ZN20Item_func_dayofmonthD0Ev@Base 10.11.8
 _ZN20Item_func_dayofmonthD1Ev@Base 10.11.8
 _ZN20Item_func_dayofmonthD2Ev@Base 10.11.8
 _ZN20Item_func_dyncol_add5printEP6String15enum_query_type@Base 10.11.8
 _ZN20Item_func_dyncol_add7val_strEP6String@Base 10.11.8
